Archive member included to satisfy reference by file (symbol)

/home/antodom/installations/ChibiStudio/tools/GNU Tools ARM Embedded/8.3.1 2019q3/bin/../lib/gcc/arm-none-eabi/8.3.1/../../../../arm-none-eabi/lib/thumb/v7e-m/nofp/libstdc++.a(eh_personality.o)
                              ./build/obj/main.o (symbol from plugin) (__gxx_personality_v0)
/home/antodom/installations/ChibiStudio/tools/GNU Tools ARM Embedded/8.3.1 2019q3/bin/../lib/gcc/arm-none-eabi/8.3.1/../../../../arm-none-eabi/lib/thumb/v7e-m/nofp/libstdc++.a(eh_call.o)
                              /home/antodom/installations/ChibiStudio/tools/GNU Tools ARM Embedded/8.3.1 2019q3/bin/../lib/gcc/arm-none-eabi/8.3.1/../../../../arm-none-eabi/lib/thumb/v7e-m/nofp/libstdc++.a(eh_personality.o) (__cxa_call_terminate)
/home/antodom/installations/ChibiStudio/tools/GNU Tools ARM Embedded/8.3.1 2019q3/bin/../lib/gcc/arm-none-eabi/8.3.1/../../../../arm-none-eabi/lib/thumb/v7e-m/nofp/libstdc++.a(eh_catch.o)
                              /home/antodom/installations/ChibiStudio/tools/GNU Tools ARM Embedded/8.3.1 2019q3/bin/../lib/gcc/arm-none-eabi/8.3.1/../../../../arm-none-eabi/lib/thumb/v7e-m/nofp/libstdc++.a(eh_personality.o) (__cxa_begin_catch)
/home/antodom/installations/ChibiStudio/tools/GNU Tools ARM Embedded/8.3.1 2019q3/bin/../lib/gcc/arm-none-eabi/8.3.1/../../../../arm-none-eabi/lib/thumb/v7e-m/nofp/libstdc++.a(eh_globals.o)
                              /home/antodom/installations/ChibiStudio/tools/GNU Tools ARM Embedded/8.3.1 2019q3/bin/../lib/gcc/arm-none-eabi/8.3.1/../../../../arm-none-eabi/lib/thumb/v7e-m/nofp/libstdc++.a(eh_call.o) (__cxa_get_globals_fast)
/home/antodom/installations/ChibiStudio/tools/GNU Tools ARM Embedded/8.3.1 2019q3/bin/../lib/gcc/arm-none-eabi/8.3.1/../../../../arm-none-eabi/lib/thumb/v7e-m/nofp/libstdc++.a(eh_terminate.o)
                              /home/antodom/installations/ChibiStudio/tools/GNU Tools ARM Embedded/8.3.1 2019q3/bin/../lib/gcc/arm-none-eabi/8.3.1/../../../../arm-none-eabi/lib/thumb/v7e-m/nofp/libstdc++.a(eh_call.o) (__cxxabiv1::__terminate(void (*)()))
/home/antodom/installations/ChibiStudio/tools/GNU Tools ARM Embedded/8.3.1 2019q3/bin/../lib/gcc/arm-none-eabi/8.3.1/../../../../arm-none-eabi/lib/thumb/v7e-m/nofp/libstdc++.a(eh_arm.o)
                              /home/antodom/installations/ChibiStudio/tools/GNU Tools ARM Embedded/8.3.1 2019q3/bin/../lib/gcc/arm-none-eabi/8.3.1/../../../../arm-none-eabi/lib/thumb/v7e-m/nofp/libstdc++.a(eh_call.o) (__cxa_end_cleanup)
/home/antodom/installations/ChibiStudio/tools/GNU Tools ARM Embedded/8.3.1 2019q3/bin/../lib/gcc/arm-none-eabi/8.3.1/../../../../arm-none-eabi/lib/thumb/v7e-m/nofp/libstdc++.a(atexit_arm.o)
                              ./build/obj/main.o (symbol from plugin) (__aeabi_atexit)
/home/antodom/installations/ChibiStudio/tools/GNU Tools ARM Embedded/8.3.1 2019q3/bin/../lib/gcc/arm-none-eabi/8.3.1/../../../../arm-none-eabi/lib/thumb/v7e-m/nofp/libstdc++.a(eh_throw.o)
                              /home/antodom/installations/ChibiStudio/tools/GNU Tools ARM Embedded/8.3.1 2019q3/bin/../lib/gcc/arm-none-eabi/8.3.1/../../../../arm-none-eabi/lib/thumb/v7e-m/nofp/libstdc++.a(eh_call.o) (__cxa_throw)
/home/antodom/installations/ChibiStudio/tools/GNU Tools ARM Embedded/8.3.1 2019q3/bin/../lib/gcc/arm-none-eabi/8.3.1/../../../../arm-none-eabi/lib/thumb/v7e-m/nofp/libstdc++.a(eh_exception.o)
                              /home/antodom/installations/ChibiStudio/tools/GNU Tools ARM Embedded/8.3.1 2019q3/bin/../lib/gcc/arm-none-eabi/8.3.1/../../../../arm-none-eabi/lib/thumb/v7e-m/nofp/libstdc++.a(eh_call.o) (std::bad_exception::~bad_exception())
/home/antodom/installations/ChibiStudio/tools/GNU Tools ARM Embedded/8.3.1 2019q3/bin/../lib/gcc/arm-none-eabi/8.3.1/../../../../arm-none-eabi/lib/thumb/v7e-m/nofp/libstdc++.a(eh_term_handler.o)
                              /home/antodom/installations/ChibiStudio/tools/GNU Tools ARM Embedded/8.3.1 2019q3/bin/../lib/gcc/arm-none-eabi/8.3.1/../../../../arm-none-eabi/lib/thumb/v7e-m/nofp/libstdc++.a(eh_terminate.o) (__cxxabiv1::__terminate_handler)
/home/antodom/installations/ChibiStudio/tools/GNU Tools ARM Embedded/8.3.1 2019q3/bin/../lib/gcc/arm-none-eabi/8.3.1/../../../../arm-none-eabi/lib/thumb/v7e-m/nofp/libstdc++.a(eh_alloc.o)
                              /home/antodom/installations/ChibiStudio/tools/GNU Tools ARM Embedded/8.3.1 2019q3/bin/../lib/gcc/arm-none-eabi/8.3.1/../../../../arm-none-eabi/lib/thumb/v7e-m/nofp/libstdc++.a(eh_call.o) (__cxa_allocate_exception)
/home/antodom/installations/ChibiStudio/tools/GNU Tools ARM Embedded/8.3.1 2019q3/bin/../lib/gcc/arm-none-eabi/8.3.1/../../../../arm-none-eabi/lib/thumb/v7e-m/nofp/libstdc++.a(vterminate.o)
                              /home/antodom/installations/ChibiStudio/tools/GNU Tools ARM Embedded/8.3.1 2019q3/bin/../lib/gcc/arm-none-eabi/8.3.1/../../../../arm-none-eabi/lib/thumb/v7e-m/nofp/libstdc++.a(eh_term_handler.o) (__gnu_cxx::__verbose_terminate_handler())
/home/antodom/installations/ChibiStudio/tools/GNU Tools ARM Embedded/8.3.1 2019q3/bin/../lib/gcc/arm-none-eabi/8.3.1/../../../../arm-none-eabi/lib/thumb/v7e-m/nofp/libstdc++.a(eh_unex_handler.o)
                              /home/antodom/installations/ChibiStudio/tools/GNU Tools ARM Embedded/8.3.1 2019q3/bin/../lib/gcc/arm-none-eabi/8.3.1/../../../../arm-none-eabi/lib/thumb/v7e-m/nofp/libstdc++.a(eh_terminate.o) (__cxxabiv1::__unexpected_handler)
/home/antodom/installations/ChibiStudio/tools/GNU Tools ARM Embedded/8.3.1 2019q3/bin/../lib/gcc/arm-none-eabi/8.3.1/../../../../arm-none-eabi/lib/thumb/v7e-m/nofp/libstdc++.a(cp-demangle.o)
                              /home/antodom/installations/ChibiStudio/tools/GNU Tools ARM Embedded/8.3.1 2019q3/bin/../lib/gcc/arm-none-eabi/8.3.1/../../../../arm-none-eabi/lib/thumb/v7e-m/nofp/libstdc++.a(vterminate.o) (__cxa_demangle)
/home/antodom/installations/ChibiStudio/tools/GNU Tools ARM Embedded/8.3.1 2019q3/bin/../lib/gcc/arm-none-eabi/8.3.1/../../../../arm-none-eabi/lib/thumb/v7e-m/nofp/libstdc++.a(del_ops.o)
                              /home/antodom/installations/ChibiStudio/tools/GNU Tools ARM Embedded/8.3.1 2019q3/bin/../lib/gcc/arm-none-eabi/8.3.1/../../../../arm-none-eabi/lib/thumb/v7e-m/nofp/libstdc++.a(eh_exception.o) (operator delete(void*, unsigned int))
/home/antodom/installations/ChibiStudio/tools/GNU Tools ARM Embedded/8.3.1 2019q3/bin/../lib/gcc/arm-none-eabi/8.3.1/../../../../arm-none-eabi/lib/thumb/v7e-m/nofp/libstdc++.a(si_class_type_info.o)
                              /home/antodom/installations/ChibiStudio/tools/GNU Tools ARM Embedded/8.3.1 2019q3/bin/../lib/gcc/arm-none-eabi/8.3.1/../../../../arm-none-eabi/lib/thumb/v7e-m/nofp/libstdc++.a(eh_exception.o) (vtable for __cxxabiv1::__si_class_type_info)
/home/antodom/installations/ChibiStudio/tools/GNU Tools ARM Embedded/8.3.1 2019q3/bin/../lib/gcc/arm-none-eabi/8.3.1/../../../../arm-none-eabi/lib/thumb/v7e-m/nofp/libstdc++.a(tinfo.o)
                              /home/antodom/installations/ChibiStudio/tools/GNU Tools ARM Embedded/8.3.1 2019q3/bin/../lib/gcc/arm-none-eabi/8.3.1/../../../../arm-none-eabi/lib/thumb/v7e-m/nofp/libstdc++.a(si_class_type_info.o) (std::type_info::__is_pointer_p() const)
/home/antodom/installations/ChibiStudio/tools/GNU Tools ARM Embedded/8.3.1 2019q3/bin/../lib/gcc/arm-none-eabi/8.3.1/../../../../arm-none-eabi/lib/thumb/v7e-m/nofp/libstdc++.a(class_type_info.o)
                              /home/antodom/installations/ChibiStudio/tools/GNU Tools ARM Embedded/8.3.1 2019q3/bin/../lib/gcc/arm-none-eabi/8.3.1/../../../../arm-none-eabi/lib/thumb/v7e-m/nofp/libstdc++.a(si_class_type_info.o) (__cxxabiv1::__class_type_info::__do_upcast(__cxxabiv1::__class_type_info const*, void**) const)
/home/antodom/installations/ChibiStudio/tools/GNU Tools ARM Embedded/8.3.1 2019q3/bin/../lib/gcc/arm-none-eabi/8.3.1/../../../../arm-none-eabi/lib/thumb/v7e-m/nofp/libstdc++.a(eh_type.o)
                              /home/antodom/installations/ChibiStudio/tools/GNU Tools ARM Embedded/8.3.1 2019q3/bin/../lib/gcc/arm-none-eabi/8.3.1/../../../../arm-none-eabi/lib/thumb/v7e-m/nofp/libstdc++.a(vterminate.o) (__cxa_current_exception_type)
/home/antodom/installations/ChibiStudio/tools/GNU Tools ARM Embedded/8.3.1 2019q3/bin/../lib/gcc/arm-none-eabi/8.3.1/../../../../arm-none-eabi/lib/thumb/v7e-m/nofp/libstdc++.a(del_op.o)
                              /home/antodom/installations/ChibiStudio/tools/GNU Tools ARM Embedded/8.3.1 2019q3/bin/../lib/gcc/arm-none-eabi/8.3.1/../../../../arm-none-eabi/lib/thumb/v7e-m/nofp/libstdc++.a(del_ops.o) (operator delete(void*))
/home/antodom/installations/ChibiStudio/tools/GNU Tools ARM Embedded/8.3.1 2019q3/bin/../lib/gcc/arm-none-eabi/8.3.1/thumb/v7e-m/nofp/libgcc.a(unwind-arm.o)
                              /home/antodom/installations/ChibiStudio/tools/GNU Tools ARM Embedded/8.3.1 2019q3/bin/../lib/gcc/arm-none-eabi/8.3.1/../../../../arm-none-eabi/lib/thumb/v7e-m/nofp/libstdc++.a(eh_personality.o) (__aeabi_unwind_cpp_pr0)
/home/antodom/installations/ChibiStudio/tools/GNU Tools ARM Embedded/8.3.1 2019q3/bin/../lib/gcc/arm-none-eabi/8.3.1/thumb/v7e-m/nofp/libgcc.a(libunwind.o)
                              /home/antodom/installations/ChibiStudio/tools/GNU Tools ARM Embedded/8.3.1 2019q3/bin/../lib/gcc/arm-none-eabi/8.3.1/thumb/v7e-m/nofp/libgcc.a(unwind-arm.o) (restore_core_regs)
/home/antodom/installations/ChibiStudio/tools/GNU Tools ARM Embedded/8.3.1 2019q3/bin/../lib/gcc/arm-none-eabi/8.3.1/thumb/v7e-m/nofp/libgcc.a(pr-support.o)
                              /home/antodom/installations/ChibiStudio/tools/GNU Tools ARM Embedded/8.3.1 2019q3/bin/../lib/gcc/arm-none-eabi/8.3.1/thumb/v7e-m/nofp/libgcc.a(unwind-arm.o) (__gnu_unwind_execute)
/home/antodom/installations/ChibiStudio/tools/GNU Tools ARM Embedded/8.3.1 2019q3/bin/../lib/gcc/arm-none-eabi/8.3.1/../../../../arm-none-eabi/lib/thumb/v7e-m/nofp/libg.a(lib_a-abort.o)
                              /home/antodom/installations/ChibiStudio/tools/GNU Tools ARM Embedded/8.3.1 2019q3/bin/../lib/gcc/arm-none-eabi/8.3.1/../../../../arm-none-eabi/lib/thumb/v7e-m/nofp/libstdc++.a(eh_personality.o) (abort)
/home/antodom/installations/ChibiStudio/tools/GNU Tools ARM Embedded/8.3.1 2019q3/bin/../lib/gcc/arm-none-eabi/8.3.1/../../../../arm-none-eabi/lib/thumb/v7e-m/nofp/libg.a(lib_a-cxa_atexit.o)
                              /home/antodom/installations/ChibiStudio/tools/GNU Tools ARM Embedded/8.3.1 2019q3/bin/../lib/gcc/arm-none-eabi/8.3.1/../../../../arm-none-eabi/lib/thumb/v7e-m/nofp/libstdc++.a(atexit_arm.o) (__cxa_atexit)
/home/antodom/installations/ChibiStudio/tools/GNU Tools ARM Embedded/8.3.1 2019q3/bin/../lib/gcc/arm-none-eabi/8.3.1/../../../../arm-none-eabi/lib/thumb/v7e-m/nofp/libg.a(lib_a-fputc.o)
                              /home/antodom/installations/ChibiStudio/tools/GNU Tools ARM Embedded/8.3.1 2019q3/bin/../lib/gcc/arm-none-eabi/8.3.1/../../../../arm-none-eabi/lib/thumb/v7e-m/nofp/libstdc++.a(vterminate.o) (fputc)
/home/antodom/installations/ChibiStudio/tools/GNU Tools ARM Embedded/8.3.1 2019q3/bin/../lib/gcc/arm-none-eabi/8.3.1/../../../../arm-none-eabi/lib/thumb/v7e-m/nofp/libg.a(lib_a-fputs.o)
                              /home/antodom/installations/ChibiStudio/tools/GNU Tools ARM Embedded/8.3.1 2019q3/bin/../lib/gcc/arm-none-eabi/8.3.1/../../../../arm-none-eabi/lib/thumb/v7e-m/nofp/libstdc++.a(vterminate.o) (fputs)
/home/antodom/installations/ChibiStudio/tools/GNU Tools ARM Embedded/8.3.1 2019q3/bin/../lib/gcc/arm-none-eabi/8.3.1/../../../../arm-none-eabi/lib/thumb/v7e-m/nofp/libg.a(lib_a-fvwrite.o)
                              /home/antodom/installations/ChibiStudio/tools/GNU Tools ARM Embedded/8.3.1 2019q3/bin/../lib/gcc/arm-none-eabi/8.3.1/../../../../arm-none-eabi/lib/thumb/v7e-m/nofp/libg.a(lib_a-fputs.o) (__sfvwrite_r)
/home/antodom/installations/ChibiStudio/tools/GNU Tools ARM Embedded/8.3.1 2019q3/bin/../lib/gcc/arm-none-eabi/8.3.1/../../../../arm-none-eabi/lib/thumb/v7e-m/nofp/libg.a(lib_a-fwrite.o)
                              /home/antodom/installations/ChibiStudio/tools/GNU Tools ARM Embedded/8.3.1 2019q3/bin/../lib/gcc/arm-none-eabi/8.3.1/../../../../arm-none-eabi/lib/thumb/v7e-m/nofp/libstdc++.a(vterminate.o) (fwrite)
/home/antodom/installations/ChibiStudio/tools/GNU Tools ARM Embedded/8.3.1 2019q3/bin/../lib/gcc/arm-none-eabi/8.3.1/../../../../arm-none-eabi/lib/thumb/v7e-m/nofp/libg.a(lib_a-impure.o)
                              /home/antodom/installations/ChibiStudio/tools/GNU Tools ARM Embedded/8.3.1 2019q3/bin/../lib/gcc/arm-none-eabi/8.3.1/../../../../arm-none-eabi/lib/thumb/v7e-m/nofp/libstdc++.a(vterminate.o) (_impure_ptr)
/home/antodom/installations/ChibiStudio/tools/GNU Tools ARM Embedded/8.3.1 2019q3/bin/../lib/gcc/arm-none-eabi/8.3.1/../../../../arm-none-eabi/lib/thumb/v7e-m/nofp/libg.a(lib_a-lock.o)
                              /home/antodom/installations/ChibiStudio/tools/GNU Tools ARM Embedded/8.3.1 2019q3/bin/../lib/gcc/arm-none-eabi/8.3.1/../../../../arm-none-eabi/lib/thumb/v7e-m/nofp/libg.a(lib_a-fputc.o) (__retarget_lock_acquire_recursive)
/home/antodom/installations/ChibiStudio/tools/GNU Tools ARM Embedded/8.3.1 2019q3/bin/../lib/gcc/arm-none-eabi/8.3.1/../../../../arm-none-eabi/lib/thumb/v7e-m/nofp/libg.a(lib_a-malloc.o)
                              /home/antodom/installations/ChibiStudio/tools/GNU Tools ARM Embedded/8.3.1 2019q3/bin/../lib/gcc/arm-none-eabi/8.3.1/../../../../arm-none-eabi/lib/thumb/v7e-m/nofp/libstdc++.a(eh_alloc.o) (malloc)
/home/antodom/installations/ChibiStudio/tools/GNU Tools ARM Embedded/8.3.1 2019q3/bin/../lib/gcc/arm-none-eabi/8.3.1/../../../../arm-none-eabi/lib/thumb/v7e-m/nofp/libg.a(lib_a-mallocr.o)
                              /home/antodom/installations/ChibiStudio/tools/GNU Tools ARM Embedded/8.3.1 2019q3/bin/../lib/gcc/arm-none-eabi/8.3.1/../../../../arm-none-eabi/lib/thumb/v7e-m/nofp/libg.a(lib_a-fvwrite.o) (_malloc_r)
/home/antodom/installations/ChibiStudio/tools/GNU Tools ARM Embedded/8.3.1 2019q3/bin/../lib/gcc/arm-none-eabi/8.3.1/../../../../arm-none-eabi/lib/thumb/v7e-m/nofp/libg.a(lib_a-memchr.o)
                              /home/antodom/installations/ChibiStudio/tools/GNU Tools ARM Embedded/8.3.1 2019q3/bin/../lib/gcc/arm-none-eabi/8.3.1/../../../../arm-none-eabi/lib/thumb/v7e-m/nofp/libg.a(lib_a-fvwrite.o) (memchr)
/home/antodom/installations/ChibiStudio/tools/GNU Tools ARM Embedded/8.3.1 2019q3/bin/../lib/gcc/arm-none-eabi/8.3.1/../../../../arm-none-eabi/lib/thumb/v7e-m/nofp/libg.a(lib_a-memcmp.o)
                              /home/antodom/installations/ChibiStudio/tools/GNU Tools ARM Embedded/8.3.1 2019q3/bin/../lib/gcc/arm-none-eabi/8.3.1/../../../../arm-none-eabi/lib/thumb/v7e-m/nofp/libstdc++.a(cp-demangle.o) (memcmp)
/home/antodom/installations/ChibiStudio/tools/GNU Tools ARM Embedded/8.3.1 2019q3/bin/../lib/gcc/arm-none-eabi/8.3.1/../../../../arm-none-eabi/lib/thumb/v7e-m/nofp/libg.a(lib_a-memcpy.o)
                              /home/antodom/installations/ChibiStudio/tools/GNU Tools ARM Embedded/8.3.1 2019q3/bin/../lib/gcc/arm-none-eabi/8.3.1/../../../../arm-none-eabi/lib/thumb/v7e-m/nofp/libstdc++.a(cp-demangle.o) (memcpy)
/home/antodom/installations/ChibiStudio/tools/GNU Tools ARM Embedded/8.3.1 2019q3/bin/../lib/gcc/arm-none-eabi/8.3.1/../../../../arm-none-eabi/lib/thumb/v7e-m/nofp/libg.a(lib_a-memmove.o)
                              /home/antodom/installations/ChibiStudio/tools/GNU Tools ARM Embedded/8.3.1 2019q3/bin/../lib/gcc/arm-none-eabi/8.3.1/../../../../arm-none-eabi/lib/thumb/v7e-m/nofp/libg.a(lib_a-fvwrite.o) (memmove)
/home/antodom/installations/ChibiStudio/tools/GNU Tools ARM Embedded/8.3.1 2019q3/bin/../lib/gcc/arm-none-eabi/8.3.1/../../../../arm-none-eabi/lib/thumb/v7e-m/nofp/libg.a(lib_a-memset.o)
                              /home/antodom/installations/ChibiStudio/tools/GNU Tools ARM Embedded/8.3.1 2019q3/bin/../lib/gcc/arm-none-eabi/8.3.1/../../../../arm-none-eabi/lib/thumb/v7e-m/nofp/libstdc++.a(eh_alloc.o) (memset)
/home/antodom/installations/ChibiStudio/tools/GNU Tools ARM Embedded/8.3.1 2019q3/bin/../lib/gcc/arm-none-eabi/8.3.1/../../../../arm-none-eabi/lib/thumb/v7e-m/nofp/libg.a(lib_a-mlock.o)
                              /home/antodom/installations/ChibiStudio/tools/GNU Tools ARM Embedded/8.3.1 2019q3/bin/../lib/gcc/arm-none-eabi/8.3.1/../../../../arm-none-eabi/lib/thumb/v7e-m/nofp/libg.a(lib_a-mallocr.o) (__malloc_lock)
/home/antodom/installations/ChibiStudio/tools/GNU Tools ARM Embedded/8.3.1 2019q3/bin/../lib/gcc/arm-none-eabi/8.3.1/../../../../arm-none-eabi/lib/thumb/v7e-m/nofp/libg.a(lib_a-putc.o)
                              /home/antodom/installations/ChibiStudio/tools/GNU Tools ARM Embedded/8.3.1 2019q3/bin/../lib/gcc/arm-none-eabi/8.3.1/../../../../arm-none-eabi/lib/thumb/v7e-m/nofp/libg.a(lib_a-fputc.o) (_putc_r)
/home/antodom/installations/ChibiStudio/tools/GNU Tools ARM Embedded/8.3.1 2019q3/bin/../lib/gcc/arm-none-eabi/8.3.1/../../../../arm-none-eabi/lib/thumb/v7e-m/nofp/libg.a(lib_a-realloc.o)
                              /home/antodom/installations/ChibiStudio/tools/GNU Tools ARM Embedded/8.3.1 2019q3/bin/../lib/gcc/arm-none-eabi/8.3.1/../../../../arm-none-eabi/lib/thumb/v7e-m/nofp/libstdc++.a(cp-demangle.o) (realloc)
/home/antodom/installations/ChibiStudio/tools/GNU Tools ARM Embedded/8.3.1 2019q3/bin/../lib/gcc/arm-none-eabi/8.3.1/../../../../arm-none-eabi/lib/thumb/v7e-m/nofp/libg.a(lib_a-reallocr.o)
                              /home/antodom/installations/ChibiStudio/tools/GNU Tools ARM Embedded/8.3.1 2019q3/bin/../lib/gcc/arm-none-eabi/8.3.1/../../../../arm-none-eabi/lib/thumb/v7e-m/nofp/libg.a(lib_a-fvwrite.o) (_realloc_r)
/home/antodom/installations/ChibiStudio/tools/GNU Tools ARM Embedded/8.3.1 2019q3/bin/../lib/gcc/arm-none-eabi/8.3.1/../../../../arm-none-eabi/lib/thumb/v7e-m/nofp/libg.a(lib_a-reent.o)
                              ./build/obj/syscalls_cpp.o (symbol from plugin) (errno)
/home/antodom/installations/ChibiStudio/tools/GNU Tools ARM Embedded/8.3.1 2019q3/bin/../lib/gcc/arm-none-eabi/8.3.1/../../../../arm-none-eabi/lib/thumb/v7e-m/nofp/libg.a(lib_a-signal.o)
                              /home/antodom/installations/ChibiStudio/tools/GNU Tools ARM Embedded/8.3.1 2019q3/bin/../lib/gcc/arm-none-eabi/8.3.1/../../../../arm-none-eabi/lib/thumb/v7e-m/nofp/libg.a(lib_a-abort.o) (raise)
/home/antodom/installations/ChibiStudio/tools/GNU Tools ARM Embedded/8.3.1 2019q3/bin/../lib/gcc/arm-none-eabi/8.3.1/../../../../arm-none-eabi/lib/thumb/v7e-m/nofp/libg.a(lib_a-signalr.o)
                              /home/antodom/installations/ChibiStudio/tools/GNU Tools ARM Embedded/8.3.1 2019q3/bin/../lib/gcc/arm-none-eabi/8.3.1/../../../../arm-none-eabi/lib/thumb/v7e-m/nofp/libg.a(lib_a-signal.o) (_kill_r)
/home/antodom/installations/ChibiStudio/tools/GNU Tools ARM Embedded/8.3.1 2019q3/bin/../lib/gcc/arm-none-eabi/8.3.1/../../../../arm-none-eabi/lib/thumb/v7e-m/nofp/libg.a(lib_a-sprintf.o)
                              /home/antodom/installations/ChibiStudio/tools/GNU Tools ARM Embedded/8.3.1 2019q3/bin/../lib/gcc/arm-none-eabi/8.3.1/../../../../arm-none-eabi/lib/thumb/v7e-m/nofp/libstdc++.a(cp-demangle.o) (sprintf)
/home/antodom/installations/ChibiStudio/tools/GNU Tools ARM Embedded/8.3.1 2019q3/bin/../lib/gcc/arm-none-eabi/8.3.1/../../../../arm-none-eabi/lib/thumb/v7e-m/nofp/libg.a(lib_a-strcmp.o)
                              /home/antodom/installations/ChibiStudio/tools/GNU Tools ARM Embedded/8.3.1 2019q3/bin/../lib/gcc/arm-none-eabi/8.3.1/../../../../arm-none-eabi/lib/thumb/v7e-m/nofp/libstdc++.a(cp-demangle.o) (strcmp)
/home/antodom/installations/ChibiStudio/tools/GNU Tools ARM Embedded/8.3.1 2019q3/bin/../lib/gcc/arm-none-eabi/8.3.1/../../../../arm-none-eabi/lib/thumb/v7e-m/nofp/libg.a(lib_a-strlen.o)
                              /home/antodom/installations/ChibiStudio/tools/GNU Tools ARM Embedded/8.3.1 2019q3/bin/../lib/gcc/arm-none-eabi/8.3.1/../../../../arm-none-eabi/lib/thumb/v7e-m/nofp/libstdc++.a(cp-demangle.o) (strlen)
/home/antodom/installations/ChibiStudio/tools/GNU Tools ARM Embedded/8.3.1 2019q3/bin/../lib/gcc/arm-none-eabi/8.3.1/../../../../arm-none-eabi/lib/thumb/v7e-m/nofp/libg.a(lib_a-strncmp.o)
                              /home/antodom/installations/ChibiStudio/tools/GNU Tools ARM Embedded/8.3.1 2019q3/bin/../lib/gcc/arm-none-eabi/8.3.1/../../../../arm-none-eabi/lib/thumb/v7e-m/nofp/libstdc++.a(cp-demangle.o) (strncmp)
/home/antodom/installations/ChibiStudio/tools/GNU Tools ARM Embedded/8.3.1 2019q3/bin/../lib/gcc/arm-none-eabi/8.3.1/../../../../arm-none-eabi/lib/thumb/v7e-m/nofp/libg.a(lib_a-svfprintf.o)
                              /home/antodom/installations/ChibiStudio/tools/GNU Tools ARM Embedded/8.3.1 2019q3/bin/../lib/gcc/arm-none-eabi/8.3.1/../../../../arm-none-eabi/lib/thumb/v7e-m/nofp/libg.a(lib_a-sprintf.o) (_svfprintf_r)
/home/antodom/installations/ChibiStudio/tools/GNU Tools ARM Embedded/8.3.1 2019q3/bin/../lib/gcc/arm-none-eabi/8.3.1/../../../../arm-none-eabi/lib/thumb/v7e-m/nofp/libg.a(lib_a-wbuf.o)
                              /home/antodom/installations/ChibiStudio/tools/GNU Tools ARM Embedded/8.3.1 2019q3/bin/../lib/gcc/arm-none-eabi/8.3.1/../../../../arm-none-eabi/lib/thumb/v7e-m/nofp/libg.a(lib_a-putc.o) (__swbuf_r)
/home/antodom/installations/ChibiStudio/tools/GNU Tools ARM Embedded/8.3.1 2019q3/bin/../lib/gcc/arm-none-eabi/8.3.1/../../../../arm-none-eabi/lib/thumb/v7e-m/nofp/libg.a(lib_a-wsetup.o)
                              /home/antodom/installations/ChibiStudio/tools/GNU Tools ARM Embedded/8.3.1 2019q3/bin/../lib/gcc/arm-none-eabi/8.3.1/../../../../arm-none-eabi/lib/thumb/v7e-m/nofp/libg.a(lib_a-fvwrite.o) (__swsetup_r)
/home/antodom/installations/ChibiStudio/tools/GNU Tools ARM Embedded/8.3.1 2019q3/bin/../lib/gcc/arm-none-eabi/8.3.1/../../../../arm-none-eabi/lib/thumb/v7e-m/nofp/libg.a(lib_a-__atexit.o)
                              /home/antodom/installations/ChibiStudio/tools/GNU Tools ARM Embedded/8.3.1 2019q3/bin/../lib/gcc/arm-none-eabi/8.3.1/../../../../arm-none-eabi/lib/thumb/v7e-m/nofp/libg.a(lib_a-cxa_atexit.o) (__register_exitproc)
/home/antodom/installations/ChibiStudio/tools/GNU Tools ARM Embedded/8.3.1 2019q3/bin/../lib/gcc/arm-none-eabi/8.3.1/../../../../arm-none-eabi/lib/thumb/v7e-m/nofp/libg.a(lib_a-__call_atexit.o)
                              /home/antodom/installations/ChibiStudio/tools/GNU Tools ARM Embedded/8.3.1 2019q3/bin/../lib/gcc/arm-none-eabi/8.3.1/../../../../arm-none-eabi/lib/thumb/v7e-m/nofp/libg.a(lib_a-__atexit.o) (__atexit_recursive_mutex)
/home/antodom/installations/ChibiStudio/tools/GNU Tools ARM Embedded/8.3.1 2019q3/bin/../lib/gcc/arm-none-eabi/8.3.1/../../../../arm-none-eabi/lib/thumb/v7e-m/nofp/libg.a(lib_a-atexit.o)
                              /home/antodom/installations/ChibiStudio/tools/GNU Tools ARM Embedded/8.3.1 2019q3/bin/../lib/gcc/arm-none-eabi/8.3.1/../../../../arm-none-eabi/lib/thumb/v7e-m/nofp/libg.a(lib_a-__call_atexit.o) (atexit)
/home/antodom/installations/ChibiStudio/tools/GNU Tools ARM Embedded/8.3.1 2019q3/bin/../lib/gcc/arm-none-eabi/8.3.1/../../../../arm-none-eabi/lib/thumb/v7e-m/nofp/libg.a(lib_a-dtoa.o)
                              /home/antodom/installations/ChibiStudio/tools/GNU Tools ARM Embedded/8.3.1 2019q3/bin/../lib/gcc/arm-none-eabi/8.3.1/../../../../arm-none-eabi/lib/thumb/v7e-m/nofp/libg.a(lib_a-svfprintf.o) (_dtoa_r)
/home/antodom/installations/ChibiStudio/tools/GNU Tools ARM Embedded/8.3.1 2019q3/bin/../lib/gcc/arm-none-eabi/8.3.1/../../../../arm-none-eabi/lib/thumb/v7e-m/nofp/libg.a(lib_a-fflush.o)
                              /home/antodom/installations/ChibiStudio/tools/GNU Tools ARM Embedded/8.3.1 2019q3/bin/../lib/gcc/arm-none-eabi/8.3.1/../../../../arm-none-eabi/lib/thumb/v7e-m/nofp/libg.a(lib_a-fvwrite.o) (_fflush_r)
/home/antodom/installations/ChibiStudio/tools/GNU Tools ARM Embedded/8.3.1 2019q3/bin/../lib/gcc/arm-none-eabi/8.3.1/../../../../arm-none-eabi/lib/thumb/v7e-m/nofp/libg.a(lib_a-findfp.o)
                              /home/antodom/installations/ChibiStudio/tools/GNU Tools ARM Embedded/8.3.1 2019q3/bin/../lib/gcc/arm-none-eabi/8.3.1/../../../../arm-none-eabi/lib/thumb/v7e-m/nofp/libg.a(lib_a-fputc.o) (__sinit)
/home/antodom/installations/ChibiStudio/tools/GNU Tools ARM Embedded/8.3.1 2019q3/bin/../lib/gcc/arm-none-eabi/8.3.1/../../../../arm-none-eabi/lib/thumb/v7e-m/nofp/libg.a(lib_a-fini.o)
                              /home/antodom/installations/ChibiStudio/tools/GNU Tools ARM Embedded/8.3.1 2019q3/bin/../lib/gcc/arm-none-eabi/8.3.1/../../../../arm-none-eabi/lib/thumb/v7e-m/nofp/libg.a(lib_a-__call_atexit.o) (__libc_fini_array)
/home/antodom/installations/ChibiStudio/tools/GNU Tools ARM Embedded/8.3.1 2019q3/bin/../lib/gcc/arm-none-eabi/8.3.1/../../../../arm-none-eabi/lib/thumb/v7e-m/nofp/libg.a(lib_a-freer.o)
                              /home/antodom/installations/ChibiStudio/tools/GNU Tools ARM Embedded/8.3.1 2019q3/bin/../lib/gcc/arm-none-eabi/8.3.1/../../../../arm-none-eabi/lib/thumb/v7e-m/nofp/libg.a(lib_a-fvwrite.o) (_free_r)
/home/antodom/installations/ChibiStudio/tools/GNU Tools ARM Embedded/8.3.1 2019q3/bin/../lib/gcc/arm-none-eabi/8.3.1/../../../../arm-none-eabi/lib/thumb/v7e-m/nofp/libg.a(lib_a-fwalk.o)
                              /home/antodom/installations/ChibiStudio/tools/GNU Tools ARM Embedded/8.3.1 2019q3/bin/../lib/gcc/arm-none-eabi/8.3.1/../../../../arm-none-eabi/lib/thumb/v7e-m/nofp/libg.a(lib_a-findfp.o) (_fwalk)
/home/antodom/installations/ChibiStudio/tools/GNU Tools ARM Embedded/8.3.1 2019q3/bin/../lib/gcc/arm-none-eabi/8.3.1/../../../../arm-none-eabi/lib/thumb/v7e-m/nofp/libg.a(lib_a-localeconv.o)
                              /home/antodom/installations/ChibiStudio/tools/GNU Tools ARM Embedded/8.3.1 2019q3/bin/../lib/gcc/arm-none-eabi/8.3.1/../../../../arm-none-eabi/lib/thumb/v7e-m/nofp/libg.a(lib_a-svfprintf.o) (_localeconv_r)
/home/antodom/installations/ChibiStudio/tools/GNU Tools ARM Embedded/8.3.1 2019q3/bin/../lib/gcc/arm-none-eabi/8.3.1/../../../../arm-none-eabi/lib/thumb/v7e-m/nofp/libg.a(lib_a-makebuf.o)
                              /home/antodom/installations/ChibiStudio/tools/GNU Tools ARM Embedded/8.3.1 2019q3/bin/../lib/gcc/arm-none-eabi/8.3.1/../../../../arm-none-eabi/lib/thumb/v7e-m/nofp/libg.a(lib_a-wsetup.o) (__smakebuf_r)
/home/antodom/installations/ChibiStudio/tools/GNU Tools ARM Embedded/8.3.1 2019q3/bin/../lib/gcc/arm-none-eabi/8.3.1/../../../../arm-none-eabi/lib/thumb/v7e-m/nofp/libg.a(lib_a-mprec.o)
                              /home/antodom/installations/ChibiStudio/tools/GNU Tools ARM Embedded/8.3.1 2019q3/bin/../lib/gcc/arm-none-eabi/8.3.1/../../../../arm-none-eabi/lib/thumb/v7e-m/nofp/libg.a(lib_a-dtoa.o) (_Balloc)
/home/antodom/installations/ChibiStudio/tools/GNU Tools ARM Embedded/8.3.1 2019q3/bin/../lib/gcc/arm-none-eabi/8.3.1/../../../../arm-none-eabi/lib/thumb/v7e-m/nofp/libg.a(lib_a-s_frexp.o)
                              /home/antodom/installations/ChibiStudio/tools/GNU Tools ARM Embedded/8.3.1 2019q3/bin/../lib/gcc/arm-none-eabi/8.3.1/../../../../arm-none-eabi/lib/thumb/v7e-m/nofp/libg.a(lib_a-svfprintf.o) (frexp)
/home/antodom/installations/ChibiStudio/tools/GNU Tools ARM Embedded/8.3.1 2019q3/bin/../lib/gcc/arm-none-eabi/8.3.1/../../../../arm-none-eabi/lib/thumb/v7e-m/nofp/libg.a(lib_a-stdio.o)
                              /home/antodom/installations/ChibiStudio/tools/GNU Tools ARM Embedded/8.3.1 2019q3/bin/../lib/gcc/arm-none-eabi/8.3.1/../../../../arm-none-eabi/lib/thumb/v7e-m/nofp/libg.a(lib_a-findfp.o) (__sread)
/home/antodom/installations/ChibiStudio/tools/GNU Tools ARM Embedded/8.3.1 2019q3/bin/../lib/gcc/arm-none-eabi/8.3.1/../../../../arm-none-eabi/lib/thumb/v7e-m/nofp/libg.a(lib_a-strncpy.o)
                              /home/antodom/installations/ChibiStudio/tools/GNU Tools ARM Embedded/8.3.1 2019q3/bin/../lib/gcc/arm-none-eabi/8.3.1/../../../../arm-none-eabi/lib/thumb/v7e-m/nofp/libg.a(lib_a-svfprintf.o) (strncpy)
/home/antodom/installations/ChibiStudio/tools/GNU Tools ARM Embedded/8.3.1 2019q3/bin/../lib/gcc/arm-none-eabi/8.3.1/../../../../arm-none-eabi/lib/thumb/v7e-m/nofp/libg.a(lib_a-svfiprintf.o)
                              /home/antodom/installations/ChibiStudio/tools/GNU Tools ARM Embedded/8.3.1 2019q3/bin/../lib/gcc/arm-none-eabi/8.3.1/../../../../arm-none-eabi/lib/thumb/v7e-m/nofp/libg.a(lib_a-svfprintf.o) (__ssprint_r)
/home/antodom/installations/ChibiStudio/tools/GNU Tools ARM Embedded/8.3.1 2019q3/bin/../lib/gcc/arm-none-eabi/8.3.1/../../../../arm-none-eabi/lib/thumb/v7e-m/nofp/libg.a(lib_a-callocr.o)
                              /home/antodom/installations/ChibiStudio/tools/GNU Tools ARM Embedded/8.3.1 2019q3/bin/../lib/gcc/arm-none-eabi/8.3.1/../../../../arm-none-eabi/lib/thumb/v7e-m/nofp/libg.a(lib_a-mprec.o) (_calloc_r)
/home/antodom/installations/ChibiStudio/tools/GNU Tools ARM Embedded/8.3.1 2019q3/bin/../lib/gcc/arm-none-eabi/8.3.1/../../../../arm-none-eabi/lib/thumb/v7e-m/nofp/libg.a(lib_a-fclose.o)
                              /home/antodom/installations/ChibiStudio/tools/GNU Tools ARM Embedded/8.3.1 2019q3/bin/../lib/gcc/arm-none-eabi/8.3.1/../../../../arm-none-eabi/lib/thumb/v7e-m/nofp/libg.a(lib_a-findfp.o) (_fclose_r)
/home/antodom/installations/ChibiStudio/tools/GNU Tools ARM Embedded/8.3.1 2019q3/bin/../lib/gcc/arm-none-eabi/8.3.1/../../../../arm-none-eabi/lib/thumb/v7e-m/nofp/libg.a(lib_a-locale.o)
                              /home/antodom/installations/ChibiStudio/tools/GNU Tools ARM Embedded/8.3.1 2019q3/bin/../lib/gcc/arm-none-eabi/8.3.1/../../../../arm-none-eabi/lib/thumb/v7e-m/nofp/libg.a(lib_a-localeconv.o) (__global_locale)
/home/antodom/installations/ChibiStudio/tools/GNU Tools ARM Embedded/8.3.1 2019q3/bin/../lib/gcc/arm-none-eabi/8.3.1/../../../../arm-none-eabi/lib/thumb/v7e-m/nofp/libg.a(lib_a-mbtowc_r.o)
                              /home/antodom/installations/ChibiStudio/tools/GNU Tools ARM Embedded/8.3.1 2019q3/bin/../lib/gcc/arm-none-eabi/8.3.1/../../../../arm-none-eabi/lib/thumb/v7e-m/nofp/libg.a(lib_a-locale.o) (__ascii_mbtowc)
/home/antodom/installations/ChibiStudio/tools/GNU Tools ARM Embedded/8.3.1 2019q3/bin/../lib/gcc/arm-none-eabi/8.3.1/../../../../arm-none-eabi/lib/thumb/v7e-m/nofp/libg.a(lib_a-wctomb_r.o)
                              /home/antodom/installations/ChibiStudio/tools/GNU Tools ARM Embedded/8.3.1 2019q3/bin/../lib/gcc/arm-none-eabi/8.3.1/../../../../arm-none-eabi/lib/thumb/v7e-m/nofp/libg.a(lib_a-locale.o) (__ascii_wctomb)
/home/antodom/installations/ChibiStudio/tools/GNU Tools ARM Embedded/8.3.1 2019q3/bin/../lib/gcc/arm-none-eabi/8.3.1/../../../../arm-none-eabi/lib/thumb/v7e-m/nofp/libg.a(lib_a-ctype_.o)
                              /home/antodom/installations/ChibiStudio/tools/GNU Tools ARM Embedded/8.3.1 2019q3/bin/../lib/gcc/arm-none-eabi/8.3.1/../../../../arm-none-eabi/lib/thumb/v7e-m/nofp/libg.a(lib_a-locale.o) (_ctype_)
/home/antodom/installations/ChibiStudio/tools/GNU Tools ARM Embedded/8.3.1 2019q3/bin/../lib/gcc/arm-none-eabi/8.3.1/thumb/v7e-m/nofp/libgcc.a(_arm_addsubdf3.o)
                              /home/antodom/installations/ChibiStudio/tools/GNU Tools ARM Embedded/8.3.1 2019q3/bin/../lib/gcc/arm-none-eabi/8.3.1/../../../../arm-none-eabi/lib/thumb/v7e-m/nofp/libg.a(lib_a-svfprintf.o) (__aeabi_dsub)
/home/antodom/installations/ChibiStudio/tools/GNU Tools ARM Embedded/8.3.1 2019q3/bin/../lib/gcc/arm-none-eabi/8.3.1/thumb/v7e-m/nofp/libgcc.a(_arm_muldivdf3.o)
                              /home/antodom/installations/ChibiStudio/tools/GNU Tools ARM Embedded/8.3.1 2019q3/bin/../lib/gcc/arm-none-eabi/8.3.1/../../../../arm-none-eabi/lib/thumb/v7e-m/nofp/libg.a(lib_a-svfprintf.o) (__aeabi_dmul)
/home/antodom/installations/ChibiStudio/tools/GNU Tools ARM Embedded/8.3.1 2019q3/bin/../lib/gcc/arm-none-eabi/8.3.1/thumb/v7e-m/nofp/libgcc.a(_arm_cmpdf2.o)
                              /home/antodom/installations/ChibiStudio/tools/GNU Tools ARM Embedded/8.3.1 2019q3/bin/../lib/gcc/arm-none-eabi/8.3.1/../../../../arm-none-eabi/lib/thumb/v7e-m/nofp/libg.a(lib_a-svfprintf.o) (__aeabi_dcmpeq)
/home/antodom/installations/ChibiStudio/tools/GNU Tools ARM Embedded/8.3.1 2019q3/bin/../lib/gcc/arm-none-eabi/8.3.1/thumb/v7e-m/nofp/libgcc.a(_arm_unorddf2.o)
                              /home/antodom/installations/ChibiStudio/tools/GNU Tools ARM Embedded/8.3.1 2019q3/bin/../lib/gcc/arm-none-eabi/8.3.1/../../../../arm-none-eabi/lib/thumb/v7e-m/nofp/libg.a(lib_a-svfprintf.o) (__aeabi_dcmpun)
/home/antodom/installations/ChibiStudio/tools/GNU Tools ARM Embedded/8.3.1 2019q3/bin/../lib/gcc/arm-none-eabi/8.3.1/thumb/v7e-m/nofp/libgcc.a(_arm_fixdfsi.o)
                              /home/antodom/installations/ChibiStudio/tools/GNU Tools ARM Embedded/8.3.1 2019q3/bin/../lib/gcc/arm-none-eabi/8.3.1/../../../../arm-none-eabi/lib/thumb/v7e-m/nofp/libg.a(lib_a-svfprintf.o) (__aeabi_d2iz)
/home/antodom/installations/ChibiStudio/tools/GNU Tools ARM Embedded/8.3.1 2019q3/bin/../lib/gcc/arm-none-eabi/8.3.1/thumb/v7e-m/nofp/libgcc.a(_aeabi_uldivmod.o)
                              /home/antodom/installations/ChibiStudio/tools/GNU Tools ARM Embedded/8.3.1 2019q3/bin/../lib/gcc/arm-none-eabi/8.3.1/../../../../arm-none-eabi/lib/thumb/v7e-m/nofp/libg.a(lib_a-svfprintf.o) (__aeabi_uldivmod)
/home/antodom/installations/ChibiStudio/tools/GNU Tools ARM Embedded/8.3.1 2019q3/bin/../lib/gcc/arm-none-eabi/8.3.1/thumb/v7e-m/nofp/libgcc.a(_udivmoddi4.o)
                              /home/antodom/installations/ChibiStudio/tools/GNU Tools ARM Embedded/8.3.1 2019q3/bin/../lib/gcc/arm-none-eabi/8.3.1/thumb/v7e-m/nofp/libgcc.a(_aeabi_uldivmod.o) (__udivmoddi4)
/home/antodom/installations/ChibiStudio/tools/GNU Tools ARM Embedded/8.3.1 2019q3/bin/../lib/gcc/arm-none-eabi/8.3.1/thumb/v7e-m/nofp/libgcc.a(_dvmd_tls.o)
                              /home/antodom/installations/ChibiStudio/tools/GNU Tools ARM Embedded/8.3.1 2019q3/bin/../lib/gcc/arm-none-eabi/8.3.1/thumb/v7e-m/nofp/libgcc.a(_aeabi_uldivmod.o) (__aeabi_ldiv0)
/home/antodom/installations/ChibiStudio/tools/GNU Tools ARM Embedded/8.3.1 2019q3/bin/../lib/gcc/arm-none-eabi/8.3.1/thumb/v7e-m/nofp/libgcc.a(_aeabi_ldivmod.o)
                              /tmp/ccxSiIU7.ltrans0.ltrans.o (__aeabi_ldivmod)

Allocating common symbols
Common symbol       size              file

__lock___atexit_recursive_mutex
                    0x1               /home/antodom/installations/ChibiStudio/tools/GNU Tools ARM Embedded/8.3.1 2019q3/bin/../lib/gcc/arm-none-eabi/8.3.1/../../../../arm-none-eabi/lib/thumb/v7e-m/nofp/libg.a(lib_a-lock.o)
__lock___arc4random_mutex
                    0x1               /home/antodom/installations/ChibiStudio/tools/GNU Tools ARM Embedded/8.3.1 2019q3/bin/../lib/gcc/arm-none-eabi/8.3.1/../../../../arm-none-eabi/lib/thumb/v7e-m/nofp/libg.a(lib_a-lock.o)
errno               0x4               /home/antodom/installations/ChibiStudio/tools/GNU Tools ARM Embedded/8.3.1 2019q3/bin/../lib/gcc/arm-none-eabi/8.3.1/../../../../arm-none-eabi/lib/thumb/v7e-m/nofp/libg.a(lib_a-reent.o)
__lock___env_recursive_mutex
                    0x1               /home/antodom/installations/ChibiStudio/tools/GNU Tools ARM Embedded/8.3.1 2019q3/bin/../lib/gcc/arm-none-eabi/8.3.1/../../../../arm-none-eabi/lib/thumb/v7e-m/nofp/libg.a(lib_a-lock.o)
__lock___sinit_recursive_mutex
                    0x1               /home/antodom/installations/ChibiStudio/tools/GNU Tools ARM Embedded/8.3.1 2019q3/bin/../lib/gcc/arm-none-eabi/8.3.1/../../../../arm-none-eabi/lib/thumb/v7e-m/nofp/libg.a(lib_a-lock.o)
__lock___malloc_recursive_mutex
                    0x1               /home/antodom/installations/ChibiStudio/tools/GNU Tools ARM Embedded/8.3.1 2019q3/bin/../lib/gcc/arm-none-eabi/8.3.1/../../../../arm-none-eabi/lib/thumb/v7e-m/nofp/libg.a(lib_a-lock.o)
__lock___at_quick_exit_mutex
                    0x1               /home/antodom/installations/ChibiStudio/tools/GNU Tools ARM Embedded/8.3.1 2019q3/bin/../lib/gcc/arm-none-eabi/8.3.1/../../../../arm-none-eabi/lib/thumb/v7e-m/nofp/libg.a(lib_a-lock.o)
__lock___dd_hash_mutex
                    0x1               /home/antodom/installations/ChibiStudio/tools/GNU Tools ARM Embedded/8.3.1 2019q3/bin/../lib/gcc/arm-none-eabi/8.3.1/../../../../arm-none-eabi/lib/thumb/v7e-m/nofp/libg.a(lib_a-lock.o)
__lock___tz_mutex   0x1               /home/antodom/installations/ChibiStudio/tools/GNU Tools ARM Embedded/8.3.1 2019q3/bin/../lib/gcc/arm-none-eabi/8.3.1/../../../../arm-none-eabi/lib/thumb/v7e-m/nofp/libg.a(lib_a-lock.o)
__lock___sfp_recursive_mutex
                    0x1               /home/antodom/installations/ChibiStudio/tools/GNU Tools ARM Embedded/8.3.1 2019q3/bin/../lib/gcc/arm-none-eabi/8.3.1/../../../../arm-none-eabi/lib/thumb/v7e-m/nofp/libg.a(lib_a-lock.o)

Discarded input sections

 .data          0x0000000000000000        0x0 ./build/obj/crt0_v7m.o
 .bss           0x0000000000000000        0x0 ./build/obj/crt0_v7m.o
 .data          0x0000000000000000        0x0 ./build/obj/vectors.o
 .bss           0x0000000000000000        0x0 ./build/obj/vectors.o
 .data          0x0000000000000000        0x0 ./build/obj/chcoreasm_v7m.o
 .bss           0x0000000000000000        0x0 ./build/obj/chcoreasm_v7m.o
 .comment       0x0000000000000000     0x1f25 /tmp/ccbVf9uwdebugobj
 .text          0x0000000000000000        0x0 /tmp/ccxSiIU7.ltrans0.ltrans.o
 .data          0x0000000000000000        0x0 /tmp/ccxSiIU7.ltrans0.ltrans.o
 .bss           0x0000000000000000        0x0 /tmp/ccxSiIU7.ltrans0.ltrans.o
 .ARM.extab.text._ZL11chSysUnlockv
                0x0000000000000000        0x0 /tmp/ccxSiIU7.ltrans0.ltrans.o
 .ARM.extab.text._ZN9soft_uart7chibios4uartIXadL_Z5GPTD1EELj256ELj256EE10_uart_ctx_D2Ev
                0x0000000000000000        0x0 /tmp/ccxSiIU7.ltrans0.ltrans.o
 .ARM.extab.text._ZN9soft_uart7chibios4uartIXadL_Z5GPTD3EELj256ELj256EE10_uart_ctx_11get_rx_dataERm
                0x0000000000000000        0x0 /tmp/ccxSiIU7.ltrans0.ltrans.o
 .ARM.extab.text._ZN9soft_uart7chibios4uartIXadL_Z5GPTD3EELj256ELj256EE14_gpt_callback_EP9GPTDriver
                0x0000000000000000        0x0 /tmp/ccxSiIU7.ltrans0.ltrans.o
 .ARM.extab.text._ZN9soft_uart7chibios4uartIXadL_Z5GPTD1EELj256ELj256EE14_gpt_callback_EP9GPTDriver
                0x0000000000000000        0x0 /tmp/ccxSiIU7.ltrans0.ltrans.o
 .ARM.extab.text._ZN9soft_uart7chibios4uartIXadL_Z5GPTD3EELj256ELj256EE13_rx_callback_EPv
                0x0000000000000000        0x0 /tmp/ccxSiIU7.ltrans0.ltrans.o
 .ARM.extab.text._ZN9soft_uart7chibios4uartIXadL_Z5GPTD1EELj256ELj256EE13_rx_callback_EPv
                0x0000000000000000        0x0 /tmp/ccxSiIU7.ltrans0.ltrans.o
 .ARM.extab.text._ZN9soft_uart7chibios4uartIXadL_Z5GPTD3EELj256ELj256EED2Ev
                0x0000000000000000        0x0 /tmp/ccxSiIU7.ltrans0.ltrans.o
 .ARM.extab.text._ZN9soft_uart7chibios4uartIXadL_Z5GPTD1EELj256ELj256EED2Ev
                0x0000000000000000        0x0 /tmp/ccxSiIU7.ltrans0.ltrans.o
 .ARM.extab.text.startup._GLOBAL__sub_I_my_soft_uart_1
                0x0000000000000000        0x0 /tmp/ccxSiIU7.ltrans0.ltrans.o
 .text.__cxa_pure_virtual
                0x0000000000000000       0x14 /tmp/ccxSiIU7.ltrans0.ltrans.o
 .ARM.extab.text.__cxa_pure_virtual
                0x0000000000000000        0x0 /tmp/ccxSiIU7.ltrans0.ltrans.o
 .ARM.exidx.text.__cxa_pure_virtual
                0x0000000000000000        0x8 /tmp/ccxSiIU7.ltrans0.ltrans.o
 .ARM.extab.text._kill
                0x0000000000000000        0x0 /tmp/ccxSiIU7.ltrans0.ltrans.o
 .ARM.extab.text._getpid
                0x0000000000000000        0x0 /tmp/ccxSiIU7.ltrans0.ltrans.o
 .ARM.extab.text._exit
                0x0000000000000000        0x0 /tmp/ccxSiIU7.ltrans0.ltrans.o
 .ARM.extab.text.startup.main
                0x0000000000000000        0x0 /tmp/ccxSiIU7.ltrans0.ltrans.o
 .rodata.__cxa_pure_virtual.str1.4
                0x0000000000000000       0x1c /tmp/ccxSiIU7.ltrans0.ltrans.o
 .text          0x0000000000000000        0x0 /home/antodom/installations/ChibiStudio/tools/GNU Tools ARM Embedded/8.3.1 2019q3/bin/../lib/gcc/arm-none-eabi/8.3.1/../../../../arm-none-eabi/lib/thumb/v7e-m/nofp/libstdc++.a(eh_personality.o)
 .data          0x0000000000000000        0x0 /home/antodom/installations/ChibiStudio/tools/GNU Tools ARM Embedded/8.3.1 2019q3/bin/../lib/gcc/arm-none-eabi/8.3.1/../../../../arm-none-eabi/lib/thumb/v7e-m/nofp/libstdc++.a(eh_personality.o)
 .bss           0x0000000000000000        0x0 /home/antodom/installations/ChibiStudio/tools/GNU Tools ARM Embedded/8.3.1 2019q3/bin/../lib/gcc/arm-none-eabi/8.3.1/../../../../arm-none-eabi/lib/thumb/v7e-m/nofp/libstdc++.a(eh_personality.o)
 .ARM.extab.text._ZL28read_encoded_value_with_basehjPKhPj
                0x0000000000000000        0x0 /home/antodom/installations/ChibiStudio/tools/GNU Tools ARM Embedded/8.3.1 2019q3/bin/../lib/gcc/arm-none-eabi/8.3.1/../../../../arm-none-eabi/lib/thumb/v7e-m/nofp/libstdc++.a(eh_personality.o)
 .ARM.extab.text._ZL17parse_lsda_headerP15_Unwind_ContextPKhP16lsda_header_info
                0x0000000000000000        0x0 /home/antodom/installations/ChibiStudio/tools/GNU Tools ARM Embedded/8.3.1 2019q3/bin/../lib/gcc/arm-none-eabi/8.3.1/../../../../arm-none-eabi/lib/thumb/v7e-m/nofp/libstdc++.a(eh_personality.o)
 .debug_frame   0x0000000000000000       0xa4 /home/antodom/installations/ChibiStudio/tools/GNU Tools ARM Embedded/8.3.1 2019q3/bin/../lib/gcc/arm-none-eabi/8.3.1/../../../../arm-none-eabi/lib/thumb/v7e-m/nofp/libstdc++.a(eh_personality.o)
 .ARM.attributes
                0x0000000000000000       0x2e /home/antodom/installations/ChibiStudio/tools/GNU Tools ARM Embedded/8.3.1 2019q3/bin/../lib/gcc/arm-none-eabi/8.3.1/../../../../arm-none-eabi/lib/thumb/v7e-m/nofp/libstdc++.a(eh_personality.o)
 .text          0x0000000000000000        0x0 /home/antodom/installations/ChibiStudio/tools/GNU Tools ARM Embedded/8.3.1 2019q3/bin/../lib/gcc/arm-none-eabi/8.3.1/../../../../arm-none-eabi/lib/thumb/v7e-m/nofp/libstdc++.a(eh_call.o)
 .data          0x0000000000000000        0x0 /home/antodom/installations/ChibiStudio/tools/GNU Tools ARM Embedded/8.3.1 2019q3/bin/../lib/gcc/arm-none-eabi/8.3.1/../../../../arm-none-eabi/lib/thumb/v7e-m/nofp/libstdc++.a(eh_call.o)
 .bss           0x0000000000000000        0x0 /home/antodom/installations/ChibiStudio/tools/GNU Tools ARM Embedded/8.3.1 2019q3/bin/../lib/gcc/arm-none-eabi/8.3.1/../../../../arm-none-eabi/lib/thumb/v7e-m/nofp/libstdc++.a(eh_call.o)
 .ARM.extab.text._ZN10__cxxabiv1L24__is_gxx_exception_classEPc
                0x0000000000000000        0x0 /home/antodom/installations/ChibiStudio/tools/GNU Tools ARM Embedded/8.3.1 2019q3/bin/../lib/gcc/arm-none-eabi/8.3.1/../../../../arm-none-eabi/lib/thumb/v7e-m/nofp/libstdc++.a(eh_call.o)
 .ARM.extab.text.__cxa_call_terminate
                0x0000000000000000        0x0 /home/antodom/installations/ChibiStudio/tools/GNU Tools ARM Embedded/8.3.1 2019q3/bin/../lib/gcc/arm-none-eabi/8.3.1/../../../../arm-none-eabi/lib/thumb/v7e-m/nofp/libstdc++.a(eh_call.o)
 .debug_frame   0x0000000000000000       0x60 /home/antodom/installations/ChibiStudio/tools/GNU Tools ARM Embedded/8.3.1 2019q3/bin/../lib/gcc/arm-none-eabi/8.3.1/../../../../arm-none-eabi/lib/thumb/v7e-m/nofp/libstdc++.a(eh_call.o)
 .ARM.attributes
                0x0000000000000000       0x2e /home/antodom/installations/ChibiStudio/tools/GNU Tools ARM Embedded/8.3.1 2019q3/bin/../lib/gcc/arm-none-eabi/8.3.1/../../../../arm-none-eabi/lib/thumb/v7e-m/nofp/libstdc++.a(eh_call.o)
 .text          0x0000000000000000        0x0 /home/antodom/installations/ChibiStudio/tools/GNU Tools ARM Embedded/8.3.1 2019q3/bin/../lib/gcc/arm-none-eabi/8.3.1/../../../../arm-none-eabi/lib/thumb/v7e-m/nofp/libstdc++.a(eh_catch.o)
 .data          0x0000000000000000        0x0 /home/antodom/installations/ChibiStudio/tools/GNU Tools ARM Embedded/8.3.1 2019q3/bin/../lib/gcc/arm-none-eabi/8.3.1/../../../../arm-none-eabi/lib/thumb/v7e-m/nofp/libstdc++.a(eh_catch.o)
 .bss           0x0000000000000000        0x0 /home/antodom/installations/ChibiStudio/tools/GNU Tools ARM Embedded/8.3.1 2019q3/bin/../lib/gcc/arm-none-eabi/8.3.1/../../../../arm-none-eabi/lib/thumb/v7e-m/nofp/libstdc++.a(eh_catch.o)
 .text.__cxa_get_exception_ptr
                0x0000000000000000        0x4 /home/antodom/installations/ChibiStudio/tools/GNU Tools ARM Embedded/8.3.1 2019q3/bin/../lib/gcc/arm-none-eabi/8.3.1/../../../../arm-none-eabi/lib/thumb/v7e-m/nofp/libstdc++.a(eh_catch.o)
 .ARM.extab.text.__cxa_get_exception_ptr
                0x0000000000000000        0x0 /home/antodom/installations/ChibiStudio/tools/GNU Tools ARM Embedded/8.3.1 2019q3/bin/../lib/gcc/arm-none-eabi/8.3.1/../../../../arm-none-eabi/lib/thumb/v7e-m/nofp/libstdc++.a(eh_catch.o)
 .ARM.exidx.text.__cxa_get_exception_ptr
                0x0000000000000000        0x8 /home/antodom/installations/ChibiStudio/tools/GNU Tools ARM Embedded/8.3.1 2019q3/bin/../lib/gcc/arm-none-eabi/8.3.1/../../../../arm-none-eabi/lib/thumb/v7e-m/nofp/libstdc++.a(eh_catch.o)
 .ARM.extab.text.__cxa_end_catch
                0x0000000000000000        0x0 /home/antodom/installations/ChibiStudio/tools/GNU Tools ARM Embedded/8.3.1 2019q3/bin/../lib/gcc/arm-none-eabi/8.3.1/../../../../arm-none-eabi/lib/thumb/v7e-m/nofp/libstdc++.a(eh_catch.o)
 .text._ZSt18uncaught_exceptionv
                0x0000000000000000       0x10 /home/antodom/installations/ChibiStudio/tools/GNU Tools ARM Embedded/8.3.1 2019q3/bin/../lib/gcc/arm-none-eabi/8.3.1/../../../../arm-none-eabi/lib/thumb/v7e-m/nofp/libstdc++.a(eh_catch.o)
 .ARM.extab.text._ZSt18uncaught_exceptionv
                0x0000000000000000        0x0 /home/antodom/installations/ChibiStudio/tools/GNU Tools ARM Embedded/8.3.1 2019q3/bin/../lib/gcc/arm-none-eabi/8.3.1/../../../../arm-none-eabi/lib/thumb/v7e-m/nofp/libstdc++.a(eh_catch.o)
 .ARM.exidx.text._ZSt18uncaught_exceptionv
                0x0000000000000000        0x8 /home/antodom/installations/ChibiStudio/tools/GNU Tools ARM Embedded/8.3.1 2019q3/bin/../lib/gcc/arm-none-eabi/8.3.1/../../../../arm-none-eabi/lib/thumb/v7e-m/nofp/libstdc++.a(eh_catch.o)
 .text._ZSt19uncaught_exceptionsv
                0x0000000000000000        0xc /home/antodom/installations/ChibiStudio/tools/GNU Tools ARM Embedded/8.3.1 2019q3/bin/../lib/gcc/arm-none-eabi/8.3.1/../../../../arm-none-eabi/lib/thumb/v7e-m/nofp/libstdc++.a(eh_catch.o)
 .ARM.extab.text._ZSt19uncaught_exceptionsv
                0x0000000000000000        0x0 /home/antodom/installations/ChibiStudio/tools/GNU Tools ARM Embedded/8.3.1 2019q3/bin/../lib/gcc/arm-none-eabi/8.3.1/../../../../arm-none-eabi/lib/thumb/v7e-m/nofp/libstdc++.a(eh_catch.o)
 .ARM.exidx.text._ZSt19uncaught_exceptionsv
                0x0000000000000000        0x8 /home/antodom/installations/ChibiStudio/tools/GNU Tools ARM Embedded/8.3.1 2019q3/bin/../lib/gcc/arm-none-eabi/8.3.1/../../../../arm-none-eabi/lib/thumb/v7e-m/nofp/libstdc++.a(eh_catch.o)
 .debug_frame   0x0000000000000000       0x94 /home/antodom/installations/ChibiStudio/tools/GNU Tools ARM Embedded/8.3.1 2019q3/bin/../lib/gcc/arm-none-eabi/8.3.1/../../../../arm-none-eabi/lib/thumb/v7e-m/nofp/libstdc++.a(eh_catch.o)
 .ARM.attributes
                0x0000000000000000       0x2e /home/antodom/installations/ChibiStudio/tools/GNU Tools ARM Embedded/8.3.1 2019q3/bin/../lib/gcc/arm-none-eabi/8.3.1/../../../../arm-none-eabi/lib/thumb/v7e-m/nofp/libstdc++.a(eh_catch.o)
 .text          0x0000000000000000        0x0 /home/antodom/installations/ChibiStudio/tools/GNU Tools ARM Embedded/8.3.1 2019q3/bin/../lib/gcc/arm-none-eabi/8.3.1/../../../../arm-none-eabi/lib/thumb/v7e-m/nofp/libstdc++.a(eh_globals.o)
 .data          0x0000000000000000        0x0 /home/antodom/installations/ChibiStudio/tools/GNU Tools ARM Embedded/8.3.1 2019q3/bin/../lib/gcc/arm-none-eabi/8.3.1/../../../../arm-none-eabi/lib/thumb/v7e-m/nofp/libstdc++.a(eh_globals.o)
 .bss           0x0000000000000000        0x0 /home/antodom/installations/ChibiStudio/tools/GNU Tools ARM Embedded/8.3.1 2019q3/bin/../lib/gcc/arm-none-eabi/8.3.1/../../../../arm-none-eabi/lib/thumb/v7e-m/nofp/libstdc++.a(eh_globals.o)
 .ARM.extab.text.__cxa_get_globals_fast
                0x0000000000000000        0x0 /home/antodom/installations/ChibiStudio/tools/GNU Tools ARM Embedded/8.3.1 2019q3/bin/../lib/gcc/arm-none-eabi/8.3.1/../../../../arm-none-eabi/lib/thumb/v7e-m/nofp/libstdc++.a(eh_globals.o)
 .ARM.extab.text.__cxa_get_globals
                0x0000000000000000        0x0 /home/antodom/installations/ChibiStudio/tools/GNU Tools ARM Embedded/8.3.1 2019q3/bin/../lib/gcc/arm-none-eabi/8.3.1/../../../../arm-none-eabi/lib/thumb/v7e-m/nofp/libstdc++.a(eh_globals.o)
 .debug_frame   0x0000000000000000       0x30 /home/antodom/installations/ChibiStudio/tools/GNU Tools ARM Embedded/8.3.1 2019q3/bin/../lib/gcc/arm-none-eabi/8.3.1/../../../../arm-none-eabi/lib/thumb/v7e-m/nofp/libstdc++.a(eh_globals.o)
 .ARM.attributes
                0x0000000000000000       0x2e /home/antodom/installations/ChibiStudio/tools/GNU Tools ARM Embedded/8.3.1 2019q3/bin/../lib/gcc/arm-none-eabi/8.3.1/../../../../arm-none-eabi/lib/thumb/v7e-m/nofp/libstdc++.a(eh_globals.o)
 .text          0x0000000000000000        0x0 /home/antodom/installations/ChibiStudio/tools/GNU Tools ARM Embedded/8.3.1 2019q3/bin/../lib/gcc/arm-none-eabi/8.3.1/../../../../arm-none-eabi/lib/thumb/v7e-m/nofp/libstdc++.a(eh_terminate.o)
 .data          0x0000000000000000        0x0 /home/antodom/installations/ChibiStudio/tools/GNU Tools ARM Embedded/8.3.1 2019q3/bin/../lib/gcc/arm-none-eabi/8.3.1/../../../../arm-none-eabi/lib/thumb/v7e-m/nofp/libstdc++.a(eh_terminate.o)
 .bss           0x0000000000000000        0x0 /home/antodom/installations/ChibiStudio/tools/GNU Tools ARM Embedded/8.3.1 2019q3/bin/../lib/gcc/arm-none-eabi/8.3.1/../../../../arm-none-eabi/lib/thumb/v7e-m/nofp/libstdc++.a(eh_terminate.o)
 .ARM.extab.text._ZSt9terminatev
                0x0000000000000000        0x0 /home/antodom/installations/ChibiStudio/tools/GNU Tools ARM Embedded/8.3.1 2019q3/bin/../lib/gcc/arm-none-eabi/8.3.1/../../../../arm-none-eabi/lib/thumb/v7e-m/nofp/libstdc++.a(eh_terminate.o)
 .text._ZSt13set_terminatePFvvE
                0x0000000000000000       0x20 /home/antodom/installations/ChibiStudio/tools/GNU Tools ARM Embedded/8.3.1 2019q3/bin/../lib/gcc/arm-none-eabi/8.3.1/../../../../arm-none-eabi/lib/thumb/v7e-m/nofp/libstdc++.a(eh_terminate.o)
 .ARM.extab.text._ZSt13set_terminatePFvvE
                0x0000000000000000        0x0 /home/antodom/installations/ChibiStudio/tools/GNU Tools ARM Embedded/8.3.1 2019q3/bin/../lib/gcc/arm-none-eabi/8.3.1/../../../../arm-none-eabi/lib/thumb/v7e-m/nofp/libstdc++.a(eh_terminate.o)
 .ARM.exidx.text._ZSt13set_terminatePFvvE
                0x0000000000000000        0x8 /home/antodom/installations/ChibiStudio/tools/GNU Tools ARM Embedded/8.3.1 2019q3/bin/../lib/gcc/arm-none-eabi/8.3.1/../../../../arm-none-eabi/lib/thumb/v7e-m/nofp/libstdc++.a(eh_terminate.o)
 .ARM.extab.text._ZSt13get_terminatev
                0x0000000000000000        0x0 /home/antodom/installations/ChibiStudio/tools/GNU Tools ARM Embedded/8.3.1 2019q3/bin/../lib/gcc/arm-none-eabi/8.3.1/../../../../arm-none-eabi/lib/thumb/v7e-m/nofp/libstdc++.a(eh_terminate.o)
 .text._ZSt14set_unexpectedPFvvE
                0x0000000000000000       0x20 /home/antodom/installations/ChibiStudio/tools/GNU Tools ARM Embedded/8.3.1 2019q3/bin/../lib/gcc/arm-none-eabi/8.3.1/../../../../arm-none-eabi/lib/thumb/v7e-m/nofp/libstdc++.a(eh_terminate.o)
 .ARM.extab.text._ZSt14set_unexpectedPFvvE
                0x0000000000000000        0x0 /home/antodom/installations/ChibiStudio/tools/GNU Tools ARM Embedded/8.3.1 2019q3/bin/../lib/gcc/arm-none-eabi/8.3.1/../../../../arm-none-eabi/lib/thumb/v7e-m/nofp/libstdc++.a(eh_terminate.o)
 .ARM.exidx.text._ZSt14set_unexpectedPFvvE
                0x0000000000000000        0x8 /home/antodom/installations/ChibiStudio/tools/GNU Tools ARM Embedded/8.3.1 2019q3/bin/../lib/gcc/arm-none-eabi/8.3.1/../../../../arm-none-eabi/lib/thumb/v7e-m/nofp/libstdc++.a(eh_terminate.o)
 .ARM.extab.text._ZSt14get_unexpectedv
                0x0000000000000000        0x0 /home/antodom/installations/ChibiStudio/tools/GNU Tools ARM Embedded/8.3.1 2019q3/bin/../lib/gcc/arm-none-eabi/8.3.1/../../../../arm-none-eabi/lib/thumb/v7e-m/nofp/libstdc++.a(eh_terminate.o)
 .debug_frame   0x0000000000000000       0xb0 /home/antodom/installations/ChibiStudio/tools/GNU Tools ARM Embedded/8.3.1 2019q3/bin/../lib/gcc/arm-none-eabi/8.3.1/../../../../arm-none-eabi/lib/thumb/v7e-m/nofp/libstdc++.a(eh_terminate.o)
 .ARM.attributes
                0x0000000000000000       0x2e /home/antodom/installations/ChibiStudio/tools/GNU Tools ARM Embedded/8.3.1 2019q3/bin/../lib/gcc/arm-none-eabi/8.3.1/../../../../arm-none-eabi/lib/thumb/v7e-m/nofp/libstdc++.a(eh_terminate.o)
 .text          0x0000000000000000        0x0 /home/antodom/installations/ChibiStudio/tools/GNU Tools ARM Embedded/8.3.1 2019q3/bin/../lib/gcc/arm-none-eabi/8.3.1/../../../../arm-none-eabi/lib/thumb/v7e-m/nofp/libstdc++.a(eh_arm.o)
 .data          0x0000000000000000        0x0 /home/antodom/installations/ChibiStudio/tools/GNU Tools ARM Embedded/8.3.1 2019q3/bin/../lib/gcc/arm-none-eabi/8.3.1/../../../../arm-none-eabi/lib/thumb/v7e-m/nofp/libstdc++.a(eh_arm.o)
 .bss           0x0000000000000000        0x0 /home/antodom/installations/ChibiStudio/tools/GNU Tools ARM Embedded/8.3.1 2019q3/bin/../lib/gcc/arm-none-eabi/8.3.1/../../../../arm-none-eabi/lib/thumb/v7e-m/nofp/libstdc++.a(eh_arm.o)
 .ARM.extab.text.__cxa_type_match
                0x0000000000000000        0x0 /home/antodom/installations/ChibiStudio/tools/GNU Tools ARM Embedded/8.3.1 2019q3/bin/../lib/gcc/arm-none-eabi/8.3.1/../../../../arm-none-eabi/lib/thumb/v7e-m/nofp/libstdc++.a(eh_arm.o)
 .ARM.extab.text.__cxa_begin_cleanup
                0x0000000000000000        0x0 /home/antodom/installations/ChibiStudio/tools/GNU Tools ARM Embedded/8.3.1 2019q3/bin/../lib/gcc/arm-none-eabi/8.3.1/../../../../arm-none-eabi/lib/thumb/v7e-m/nofp/libstdc++.a(eh_arm.o)
 .ARM.extab.text.__gnu_end_cleanup
                0x0000000000000000        0x0 /home/antodom/installations/ChibiStudio/tools/GNU Tools ARM Embedded/8.3.1 2019q3/bin/../lib/gcc/arm-none-eabi/8.3.1/../../../../arm-none-eabi/lib/thumb/v7e-m/nofp/libstdc++.a(eh_arm.o)
 .debug_frame   0x0000000000000000       0x6c /home/antodom/installations/ChibiStudio/tools/GNU Tools ARM Embedded/8.3.1 2019q3/bin/../lib/gcc/arm-none-eabi/8.3.1/../../../../arm-none-eabi/lib/thumb/v7e-m/nofp/libstdc++.a(eh_arm.o)
 .ARM.attributes
                0x0000000000000000       0x2e /home/antodom/installations/ChibiStudio/tools/GNU Tools ARM Embedded/8.3.1 2019q3/bin/../lib/gcc/arm-none-eabi/8.3.1/../../../../arm-none-eabi/lib/thumb/v7e-m/nofp/libstdc++.a(eh_arm.o)
 .text          0x0000000000000000        0x0 /home/antodom/installations/ChibiStudio/tools/GNU Tools ARM Embedded/8.3.1 2019q3/bin/../lib/gcc/arm-none-eabi/8.3.1/../../../../arm-none-eabi/lib/thumb/v7e-m/nofp/libstdc++.a(atexit_arm.o)
 .data          0x0000000000000000        0x0 /home/antodom/installations/ChibiStudio/tools/GNU Tools ARM Embedded/8.3.1 2019q3/bin/../lib/gcc/arm-none-eabi/8.3.1/../../../../arm-none-eabi/lib/thumb/v7e-m/nofp/libstdc++.a(atexit_arm.o)
 .bss           0x0000000000000000        0x0 /home/antodom/installations/ChibiStudio/tools/GNU Tools ARM Embedded/8.3.1 2019q3/bin/../lib/gcc/arm-none-eabi/8.3.1/../../../../arm-none-eabi/lib/thumb/v7e-m/nofp/libstdc++.a(atexit_arm.o)
 .ARM.extab.text.__aeabi_atexit
                0x0000000000000000        0x0 /home/antodom/installations/ChibiStudio/tools/GNU Tools ARM Embedded/8.3.1 2019q3/bin/../lib/gcc/arm-none-eabi/8.3.1/../../../../arm-none-eabi/lib/thumb/v7e-m/nofp/libstdc++.a(atexit_arm.o)
 .text          0x0000000000000000        0x0 /home/antodom/installations/ChibiStudio/tools/GNU Tools ARM Embedded/8.3.1 2019q3/bin/../lib/gcc/arm-none-eabi/8.3.1/../../../../arm-none-eabi/lib/thumb/v7e-m/nofp/libstdc++.a(eh_throw.o)
 .data          0x0000000000000000        0x0 /home/antodom/installations/ChibiStudio/tools/GNU Tools ARM Embedded/8.3.1 2019q3/bin/../lib/gcc/arm-none-eabi/8.3.1/../../../../arm-none-eabi/lib/thumb/v7e-m/nofp/libstdc++.a(eh_throw.o)
 .bss           0x0000000000000000        0x0 /home/antodom/installations/ChibiStudio/tools/GNU Tools ARM Embedded/8.3.1 2019q3/bin/../lib/gcc/arm-none-eabi/8.3.1/../../../../arm-none-eabi/lib/thumb/v7e-m/nofp/libstdc++.a(eh_throw.o)
 .ARM.extab.text._ZL23__gxx_exception_cleanup19_Unwind_Reason_CodeP21_Unwind_Control_Block
                0x0000000000000000        0x0 /home/antodom/installations/ChibiStudio/tools/GNU Tools ARM Embedded/8.3.1 2019q3/bin/../lib/gcc/arm-none-eabi/8.3.1/../../../../arm-none-eabi/lib/thumb/v7e-m/nofp/libstdc++.a(eh_throw.o)
 .ARM.extab.text.__cxa_init_primary_exception
                0x0000000000000000        0x0 /home/antodom/installations/ChibiStudio/tools/GNU Tools ARM Embedded/8.3.1 2019q3/bin/../lib/gcc/arm-none-eabi/8.3.1/../../../../arm-none-eabi/lib/thumb/v7e-m/nofp/libstdc++.a(eh_throw.o)
 .ARM.extab.text.__cxa_throw
                0x0000000000000000        0x0 /home/antodom/installations/ChibiStudio/tools/GNU Tools ARM Embedded/8.3.1 2019q3/bin/../lib/gcc/arm-none-eabi/8.3.1/../../../../arm-none-eabi/lib/thumb/v7e-m/nofp/libstdc++.a(eh_throw.o)
 .ARM.extab.text.__cxa_rethrow
                0x0000000000000000        0x0 /home/antodom/installations/ChibiStudio/tools/GNU Tools ARM Embedded/8.3.1 2019q3/bin/../lib/gcc/arm-none-eabi/8.3.1/../../../../arm-none-eabi/lib/thumb/v7e-m/nofp/libstdc++.a(eh_throw.o)
 .debug_frame   0x0000000000000000       0x88 /home/antodom/installations/ChibiStudio/tools/GNU Tools ARM Embedded/8.3.1 2019q3/bin/../lib/gcc/arm-none-eabi/8.3.1/../../../../arm-none-eabi/lib/thumb/v7e-m/nofp/libstdc++.a(eh_throw.o)
 .ARM.attributes
                0x0000000000000000       0x2e /home/antodom/installations/ChibiStudio/tools/GNU Tools ARM Embedded/8.3.1 2019q3/bin/../lib/gcc/arm-none-eabi/8.3.1/../../../../arm-none-eabi/lib/thumb/v7e-m/nofp/libstdc++.a(eh_throw.o)
 .text          0x0000000000000000        0x0 /home/antodom/installations/ChibiStudio/tools/GNU Tools ARM Embedded/8.3.1 2019q3/bin/../lib/gcc/arm-none-eabi/8.3.1/../../../../arm-none-eabi/lib/thumb/v7e-m/nofp/libstdc++.a(eh_exception.o)
 .data          0x0000000000000000        0x0 /home/antodom/installations/ChibiStudio/tools/GNU Tools ARM Embedded/8.3.1 2019q3/bin/../lib/gcc/arm-none-eabi/8.3.1/../../../../arm-none-eabi/lib/thumb/v7e-m/nofp/libstdc++.a(eh_exception.o)
 .bss           0x0000000000000000        0x0 /home/antodom/installations/ChibiStudio/tools/GNU Tools ARM Embedded/8.3.1 2019q3/bin/../lib/gcc/arm-none-eabi/8.3.1/../../../../arm-none-eabi/lib/thumb/v7e-m/nofp/libstdc++.a(eh_exception.o)
 .text._ZNSt9exceptionD2Ev
                0x0000000000000000        0x4 /home/antodom/installations/ChibiStudio/tools/GNU Tools ARM Embedded/8.3.1 2019q3/bin/../lib/gcc/arm-none-eabi/8.3.1/../../../../arm-none-eabi/lib/thumb/v7e-m/nofp/libstdc++.a(eh_exception.o)
 .ARM.extab.text._ZNSt9exceptionD2Ev
                0x0000000000000000        0x0 /home/antodom/installations/ChibiStudio/tools/GNU Tools ARM Embedded/8.3.1 2019q3/bin/../lib/gcc/arm-none-eabi/8.3.1/../../../../arm-none-eabi/lib/thumb/v7e-m/nofp/libstdc++.a(eh_exception.o)
 .ARM.exidx.text._ZNSt9exceptionD2Ev
                0x0000000000000000        0x8 /home/antodom/installations/ChibiStudio/tools/GNU Tools ARM Embedded/8.3.1 2019q3/bin/../lib/gcc/arm-none-eabi/8.3.1/../../../../arm-none-eabi/lib/thumb/v7e-m/nofp/libstdc++.a(eh_exception.o)
 .ARM.extab.text._ZNSt13bad_exceptionD2Ev
                0x0000000000000000        0x0 /home/antodom/installations/ChibiStudio/tools/GNU Tools ARM Embedded/8.3.1 2019q3/bin/../lib/gcc/arm-none-eabi/8.3.1/../../../../arm-none-eabi/lib/thumb/v7e-m/nofp/libstdc++.a(eh_exception.o)
 .text._ZNKSt9exception4whatEv
                0x0000000000000000        0x8 /home/antodom/installations/ChibiStudio/tools/GNU Tools ARM Embedded/8.3.1 2019q3/bin/../lib/gcc/arm-none-eabi/8.3.1/../../../../arm-none-eabi/lib/thumb/v7e-m/nofp/libstdc++.a(eh_exception.o)
 .ARM.extab.text._ZNKSt9exception4whatEv
                0x0000000000000000        0x0 /home/antodom/installations/ChibiStudio/tools/GNU Tools ARM Embedded/8.3.1 2019q3/bin/../lib/gcc/arm-none-eabi/8.3.1/../../../../arm-none-eabi/lib/thumb/v7e-m/nofp/libstdc++.a(eh_exception.o)
 .ARM.exidx.text._ZNKSt9exception4whatEv
                0x0000000000000000        0x8 /home/antodom/installations/ChibiStudio/tools/GNU Tools ARM Embedded/8.3.1 2019q3/bin/../lib/gcc/arm-none-eabi/8.3.1/../../../../arm-none-eabi/lib/thumb/v7e-m/nofp/libstdc++.a(eh_exception.o)
 .ARM.extab.text._ZNKSt13bad_exception4whatEv
                0x0000000000000000        0x0 /home/antodom/installations/ChibiStudio/tools/GNU Tools ARM Embedded/8.3.1 2019q3/bin/../lib/gcc/arm-none-eabi/8.3.1/../../../../arm-none-eabi/lib/thumb/v7e-m/nofp/libstdc++.a(eh_exception.o)
 .text._ZNSt9exceptionD0Ev
                0x0000000000000000       0x10 /home/antodom/installations/ChibiStudio/tools/GNU Tools ARM Embedded/8.3.1 2019q3/bin/../lib/gcc/arm-none-eabi/8.3.1/../../../../arm-none-eabi/lib/thumb/v7e-m/nofp/libstdc++.a(eh_exception.o)
 .ARM.extab.text._ZNSt9exceptionD0Ev
                0x0000000000000000        0x0 /home/antodom/installations/ChibiStudio/tools/GNU Tools ARM Embedded/8.3.1 2019q3/bin/../lib/gcc/arm-none-eabi/8.3.1/../../../../arm-none-eabi/lib/thumb/v7e-m/nofp/libstdc++.a(eh_exception.o)
 .ARM.exidx.text._ZNSt9exceptionD0Ev
                0x0000000000000000        0x8 /home/antodom/installations/ChibiStudio/tools/GNU Tools ARM Embedded/8.3.1 2019q3/bin/../lib/gcc/arm-none-eabi/8.3.1/../../../../arm-none-eabi/lib/thumb/v7e-m/nofp/libstdc++.a(eh_exception.o)
 .ARM.extab.text._ZNSt13bad_exceptionD0Ev
                0x0000000000000000        0x0 /home/antodom/installations/ChibiStudio/tools/GNU Tools ARM Embedded/8.3.1 2019q3/bin/../lib/gcc/arm-none-eabi/8.3.1/../../../../arm-none-eabi/lib/thumb/v7e-m/nofp/libstdc++.a(eh_exception.o)
 .text._ZN10__cxxabiv115__forced_unwindD2Ev
                0x0000000000000000        0x4 /home/antodom/installations/ChibiStudio/tools/GNU Tools ARM Embedded/8.3.1 2019q3/bin/../lib/gcc/arm-none-eabi/8.3.1/../../../../arm-none-eabi/lib/thumb/v7e-m/nofp/libstdc++.a(eh_exception.o)
 .ARM.extab.text._ZN10__cxxabiv115__forced_unwindD2Ev
                0x0000000000000000        0x0 /home/antodom/installations/ChibiStudio/tools/GNU Tools ARM Embedded/8.3.1 2019q3/bin/../lib/gcc/arm-none-eabi/8.3.1/../../../../arm-none-eabi/lib/thumb/v7e-m/nofp/libstdc++.a(eh_exception.o)
 .ARM.exidx.text._ZN10__cxxabiv115__forced_unwindD2Ev
                0x0000000000000000        0x8 /home/antodom/installations/ChibiStudio/tools/GNU Tools ARM Embedded/8.3.1 2019q3/bin/../lib/gcc/arm-none-eabi/8.3.1/../../../../arm-none-eabi/lib/thumb/v7e-m/nofp/libstdc++.a(eh_exception.o)
 .text._ZN10__cxxabiv115__forced_unwindD0Ev
                0x0000000000000000       0x10 /home/antodom/installations/ChibiStudio/tools/GNU Tools ARM Embedded/8.3.1 2019q3/bin/../lib/gcc/arm-none-eabi/8.3.1/../../../../arm-none-eabi/lib/thumb/v7e-m/nofp/libstdc++.a(eh_exception.o)
 .ARM.extab.text._ZN10__cxxabiv115__forced_unwindD0Ev
                0x0000000000000000        0x0 /home/antodom/installations/ChibiStudio/tools/GNU Tools ARM Embedded/8.3.1 2019q3/bin/../lib/gcc/arm-none-eabi/8.3.1/../../../../arm-none-eabi/lib/thumb/v7e-m/nofp/libstdc++.a(eh_exception.o)
 .ARM.exidx.text._ZN10__cxxabiv115__forced_unwindD0Ev
                0x0000000000000000        0x8 /home/antodom/installations/ChibiStudio/tools/GNU Tools ARM Embedded/8.3.1 2019q3/bin/../lib/gcc/arm-none-eabi/8.3.1/../../../../arm-none-eabi/lib/thumb/v7e-m/nofp/libstdc++.a(eh_exception.o)
 .text._ZN10__cxxabiv119__foreign_exceptionD2Ev
                0x0000000000000000        0x4 /home/antodom/installations/ChibiStudio/tools/GNU Tools ARM Embedded/8.3.1 2019q3/bin/../lib/gcc/arm-none-eabi/8.3.1/../../../../arm-none-eabi/lib/thumb/v7e-m/nofp/libstdc++.a(eh_exception.o)
 .ARM.extab.text._ZN10__cxxabiv119__foreign_exceptionD2Ev
                0x0000000000000000        0x0 /home/antodom/installations/ChibiStudio/tools/GNU Tools ARM Embedded/8.3.1 2019q3/bin/../lib/gcc/arm-none-eabi/8.3.1/../../../../arm-none-eabi/lib/thumb/v7e-m/nofp/libstdc++.a(eh_exception.o)
 .ARM.exidx.text._ZN10__cxxabiv119__foreign_exceptionD2Ev
                0x0000000000000000        0x8 /home/antodom/installations/ChibiStudio/tools/GNU Tools ARM Embedded/8.3.1 2019q3/bin/../lib/gcc/arm-none-eabi/8.3.1/../../../../arm-none-eabi/lib/thumb/v7e-m/nofp/libstdc++.a(eh_exception.o)
 .text._ZN10__cxxabiv119__foreign_exceptionD0Ev
                0x0000000000000000       0x10 /home/antodom/installations/ChibiStudio/tools/GNU Tools ARM Embedded/8.3.1 2019q3/bin/../lib/gcc/arm-none-eabi/8.3.1/../../../../arm-none-eabi/lib/thumb/v7e-m/nofp/libstdc++.a(eh_exception.o)
 .ARM.extab.text._ZN10__cxxabiv119__foreign_exceptionD0Ev
                0x0000000000000000        0x0 /home/antodom/installations/ChibiStudio/tools/GNU Tools ARM Embedded/8.3.1 2019q3/bin/../lib/gcc/arm-none-eabi/8.3.1/../../../../arm-none-eabi/lib/thumb/v7e-m/nofp/libstdc++.a(eh_exception.o)
 .ARM.exidx.text._ZN10__cxxabiv119__foreign_exceptionD0Ev
                0x0000000000000000        0x8 /home/antodom/installations/ChibiStudio/tools/GNU Tools ARM Embedded/8.3.1 2019q3/bin/../lib/gcc/arm-none-eabi/8.3.1/../../../../arm-none-eabi/lib/thumb/v7e-m/nofp/libstdc++.a(eh_exception.o)
 .text._ZGTtNKSt9exceptionD1Ev
                0x0000000000000000        0x4 /home/antodom/installations/ChibiStudio/tools/GNU Tools ARM Embedded/8.3.1 2019q3/bin/../lib/gcc/arm-none-eabi/8.3.1/../../../../arm-none-eabi/lib/thumb/v7e-m/nofp/libstdc++.a(eh_exception.o)
 .ARM.extab.text._ZGTtNKSt9exceptionD1Ev
                0x0000000000000000        0x0 /home/antodom/installations/ChibiStudio/tools/GNU Tools ARM Embedded/8.3.1 2019q3/bin/../lib/gcc/arm-none-eabi/8.3.1/../../../../arm-none-eabi/lib/thumb/v7e-m/nofp/libstdc++.a(eh_exception.o)
 .ARM.exidx.text._ZGTtNKSt9exceptionD1Ev
                0x0000000000000000        0x8 /home/antodom/installations/ChibiStudio/tools/GNU Tools ARM Embedded/8.3.1 2019q3/bin/../lib/gcc/arm-none-eabi/8.3.1/../../../../arm-none-eabi/lib/thumb/v7e-m/nofp/libstdc++.a(eh_exception.o)
 .text._ZGTtNKSt13bad_exceptionD1Ev
                0x0000000000000000        0x4 /home/antodom/installations/ChibiStudio/tools/GNU Tools ARM Embedded/8.3.1 2019q3/bin/../lib/gcc/arm-none-eabi/8.3.1/../../../../arm-none-eabi/lib/thumb/v7e-m/nofp/libstdc++.a(eh_exception.o)
 .ARM.extab.text._ZGTtNKSt13bad_exceptionD1Ev
                0x0000000000000000        0x0 /home/antodom/installations/ChibiStudio/tools/GNU Tools ARM Embedded/8.3.1 2019q3/bin/../lib/gcc/arm-none-eabi/8.3.1/../../../../arm-none-eabi/lib/thumb/v7e-m/nofp/libstdc++.a(eh_exception.o)
 .ARM.exidx.text._ZGTtNKSt13bad_exceptionD1Ev
                0x0000000000000000        0x8 /home/antodom/installations/ChibiStudio/tools/GNU Tools ARM Embedded/8.3.1 2019q3/bin/../lib/gcc/arm-none-eabi/8.3.1/../../../../arm-none-eabi/lib/thumb/v7e-m/nofp/libstdc++.a(eh_exception.o)
 .rodata._ZNKSt9exception4whatEv.str1.4
                0x0000000000000000        0xf /home/antodom/installations/ChibiStudio/tools/GNU Tools ARM Embedded/8.3.1 2019q3/bin/../lib/gcc/arm-none-eabi/8.3.1/../../../../arm-none-eabi/lib/thumb/v7e-m/nofp/libstdc++.a(eh_exception.o)
 .rodata._ZTVN10__cxxabiv115__forced_unwindE
                0x0000000000000000       0x14 /home/antodom/installations/ChibiStudio/tools/GNU Tools ARM Embedded/8.3.1 2019q3/bin/../lib/gcc/arm-none-eabi/8.3.1/../../../../arm-none-eabi/lib/thumb/v7e-m/nofp/libstdc++.a(eh_exception.o)
 .rodata._ZTVN10__cxxabiv119__foreign_exceptionE
                0x0000000000000000       0x14 /home/antodom/installations/ChibiStudio/tools/GNU Tools ARM Embedded/8.3.1 2019q3/bin/../lib/gcc/arm-none-eabi/8.3.1/../../../../arm-none-eabi/lib/thumb/v7e-m/nofp/libstdc++.a(eh_exception.o)
 .rodata._ZTVSt9exception
                0x0000000000000000       0x14 /home/antodom/installations/ChibiStudio/tools/GNU Tools ARM Embedded/8.3.1 2019q3/bin/../lib/gcc/arm-none-eabi/8.3.1/../../../../arm-none-eabi/lib/thumb/v7e-m/nofp/libstdc++.a(eh_exception.o)
 .debug_frame   0x0000000000000000       0xf0 /home/antodom/installations/ChibiStudio/tools/GNU Tools ARM Embedded/8.3.1 2019q3/bin/../lib/gcc/arm-none-eabi/8.3.1/../../../../arm-none-eabi/lib/thumb/v7e-m/nofp/libstdc++.a(eh_exception.o)
 .ARM.attributes
                0x0000000000000000       0x2e /home/antodom/installations/ChibiStudio/tools/GNU Tools ARM Embedded/8.3.1 2019q3/bin/../lib/gcc/arm-none-eabi/8.3.1/../../../../arm-none-eabi/lib/thumb/v7e-m/nofp/libstdc++.a(eh_exception.o)
 .text          0x0000000000000000        0x0 /home/antodom/installations/ChibiStudio/tools/GNU Tools ARM Embedded/8.3.1 2019q3/bin/../lib/gcc/arm-none-eabi/8.3.1/../../../../arm-none-eabi/lib/thumb/v7e-m/nofp/libstdc++.a(eh_term_handler.o)
 .data          0x0000000000000000        0x0 /home/antodom/installations/ChibiStudio/tools/GNU Tools ARM Embedded/8.3.1 2019q3/bin/../lib/gcc/arm-none-eabi/8.3.1/../../../../arm-none-eabi/lib/thumb/v7e-m/nofp/libstdc++.a(eh_term_handler.o)
 .bss           0x0000000000000000        0x0 /home/antodom/installations/ChibiStudio/tools/GNU Tools ARM Embedded/8.3.1 2019q3/bin/../lib/gcc/arm-none-eabi/8.3.1/../../../../arm-none-eabi/lib/thumb/v7e-m/nofp/libstdc++.a(eh_term_handler.o)
 .ARM.attributes
                0x0000000000000000       0x2e /home/antodom/installations/ChibiStudio/tools/GNU Tools ARM Embedded/8.3.1 2019q3/bin/../lib/gcc/arm-none-eabi/8.3.1/../../../../arm-none-eabi/lib/thumb/v7e-m/nofp/libstdc++.a(eh_term_handler.o)
 .text          0x0000000000000000        0x0 /home/antodom/installations/ChibiStudio/tools/GNU Tools ARM Embedded/8.3.1 2019q3/bin/../lib/gcc/arm-none-eabi/8.3.1/../../../../arm-none-eabi/lib/thumb/v7e-m/nofp/libstdc++.a(eh_alloc.o)
 .data          0x0000000000000000        0x0 /home/antodom/installations/ChibiStudio/tools/GNU Tools ARM Embedded/8.3.1 2019q3/bin/../lib/gcc/arm-none-eabi/8.3.1/../../../../arm-none-eabi/lib/thumb/v7e-m/nofp/libstdc++.a(eh_alloc.o)
 .bss           0x0000000000000000        0x0 /home/antodom/installations/ChibiStudio/tools/GNU Tools ARM Embedded/8.3.1 2019q3/bin/../lib/gcc/arm-none-eabi/8.3.1/../../../../arm-none-eabi/lib/thumb/v7e-m/nofp/libstdc++.a(eh_alloc.o)
 .ARM.extab.text._ZN12_GLOBAL__N_14pool4freeEPv.constprop.4
                0x0000000000000000        0x0 /home/antodom/installations/ChibiStudio/tools/GNU Tools ARM Embedded/8.3.1 2019q3/bin/../lib/gcc/arm-none-eabi/8.3.1/../../../../arm-none-eabi/lib/thumb/v7e-m/nofp/libstdc++.a(eh_alloc.o)
 .ARM.extab.text._ZN12_GLOBAL__N_14pool8allocateEj.constprop.5
                0x0000000000000000        0x0 /home/antodom/installations/ChibiStudio/tools/GNU Tools ARM Embedded/8.3.1 2019q3/bin/../lib/gcc/arm-none-eabi/8.3.1/../../../../arm-none-eabi/lib/thumb/v7e-m/nofp/libstdc++.a(eh_alloc.o)
 .text._ZN9__gnu_cxx9__freeresEv
                0x0000000000000000       0x18 /home/antodom/installations/ChibiStudio/tools/GNU Tools ARM Embedded/8.3.1 2019q3/bin/../lib/gcc/arm-none-eabi/8.3.1/../../../../arm-none-eabi/lib/thumb/v7e-m/nofp/libstdc++.a(eh_alloc.o)
 .ARM.extab.text._ZN9__gnu_cxx9__freeresEv
                0x0000000000000000        0x0 /home/antodom/installations/ChibiStudio/tools/GNU Tools ARM Embedded/8.3.1 2019q3/bin/../lib/gcc/arm-none-eabi/8.3.1/../../../../arm-none-eabi/lib/thumb/v7e-m/nofp/libstdc++.a(eh_alloc.o)
 .ARM.exidx.text._ZN9__gnu_cxx9__freeresEv
                0x0000000000000000        0x8 /home/antodom/installations/ChibiStudio/tools/GNU Tools ARM Embedded/8.3.1 2019q3/bin/../lib/gcc/arm-none-eabi/8.3.1/../../../../arm-none-eabi/lib/thumb/v7e-m/nofp/libstdc++.a(eh_alloc.o)
 .ARM.extab.text.__cxa_allocate_exception
                0x0000000000000000        0x0 /home/antodom/installations/ChibiStudio/tools/GNU Tools ARM Embedded/8.3.1 2019q3/bin/../lib/gcc/arm-none-eabi/8.3.1/../../../../arm-none-eabi/lib/thumb/v7e-m/nofp/libstdc++.a(eh_alloc.o)
 .ARM.extab.text.__cxa_free_exception
                0x0000000000000000        0x0 /home/antodom/installations/ChibiStudio/tools/GNU Tools ARM Embedded/8.3.1 2019q3/bin/../lib/gcc/arm-none-eabi/8.3.1/../../../../arm-none-eabi/lib/thumb/v7e-m/nofp/libstdc++.a(eh_alloc.o)
 .text.__cxa_allocate_dependent_exception
                0x0000000000000000       0x28 /home/antodom/installations/ChibiStudio/tools/GNU Tools ARM Embedded/8.3.1 2019q3/bin/../lib/gcc/arm-none-eabi/8.3.1/../../../../arm-none-eabi/lib/thumb/v7e-m/nofp/libstdc++.a(eh_alloc.o)
 .ARM.extab.text.__cxa_allocate_dependent_exception
                0x0000000000000000        0x0 /home/antodom/installations/ChibiStudio/tools/GNU Tools ARM Embedded/8.3.1 2019q3/bin/../lib/gcc/arm-none-eabi/8.3.1/../../../../arm-none-eabi/lib/thumb/v7e-m/nofp/libstdc++.a(eh_alloc.o)
 .ARM.exidx.text.__cxa_allocate_dependent_exception
                0x0000000000000000        0x8 /home/antodom/installations/ChibiStudio/tools/GNU Tools ARM Embedded/8.3.1 2019q3/bin/../lib/gcc/arm-none-eabi/8.3.1/../../../../arm-none-eabi/lib/thumb/v7e-m/nofp/libstdc++.a(eh_alloc.o)
 .text.__cxa_free_dependent_exception
                0x0000000000000000       0x20 /home/antodom/installations/ChibiStudio/tools/GNU Tools ARM Embedded/8.3.1 2019q3/bin/../lib/gcc/arm-none-eabi/8.3.1/../../../../arm-none-eabi/lib/thumb/v7e-m/nofp/libstdc++.a(eh_alloc.o)
 .ARM.extab.text.__cxa_free_dependent_exception
                0x0000000000000000        0x0 /home/antodom/installations/ChibiStudio/tools/GNU Tools ARM Embedded/8.3.1 2019q3/bin/../lib/gcc/arm-none-eabi/8.3.1/../../../../arm-none-eabi/lib/thumb/v7e-m/nofp/libstdc++.a(eh_alloc.o)
 .ARM.exidx.text.__cxa_free_dependent_exception
                0x0000000000000000        0x8 /home/antodom/installations/ChibiStudio/tools/GNU Tools ARM Embedded/8.3.1 2019q3/bin/../lib/gcc/arm-none-eabi/8.3.1/../../../../arm-none-eabi/lib/thumb/v7e-m/nofp/libstdc++.a(eh_alloc.o)
 .ARM.extab.text.startup._GLOBAL__sub_I__ZN9__gnu_cxx9__freeresEv
                0x0000000000000000        0x0 /home/antodom/installations/ChibiStudio/tools/GNU Tools ARM Embedded/8.3.1 2019q3/bin/../lib/gcc/arm-none-eabi/8.3.1/../../../../arm-none-eabi/lib/thumb/v7e-m/nofp/libstdc++.a(eh_alloc.o)
 .text          0x0000000000000000        0x0 /home/antodom/installations/ChibiStudio/tools/GNU Tools ARM Embedded/8.3.1 2019q3/bin/../lib/gcc/arm-none-eabi/8.3.1/../../../../arm-none-eabi/lib/thumb/v7e-m/nofp/libstdc++.a(vterminate.o)
 .data          0x0000000000000000        0x0 /home/antodom/installations/ChibiStudio/tools/GNU Tools ARM Embedded/8.3.1 2019q3/bin/../lib/gcc/arm-none-eabi/8.3.1/../../../../arm-none-eabi/lib/thumb/v7e-m/nofp/libstdc++.a(vterminate.o)
 .bss           0x0000000000000000        0x0 /home/antodom/installations/ChibiStudio/tools/GNU Tools ARM Embedded/8.3.1 2019q3/bin/../lib/gcc/arm-none-eabi/8.3.1/../../../../arm-none-eabi/lib/thumb/v7e-m/nofp/libstdc++.a(vterminate.o)
 .debug_frame   0x0000000000000000       0x30 /home/antodom/installations/ChibiStudio/tools/GNU Tools ARM Embedded/8.3.1 2019q3/bin/../lib/gcc/arm-none-eabi/8.3.1/../../../../arm-none-eabi/lib/thumb/v7e-m/nofp/libstdc++.a(vterminate.o)
 .ARM.attributes
                0x0000000000000000       0x2e /home/antodom/installations/ChibiStudio/tools/GNU Tools ARM Embedded/8.3.1 2019q3/bin/../lib/gcc/arm-none-eabi/8.3.1/../../../../arm-none-eabi/lib/thumb/v7e-m/nofp/libstdc++.a(vterminate.o)
 .text          0x0000000000000000        0x0 /home/antodom/installations/ChibiStudio/tools/GNU Tools ARM Embedded/8.3.1 2019q3/bin/../lib/gcc/arm-none-eabi/8.3.1/../../../../arm-none-eabi/lib/thumb/v7e-m/nofp/libstdc++.a(eh_unex_handler.o)
 .data          0x0000000000000000        0x0 /home/antodom/installations/ChibiStudio/tools/GNU Tools ARM Embedded/8.3.1 2019q3/bin/../lib/gcc/arm-none-eabi/8.3.1/../../../../arm-none-eabi/lib/thumb/v7e-m/nofp/libstdc++.a(eh_unex_handler.o)
 .bss           0x0000000000000000        0x0 /home/antodom/installations/ChibiStudio/tools/GNU Tools ARM Embedded/8.3.1 2019q3/bin/../lib/gcc/arm-none-eabi/8.3.1/../../../../arm-none-eabi/lib/thumb/v7e-m/nofp/libstdc++.a(eh_unex_handler.o)
 .ARM.attributes
                0x0000000000000000       0x2e /home/antodom/installations/ChibiStudio/tools/GNU Tools ARM Embedded/8.3.1 2019q3/bin/../lib/gcc/arm-none-eabi/8.3.1/../../../../arm-none-eabi/lib/thumb/v7e-m/nofp/libstdc++.a(eh_unex_handler.o)
 .data          0x0000000000000000        0x0 /home/antodom/installations/ChibiStudio/tools/GNU Tools ARM Embedded/8.3.1 2019q3/bin/../lib/gcc/arm-none-eabi/8.3.1/../../../../arm-none-eabi/lib/thumb/v7e-m/nofp/libstdc++.a(cp-demangle.o)
 .bss           0x0000000000000000        0x0 /home/antodom/installations/ChibiStudio/tools/GNU Tools ARM Embedded/8.3.1 2019q3/bin/../lib/gcc/arm-none-eabi/8.3.1/../../../../arm-none-eabi/lib/thumb/v7e-m/nofp/libstdc++.a(cp-demangle.o)
 .debug_frame   0x0000000000000000      0x850 /home/antodom/installations/ChibiStudio/tools/GNU Tools ARM Embedded/8.3.1 2019q3/bin/../lib/gcc/arm-none-eabi/8.3.1/../../../../arm-none-eabi/lib/thumb/v7e-m/nofp/libstdc++.a(cp-demangle.o)
 .ARM.attributes
                0x0000000000000000       0x2e /home/antodom/installations/ChibiStudio/tools/GNU Tools ARM Embedded/8.3.1 2019q3/bin/../lib/gcc/arm-none-eabi/8.3.1/../../../../arm-none-eabi/lib/thumb/v7e-m/nofp/libstdc++.a(cp-demangle.o)
 .text          0x0000000000000000        0x0 /home/antodom/installations/ChibiStudio/tools/GNU Tools ARM Embedded/8.3.1 2019q3/bin/../lib/gcc/arm-none-eabi/8.3.1/../../../../arm-none-eabi/lib/thumb/v7e-m/nofp/libstdc++.a(del_ops.o)
 .data          0x0000000000000000        0x0 /home/antodom/installations/ChibiStudio/tools/GNU Tools ARM Embedded/8.3.1 2019q3/bin/../lib/gcc/arm-none-eabi/8.3.1/../../../../arm-none-eabi/lib/thumb/v7e-m/nofp/libstdc++.a(del_ops.o)
 .bss           0x0000000000000000        0x0 /home/antodom/installations/ChibiStudio/tools/GNU Tools ARM Embedded/8.3.1 2019q3/bin/../lib/gcc/arm-none-eabi/8.3.1/../../../../arm-none-eabi/lib/thumb/v7e-m/nofp/libstdc++.a(del_ops.o)
 .ARM.extab.text._ZdlPvj
                0x0000000000000000        0x0 /home/antodom/installations/ChibiStudio/tools/GNU Tools ARM Embedded/8.3.1 2019q3/bin/../lib/gcc/arm-none-eabi/8.3.1/../../../../arm-none-eabi/lib/thumb/v7e-m/nofp/libstdc++.a(del_ops.o)
 .debug_frame   0x0000000000000000       0x20 /home/antodom/installations/ChibiStudio/tools/GNU Tools ARM Embedded/8.3.1 2019q3/bin/../lib/gcc/arm-none-eabi/8.3.1/../../../../arm-none-eabi/lib/thumb/v7e-m/nofp/libstdc++.a(del_ops.o)
 .ARM.attributes
                0x0000000000000000       0x2e /home/antodom/installations/ChibiStudio/tools/GNU Tools ARM Embedded/8.3.1 2019q3/bin/../lib/gcc/arm-none-eabi/8.3.1/../../../../arm-none-eabi/lib/thumb/v7e-m/nofp/libstdc++.a(del_ops.o)
 .text          0x0000000000000000        0x0 /home/antodom/installations/ChibiStudio/tools/GNU Tools ARM Embedded/8.3.1 2019q3/bin/../lib/gcc/arm-none-eabi/8.3.1/../../../../arm-none-eabi/lib/thumb/v7e-m/nofp/libstdc++.a(si_class_type_info.o)
 .data          0x0000000000000000        0x0 /home/antodom/installations/ChibiStudio/tools/GNU Tools ARM Embedded/8.3.1 2019q3/bin/../lib/gcc/arm-none-eabi/8.3.1/../../../../arm-none-eabi/lib/thumb/v7e-m/nofp/libstdc++.a(si_class_type_info.o)
 .bss           0x0000000000000000        0x0 /home/antodom/installations/ChibiStudio/tools/GNU Tools ARM Embedded/8.3.1 2019q3/bin/../lib/gcc/arm-none-eabi/8.3.1/../../../../arm-none-eabi/lib/thumb/v7e-m/nofp/libstdc++.a(si_class_type_info.o)
 .ARM.extab.text._ZN10__cxxabiv120__si_class_type_infoD2Ev
                0x0000000000000000        0x0 /home/antodom/installations/ChibiStudio/tools/GNU Tools ARM Embedded/8.3.1 2019q3/bin/../lib/gcc/arm-none-eabi/8.3.1/../../../../arm-none-eabi/lib/thumb/v7e-m/nofp/libstdc++.a(si_class_type_info.o)
 .ARM.extab.text._ZN10__cxxabiv120__si_class_type_infoD0Ev
                0x0000000000000000        0x0 /home/antodom/installations/ChibiStudio/tools/GNU Tools ARM Embedded/8.3.1 2019q3/bin/../lib/gcc/arm-none-eabi/8.3.1/../../../../arm-none-eabi/lib/thumb/v7e-m/nofp/libstdc++.a(si_class_type_info.o)
 .ARM.extab.text._ZNK10__cxxabiv120__si_class_type_info20__do_find_public_srcEiPKvPKNS_17__class_type_infoES2_
                0x0000000000000000        0x0 /home/antodom/installations/ChibiStudio/tools/GNU Tools ARM Embedded/8.3.1 2019q3/bin/../lib/gcc/arm-none-eabi/8.3.1/../../../../arm-none-eabi/lib/thumb/v7e-m/nofp/libstdc++.a(si_class_type_info.o)
 .ARM.extab.text._ZNK10__cxxabiv120__si_class_type_info12__do_dyncastEiNS_17__class_type_info10__sub_kindEPKS1_PKvS4_S6_RNS1_16__dyncast_resultE
                0x0000000000000000        0x0 /home/antodom/installations/ChibiStudio/tools/GNU Tools ARM Embedded/8.3.1 2019q3/bin/../lib/gcc/arm-none-eabi/8.3.1/../../../../arm-none-eabi/lib/thumb/v7e-m/nofp/libstdc++.a(si_class_type_info.o)
 .ARM.extab.text._ZNK10__cxxabiv120__si_class_type_info11__do_upcastEPKNS_17__class_type_infoEPKvRNS1_15__upcast_resultE
                0x0000000000000000        0x0 /home/antodom/installations/ChibiStudio/tools/GNU Tools ARM Embedded/8.3.1 2019q3/bin/../lib/gcc/arm-none-eabi/8.3.1/../../../../arm-none-eabi/lib/thumb/v7e-m/nofp/libstdc++.a(si_class_type_info.o)
 .debug_frame   0x0000000000000000       0xdc /home/antodom/installations/ChibiStudio/tools/GNU Tools ARM Embedded/8.3.1 2019q3/bin/../lib/gcc/arm-none-eabi/8.3.1/../../../../arm-none-eabi/lib/thumb/v7e-m/nofp/libstdc++.a(si_class_type_info.o)
 .ARM.attributes
                0x0000000000000000       0x2e /home/antodom/installations/ChibiStudio/tools/GNU Tools ARM Embedded/8.3.1 2019q3/bin/../lib/gcc/arm-none-eabi/8.3.1/../../../../arm-none-eabi/lib/thumb/v7e-m/nofp/libstdc++.a(si_class_type_info.o)
 .text          0x0000000000000000        0x0 /home/antodom/installations/ChibiStudio/tools/GNU Tools ARM Embedded/8.3.1 2019q3/bin/../lib/gcc/arm-none-eabi/8.3.1/../../../../arm-none-eabi/lib/thumb/v7e-m/nofp/libstdc++.a(tinfo.o)
 .data          0x0000000000000000        0x0 /home/antodom/installations/ChibiStudio/tools/GNU Tools ARM Embedded/8.3.1 2019q3/bin/../lib/gcc/arm-none-eabi/8.3.1/../../../../arm-none-eabi/lib/thumb/v7e-m/nofp/libstdc++.a(tinfo.o)
 .bss           0x0000000000000000        0x0 /home/antodom/installations/ChibiStudio/tools/GNU Tools ARM Embedded/8.3.1 2019q3/bin/../lib/gcc/arm-none-eabi/8.3.1/../../../../arm-none-eabi/lib/thumb/v7e-m/nofp/libstdc++.a(tinfo.o)
 .ARM.extab.text._ZNSt9type_infoD2Ev
                0x0000000000000000        0x0 /home/antodom/installations/ChibiStudio/tools/GNU Tools ARM Embedded/8.3.1 2019q3/bin/../lib/gcc/arm-none-eabi/8.3.1/../../../../arm-none-eabi/lib/thumb/v7e-m/nofp/libstdc++.a(tinfo.o)
 .ARM.extab.text._ZNKSt9type_info14__is_pointer_pEv
                0x0000000000000000        0x0 /home/antodom/installations/ChibiStudio/tools/GNU Tools ARM Embedded/8.3.1 2019q3/bin/../lib/gcc/arm-none-eabi/8.3.1/../../../../arm-none-eabi/lib/thumb/v7e-m/nofp/libstdc++.a(tinfo.o)
 .text._ZNKSt9type_info11__do_upcastEPKN10__cxxabiv117__class_type_infoEPPv
                0x0000000000000000        0x4 /home/antodom/installations/ChibiStudio/tools/GNU Tools ARM Embedded/8.3.1 2019q3/bin/../lib/gcc/arm-none-eabi/8.3.1/../../../../arm-none-eabi/lib/thumb/v7e-m/nofp/libstdc++.a(tinfo.o)
 .ARM.extab.text._ZNKSt9type_info11__do_upcastEPKN10__cxxabiv117__class_type_infoEPPv
                0x0000000000000000        0x0 /home/antodom/installations/ChibiStudio/tools/GNU Tools ARM Embedded/8.3.1 2019q3/bin/../lib/gcc/arm-none-eabi/8.3.1/../../../../arm-none-eabi/lib/thumb/v7e-m/nofp/libstdc++.a(tinfo.o)
 .ARM.exidx.text._ZNKSt9type_info11__do_upcastEPKN10__cxxabiv117__class_type_infoEPPv
                0x0000000000000000        0x8 /home/antodom/installations/ChibiStudio/tools/GNU Tools ARM Embedded/8.3.1 2019q3/bin/../lib/gcc/arm-none-eabi/8.3.1/../../../../arm-none-eabi/lib/thumb/v7e-m/nofp/libstdc++.a(tinfo.o)
 .text._ZNSt9type_infoD0Ev
                0x0000000000000000       0x10 /home/antodom/installations/ChibiStudio/tools/GNU Tools ARM Embedded/8.3.1 2019q3/bin/../lib/gcc/arm-none-eabi/8.3.1/../../../../arm-none-eabi/lib/thumb/v7e-m/nofp/libstdc++.a(tinfo.o)
 .ARM.extab.text._ZNSt9type_infoD0Ev
                0x0000000000000000        0x0 /home/antodom/installations/ChibiStudio/tools/GNU Tools ARM Embedded/8.3.1 2019q3/bin/../lib/gcc/arm-none-eabi/8.3.1/../../../../arm-none-eabi/lib/thumb/v7e-m/nofp/libstdc++.a(tinfo.o)
 .ARM.exidx.text._ZNSt9type_infoD0Ev
                0x0000000000000000        0x8 /home/antodom/installations/ChibiStudio/tools/GNU Tools ARM Embedded/8.3.1 2019q3/bin/../lib/gcc/arm-none-eabi/8.3.1/../../../../arm-none-eabi/lib/thumb/v7e-m/nofp/libstdc++.a(tinfo.o)
 .ARM.extab.text._ZNKSt9type_infoeqERKS_
                0x0000000000000000        0x0 /home/antodom/installations/ChibiStudio/tools/GNU Tools ARM Embedded/8.3.1 2019q3/bin/../lib/gcc/arm-none-eabi/8.3.1/../../../../arm-none-eabi/lib/thumb/v7e-m/nofp/libstdc++.a(tinfo.o)
 .text._ZNKSt9type_info10__do_catchEPKS_PPvj
                0x0000000000000000        0x4 /home/antodom/installations/ChibiStudio/tools/GNU Tools ARM Embedded/8.3.1 2019q3/bin/../lib/gcc/arm-none-eabi/8.3.1/../../../../arm-none-eabi/lib/thumb/v7e-m/nofp/libstdc++.a(tinfo.o)
 .ARM.extab.text._ZNKSt9type_info10__do_catchEPKS_PPvj
                0x0000000000000000        0x0 /home/antodom/installations/ChibiStudio/tools/GNU Tools ARM Embedded/8.3.1 2019q3/bin/../lib/gcc/arm-none-eabi/8.3.1/../../../../arm-none-eabi/lib/thumb/v7e-m/nofp/libstdc++.a(tinfo.o)
 .ARM.exidx.text._ZNKSt9type_info10__do_catchEPKS_PPvj
                0x0000000000000000        0x8 /home/antodom/installations/ChibiStudio/tools/GNU Tools ARM Embedded/8.3.1 2019q3/bin/../lib/gcc/arm-none-eabi/8.3.1/../../../../arm-none-eabi/lib/thumb/v7e-m/nofp/libstdc++.a(tinfo.o)
 .rodata._ZTVSt9type_info
                0x0000000000000000       0x20 /home/antodom/installations/ChibiStudio/tools/GNU Tools ARM Embedded/8.3.1 2019q3/bin/../lib/gcc/arm-none-eabi/8.3.1/../../../../arm-none-eabi/lib/thumb/v7e-m/nofp/libstdc++.a(tinfo.o)
 .debug_frame   0x0000000000000000       0x84 /home/antodom/installations/ChibiStudio/tools/GNU Tools ARM Embedded/8.3.1 2019q3/bin/../lib/gcc/arm-none-eabi/8.3.1/../../../../arm-none-eabi/lib/thumb/v7e-m/nofp/libstdc++.a(tinfo.o)
 .ARM.attributes
                0x0000000000000000       0x2e /home/antodom/installations/ChibiStudio/tools/GNU Tools ARM Embedded/8.3.1 2019q3/bin/../lib/gcc/arm-none-eabi/8.3.1/../../../../arm-none-eabi/lib/thumb/v7e-m/nofp/libstdc++.a(tinfo.o)
 .text          0x0000000000000000        0x0 /home/antodom/installations/ChibiStudio/tools/GNU Tools ARM Embedded/8.3.1 2019q3/bin/../lib/gcc/arm-none-eabi/8.3.1/../../../../arm-none-eabi/lib/thumb/v7e-m/nofp/libstdc++.a(class_type_info.o)
 .data          0x0000000000000000        0x0 /home/antodom/installations/ChibiStudio/tools/GNU Tools ARM Embedded/8.3.1 2019q3/bin/../lib/gcc/arm-none-eabi/8.3.1/../../../../arm-none-eabi/lib/thumb/v7e-m/nofp/libstdc++.a(class_type_info.o)
 .bss           0x0000000000000000        0x0 /home/antodom/installations/ChibiStudio/tools/GNU Tools ARM Embedded/8.3.1 2019q3/bin/../lib/gcc/arm-none-eabi/8.3.1/../../../../arm-none-eabi/lib/thumb/v7e-m/nofp/libstdc++.a(class_type_info.o)
 .ARM.extab.text._ZNK10__cxxabiv117__class_type_info11__do_upcastEPKS0_PPv
                0x0000000000000000        0x0 /home/antodom/installations/ChibiStudio/tools/GNU Tools ARM Embedded/8.3.1 2019q3/bin/../lib/gcc/arm-none-eabi/8.3.1/../../../../arm-none-eabi/lib/thumb/v7e-m/nofp/libstdc++.a(class_type_info.o)
 .ARM.extab.text._ZNK10__cxxabiv117__class_type_info20__do_find_public_srcEiPKvPKS0_S2_
                0x0000000000000000        0x0 /home/antodom/installations/ChibiStudio/tools/GNU Tools ARM Embedded/8.3.1 2019q3/bin/../lib/gcc/arm-none-eabi/8.3.1/../../../../arm-none-eabi/lib/thumb/v7e-m/nofp/libstdc++.a(class_type_info.o)
 .ARM.extab.text._ZN10__cxxabiv117__class_type_infoD2Ev
                0x0000000000000000        0x0 /home/antodom/installations/ChibiStudio/tools/GNU Tools ARM Embedded/8.3.1 2019q3/bin/../lib/gcc/arm-none-eabi/8.3.1/../../../../arm-none-eabi/lib/thumb/v7e-m/nofp/libstdc++.a(class_type_info.o)
 .ARM.extab.text._ZN10__cxxabiv117__class_type_infoD0Ev
                0x0000000000000000        0x0 /home/antodom/installations/ChibiStudio/tools/GNU Tools ARM Embedded/8.3.1 2019q3/bin/../lib/gcc/arm-none-eabi/8.3.1/../../../../arm-none-eabi/lib/thumb/v7e-m/nofp/libstdc++.a(class_type_info.o)
 .ARM.extab.text._ZNK10__cxxabiv117__class_type_info12__do_dyncastEiNS0_10__sub_kindEPKS0_PKvS3_S5_RNS0_16__dyncast_resultE
                0x0000000000000000        0x0 /home/antodom/installations/ChibiStudio/tools/GNU Tools ARM Embedded/8.3.1 2019q3/bin/../lib/gcc/arm-none-eabi/8.3.1/../../../../arm-none-eabi/lib/thumb/v7e-m/nofp/libstdc++.a(class_type_info.o)
 .ARM.extab.text._ZNK10__cxxabiv117__class_type_info11__do_upcastEPKS0_PKvRNS0_15__upcast_resultE
                0x0000000000000000        0x0 /home/antodom/installations/ChibiStudio/tools/GNU Tools ARM Embedded/8.3.1 2019q3/bin/../lib/gcc/arm-none-eabi/8.3.1/../../../../arm-none-eabi/lib/thumb/v7e-m/nofp/libstdc++.a(class_type_info.o)
 .ARM.extab.text._ZNK10__cxxabiv117__class_type_info10__do_catchEPKSt9type_infoPPvj
                0x0000000000000000        0x0 /home/antodom/installations/ChibiStudio/tools/GNU Tools ARM Embedded/8.3.1 2019q3/bin/../lib/gcc/arm-none-eabi/8.3.1/../../../../arm-none-eabi/lib/thumb/v7e-m/nofp/libstdc++.a(class_type_info.o)
 .debug_frame   0x0000000000000000       0xdc /home/antodom/installations/ChibiStudio/tools/GNU Tools ARM Embedded/8.3.1 2019q3/bin/../lib/gcc/arm-none-eabi/8.3.1/../../../../arm-none-eabi/lib/thumb/v7e-m/nofp/libstdc++.a(class_type_info.o)
 .ARM.attributes
                0x0000000000000000       0x2e /home/antodom/installations/ChibiStudio/tools/GNU Tools ARM Embedded/8.3.1 2019q3/bin/../lib/gcc/arm-none-eabi/8.3.1/../../../../arm-none-eabi/lib/thumb/v7e-m/nofp/libstdc++.a(class_type_info.o)
 .text          0x0000000000000000        0x0 /home/antodom/installations/ChibiStudio/tools/GNU Tools ARM Embedded/8.3.1 2019q3/bin/../lib/gcc/arm-none-eabi/8.3.1/../../../../arm-none-eabi/lib/thumb/v7e-m/nofp/libstdc++.a(eh_type.o)
 .data          0x0000000000000000        0x0 /home/antodom/installations/ChibiStudio/tools/GNU Tools ARM Embedded/8.3.1 2019q3/bin/../lib/gcc/arm-none-eabi/8.3.1/../../../../arm-none-eabi/lib/thumb/v7e-m/nofp/libstdc++.a(eh_type.o)
 .bss           0x0000000000000000        0x0 /home/antodom/installations/ChibiStudio/tools/GNU Tools ARM Embedded/8.3.1 2019q3/bin/../lib/gcc/arm-none-eabi/8.3.1/../../../../arm-none-eabi/lib/thumb/v7e-m/nofp/libstdc++.a(eh_type.o)
 .ARM.extab.text.__cxa_current_exception_type
                0x0000000000000000        0x0 /home/antodom/installations/ChibiStudio/tools/GNU Tools ARM Embedded/8.3.1 2019q3/bin/../lib/gcc/arm-none-eabi/8.3.1/../../../../arm-none-eabi/lib/thumb/v7e-m/nofp/libstdc++.a(eh_type.o)
 .debug_frame   0x0000000000000000       0x28 /home/antodom/installations/ChibiStudio/tools/GNU Tools ARM Embedded/8.3.1 2019q3/bin/../lib/gcc/arm-none-eabi/8.3.1/../../../../arm-none-eabi/lib/thumb/v7e-m/nofp/libstdc++.a(eh_type.o)
 .ARM.attributes
                0x0000000000000000       0x2e /home/antodom/installations/ChibiStudio/tools/GNU Tools ARM Embedded/8.3.1 2019q3/bin/../lib/gcc/arm-none-eabi/8.3.1/../../../../arm-none-eabi/lib/thumb/v7e-m/nofp/libstdc++.a(eh_type.o)
 .text          0x0000000000000000        0x0 /home/antodom/installations/ChibiStudio/tools/GNU Tools ARM Embedded/8.3.1 2019q3/bin/../lib/gcc/arm-none-eabi/8.3.1/../../../../arm-none-eabi/lib/thumb/v7e-m/nofp/libstdc++.a(del_op.o)
 .data          0x0000000000000000        0x0 /home/antodom/installations/ChibiStudio/tools/GNU Tools ARM Embedded/8.3.1 2019q3/bin/../lib/gcc/arm-none-eabi/8.3.1/../../../../arm-none-eabi/lib/thumb/v7e-m/nofp/libstdc++.a(del_op.o)
 .bss           0x0000000000000000        0x0 /home/antodom/installations/ChibiStudio/tools/GNU Tools ARM Embedded/8.3.1 2019q3/bin/../lib/gcc/arm-none-eabi/8.3.1/../../../../arm-none-eabi/lib/thumb/v7e-m/nofp/libstdc++.a(del_op.o)
 .ARM.extab.text._ZdlPv
                0x0000000000000000        0x0 /home/antodom/installations/ChibiStudio/tools/GNU Tools ARM Embedded/8.3.1 2019q3/bin/../lib/gcc/arm-none-eabi/8.3.1/../../../../arm-none-eabi/lib/thumb/v7e-m/nofp/libstdc++.a(del_op.o)
 .debug_frame   0x0000000000000000       0x20 /home/antodom/installations/ChibiStudio/tools/GNU Tools ARM Embedded/8.3.1 2019q3/bin/../lib/gcc/arm-none-eabi/8.3.1/../../../../arm-none-eabi/lib/thumb/v7e-m/nofp/libstdc++.a(del_op.o)
 .ARM.attributes
                0x0000000000000000       0x2e /home/antodom/installations/ChibiStudio/tools/GNU Tools ARM Embedded/8.3.1 2019q3/bin/../lib/gcc/arm-none-eabi/8.3.1/../../../../arm-none-eabi/lib/thumb/v7e-m/nofp/libstdc++.a(del_op.o)
 .data          0x0000000000000000        0x0 /home/antodom/installations/ChibiStudio/tools/GNU Tools ARM Embedded/8.3.1 2019q3/bin/../lib/gcc/arm-none-eabi/8.3.1/thumb/v7e-m/nofp/libgcc.a(unwind-arm.o)
 .bss           0x0000000000000000        0x0 /home/antodom/installations/ChibiStudio/tools/GNU Tools ARM Embedded/8.3.1 2019q3/bin/../lib/gcc/arm-none-eabi/8.3.1/thumb/v7e-m/nofp/libgcc.a(unwind-arm.o)
 .ARM.extab     0x0000000000000000        0x0 /home/antodom/installations/ChibiStudio/tools/GNU Tools ARM Embedded/8.3.1 2019q3/bin/../lib/gcc/arm-none-eabi/8.3.1/thumb/v7e-m/nofp/libgcc.a(unwind-arm.o)
 .debug_frame   0x0000000000000000      0x2f0 /home/antodom/installations/ChibiStudio/tools/GNU Tools ARM Embedded/8.3.1 2019q3/bin/../lib/gcc/arm-none-eabi/8.3.1/thumb/v7e-m/nofp/libgcc.a(unwind-arm.o)
 .ARM.attributes
                0x0000000000000000       0x2e /home/antodom/installations/ChibiStudio/tools/GNU Tools ARM Embedded/8.3.1 2019q3/bin/../lib/gcc/arm-none-eabi/8.3.1/thumb/v7e-m/nofp/libgcc.a(unwind-arm.o)
 .data          0x0000000000000000        0x0 /home/antodom/installations/ChibiStudio/tools/GNU Tools ARM Embedded/8.3.1 2019q3/bin/../lib/gcc/arm-none-eabi/8.3.1/thumb/v7e-m/nofp/libgcc.a(libunwind.o)
 .bss           0x0000000000000000        0x0 /home/antodom/installations/ChibiStudio/tools/GNU Tools ARM Embedded/8.3.1 2019q3/bin/../lib/gcc/arm-none-eabi/8.3.1/thumb/v7e-m/nofp/libgcc.a(libunwind.o)
 .ARM.attributes
                0x0000000000000000       0x1e /home/antodom/installations/ChibiStudio/tools/GNU Tools ARM Embedded/8.3.1 2019q3/bin/../lib/gcc/arm-none-eabi/8.3.1/thumb/v7e-m/nofp/libgcc.a(libunwind.o)
 .data          0x0000000000000000        0x0 /home/antodom/installations/ChibiStudio/tools/GNU Tools ARM Embedded/8.3.1 2019q3/bin/../lib/gcc/arm-none-eabi/8.3.1/thumb/v7e-m/nofp/libgcc.a(pr-support.o)
 .bss           0x0000000000000000        0x0 /home/antodom/installations/ChibiStudio/tools/GNU Tools ARM Embedded/8.3.1 2019q3/bin/../lib/gcc/arm-none-eabi/8.3.1/thumb/v7e-m/nofp/libgcc.a(pr-support.o)
 .ARM.extab.text.unlikely
                0x0000000000000000        0x0 /home/antodom/installations/ChibiStudio/tools/GNU Tools ARM Embedded/8.3.1 2019q3/bin/../lib/gcc/arm-none-eabi/8.3.1/thumb/v7e-m/nofp/libgcc.a(pr-support.o)
 .debug_frame   0x0000000000000000      0x104 /home/antodom/installations/ChibiStudio/tools/GNU Tools ARM Embedded/8.3.1 2019q3/bin/../lib/gcc/arm-none-eabi/8.3.1/thumb/v7e-m/nofp/libgcc.a(pr-support.o)
 .ARM.attributes
                0x0000000000000000       0x2e /home/antodom/installations/ChibiStudio/tools/GNU Tools ARM Embedded/8.3.1 2019q3/bin/../lib/gcc/arm-none-eabi/8.3.1/thumb/v7e-m/nofp/libgcc.a(pr-support.o)
 .text          0x0000000000000000       0xa0 /home/antodom/installations/ChibiStudio/tools/GNU Tools ARM Embedded/8.3.1 2019q3/bin/../lib/gcc/arm-none-eabi/8.3.1/thumb/v7e-m/nofp/libgcc.a(_aeabi_ldivmod.o)
 .data          0x0000000000000000        0x0 /home/antodom/installations/ChibiStudio/tools/GNU Tools ARM Embedded/8.3.1 2019q3/bin/../lib/gcc/arm-none-eabi/8.3.1/thumb/v7e-m/nofp/libgcc.a(_aeabi_ldivmod.o)
 .bss           0x0000000000000000        0x0 /home/antodom/installations/ChibiStudio/tools/GNU Tools ARM Embedded/8.3.1 2019q3/bin/../lib/gcc/arm-none-eabi/8.3.1/thumb/v7e-m/nofp/libgcc.a(_aeabi_ldivmod.o)
 .debug_frame   0x0000000000000000       0x44 /home/antodom/installations/ChibiStudio/tools/GNU Tools ARM Embedded/8.3.1 2019q3/bin/../lib/gcc/arm-none-eabi/8.3.1/thumb/v7e-m/nofp/libgcc.a(_aeabi_ldivmod.o)
 .ARM.attributes
                0x0000000000000000       0x1e /home/antodom/installations/ChibiStudio/tools/GNU Tools ARM Embedded/8.3.1 2019q3/bin/../lib/gcc/arm-none-eabi/8.3.1/thumb/v7e-m/nofp/libgcc.a(_aeabi_ldivmod.o)
 .text          0x0000000000000000        0x0 /home/antodom/installations/ChibiStudio/tools/GNU Tools ARM Embedded/8.3.1 2019q3/bin/../lib/gcc/arm-none-eabi/8.3.1/../../../../arm-none-eabi/lib/thumb/v7e-m/nofp/libg.a(lib_a-abort.o)
 .data          0x0000000000000000        0x0 /home/antodom/installations/ChibiStudio/tools/GNU Tools ARM Embedded/8.3.1 2019q3/bin/../lib/gcc/arm-none-eabi/8.3.1/../../../../arm-none-eabi/lib/thumb/v7e-m/nofp/libg.a(lib_a-abort.o)
 .bss           0x0000000000000000        0x0 /home/antodom/installations/ChibiStudio/tools/GNU Tools ARM Embedded/8.3.1 2019q3/bin/../lib/gcc/arm-none-eabi/8.3.1/../../../../arm-none-eabi/lib/thumb/v7e-m/nofp/libg.a(lib_a-abort.o)
 .debug_frame   0x0000000000000000       0x28 /home/antodom/installations/ChibiStudio/tools/GNU Tools ARM Embedded/8.3.1 2019q3/bin/../lib/gcc/arm-none-eabi/8.3.1/../../../../arm-none-eabi/lib/thumb/v7e-m/nofp/libg.a(lib_a-abort.o)
 .ARM.attributes
                0x0000000000000000       0x2e /home/antodom/installations/ChibiStudio/tools/GNU Tools ARM Embedded/8.3.1 2019q3/bin/../lib/gcc/arm-none-eabi/8.3.1/../../../../arm-none-eabi/lib/thumb/v7e-m/nofp/libg.a(lib_a-abort.o)
 .text          0x0000000000000000        0x0 /home/antodom/installations/ChibiStudio/tools/GNU Tools ARM Embedded/8.3.1 2019q3/bin/../lib/gcc/arm-none-eabi/8.3.1/../../../../arm-none-eabi/lib/thumb/v7e-m/nofp/libg.a(lib_a-cxa_atexit.o)
 .data          0x0000000000000000        0x0 /home/antodom/installations/ChibiStudio/tools/GNU Tools ARM Embedded/8.3.1 2019q3/bin/../lib/gcc/arm-none-eabi/8.3.1/../../../../arm-none-eabi/lib/thumb/v7e-m/nofp/libg.a(lib_a-cxa_atexit.o)
 .bss           0x0000000000000000        0x0 /home/antodom/installations/ChibiStudio/tools/GNU Tools ARM Embedded/8.3.1 2019q3/bin/../lib/gcc/arm-none-eabi/8.3.1/../../../../arm-none-eabi/lib/thumb/v7e-m/nofp/libg.a(lib_a-cxa_atexit.o)
 .text          0x0000000000000000        0x0 /home/antodom/installations/ChibiStudio/tools/GNU Tools ARM Embedded/8.3.1 2019q3/bin/../lib/gcc/arm-none-eabi/8.3.1/../../../../arm-none-eabi/lib/thumb/v7e-m/nofp/libg.a(lib_a-fputc.o)
 .data          0x0000000000000000        0x0 /home/antodom/installations/ChibiStudio/tools/GNU Tools ARM Embedded/8.3.1 2019q3/bin/../lib/gcc/arm-none-eabi/8.3.1/../../../../arm-none-eabi/lib/thumb/v7e-m/nofp/libg.a(lib_a-fputc.o)
 .bss           0x0000000000000000        0x0 /home/antodom/installations/ChibiStudio/tools/GNU Tools ARM Embedded/8.3.1 2019q3/bin/../lib/gcc/arm-none-eabi/8.3.1/../../../../arm-none-eabi/lib/thumb/v7e-m/nofp/libg.a(lib_a-fputc.o)
 .text._fputc_r
                0x0000000000000000       0x58 /home/antodom/installations/ChibiStudio/tools/GNU Tools ARM Embedded/8.3.1 2019q3/bin/../lib/gcc/arm-none-eabi/8.3.1/../../../../arm-none-eabi/lib/thumb/v7e-m/nofp/libg.a(lib_a-fputc.o)
 .debug_frame   0x0000000000000000       0x54 /home/antodom/installations/ChibiStudio/tools/GNU Tools ARM Embedded/8.3.1 2019q3/bin/../lib/gcc/arm-none-eabi/8.3.1/../../../../arm-none-eabi/lib/thumb/v7e-m/nofp/libg.a(lib_a-fputc.o)
 .ARM.attributes
                0x0000000000000000       0x2e /home/antodom/installations/ChibiStudio/tools/GNU Tools ARM Embedded/8.3.1 2019q3/bin/../lib/gcc/arm-none-eabi/8.3.1/../../../../arm-none-eabi/lib/thumb/v7e-m/nofp/libg.a(lib_a-fputc.o)
 .text          0x0000000000000000        0x0 /home/antodom/installations/ChibiStudio/tools/GNU Tools ARM Embedded/8.3.1 2019q3/bin/../lib/gcc/arm-none-eabi/8.3.1/../../../../arm-none-eabi/lib/thumb/v7e-m/nofp/libg.a(lib_a-fputs.o)
 .data          0x0000000000000000        0x0 /home/antodom/installations/ChibiStudio/tools/GNU Tools ARM Embedded/8.3.1 2019q3/bin/../lib/gcc/arm-none-eabi/8.3.1/../../../../arm-none-eabi/lib/thumb/v7e-m/nofp/libg.a(lib_a-fputs.o)
 .bss           0x0000000000000000        0x0 /home/antodom/installations/ChibiStudio/tools/GNU Tools ARM Embedded/8.3.1 2019q3/bin/../lib/gcc/arm-none-eabi/8.3.1/../../../../arm-none-eabi/lib/thumb/v7e-m/nofp/libg.a(lib_a-fputs.o)
 .debug_frame   0x0000000000000000       0x48 /home/antodom/installations/ChibiStudio/tools/GNU Tools ARM Embedded/8.3.1 2019q3/bin/../lib/gcc/arm-none-eabi/8.3.1/../../../../arm-none-eabi/lib/thumb/v7e-m/nofp/libg.a(lib_a-fputs.o)
 .ARM.attributes
                0x0000000000000000       0x2e /home/antodom/installations/ChibiStudio/tools/GNU Tools ARM Embedded/8.3.1 2019q3/bin/../lib/gcc/arm-none-eabi/8.3.1/../../../../arm-none-eabi/lib/thumb/v7e-m/nofp/libg.a(lib_a-fputs.o)
 .text          0x0000000000000000        0x0 /home/antodom/installations/ChibiStudio/tools/GNU Tools ARM Embedded/8.3.1 2019q3/bin/../lib/gcc/arm-none-eabi/8.3.1/../../../../arm-none-eabi/lib/thumb/v7e-m/nofp/libg.a(lib_a-fvwrite.o)
 .data          0x0000000000000000        0x0 /home/antodom/installations/ChibiStudio/tools/GNU Tools ARM Embedded/8.3.1 2019q3/bin/../lib/gcc/arm-none-eabi/8.3.1/../../../../arm-none-eabi/lib/thumb/v7e-m/nofp/libg.a(lib_a-fvwrite.o)
 .bss           0x0000000000000000        0x0 /home/antodom/installations/ChibiStudio/tools/GNU Tools ARM Embedded/8.3.1 2019q3/bin/../lib/gcc/arm-none-eabi/8.3.1/../../../../arm-none-eabi/lib/thumb/v7e-m/nofp/libg.a(lib_a-fvwrite.o)
 .debug_frame   0x0000000000000000       0x64 /home/antodom/installations/ChibiStudio/tools/GNU Tools ARM Embedded/8.3.1 2019q3/bin/../lib/gcc/arm-none-eabi/8.3.1/../../../../arm-none-eabi/lib/thumb/v7e-m/nofp/libg.a(lib_a-fvwrite.o)
 .ARM.attributes
                0x0000000000000000       0x2e /home/antodom/installations/ChibiStudio/tools/GNU Tools ARM Embedded/8.3.1 2019q3/bin/../lib/gcc/arm-none-eabi/8.3.1/../../../../arm-none-eabi/lib/thumb/v7e-m/nofp/libg.a(lib_a-fvwrite.o)
 .text          0x0000000000000000        0x0 /home/antodom/installations/ChibiStudio/tools/GNU Tools ARM Embedded/8.3.1 2019q3/bin/../lib/gcc/arm-none-eabi/8.3.1/../../../../arm-none-eabi/lib/thumb/v7e-m/nofp/libg.a(lib_a-fwrite.o)
 .data          0x0000000000000000        0x0 /home/antodom/installations/ChibiStudio/tools/GNU Tools ARM Embedded/8.3.1 2019q3/bin/../lib/gcc/arm-none-eabi/8.3.1/../../../../arm-none-eabi/lib/thumb/v7e-m/nofp/libg.a(lib_a-fwrite.o)
 .bss           0x0000000000000000        0x0 /home/antodom/installations/ChibiStudio/tools/GNU Tools ARM Embedded/8.3.1 2019q3/bin/../lib/gcc/arm-none-eabi/8.3.1/../../../../arm-none-eabi/lib/thumb/v7e-m/nofp/libg.a(lib_a-fwrite.o)
 .debug_frame   0x0000000000000000       0x60 /home/antodom/installations/ChibiStudio/tools/GNU Tools ARM Embedded/8.3.1 2019q3/bin/../lib/gcc/arm-none-eabi/8.3.1/../../../../arm-none-eabi/lib/thumb/v7e-m/nofp/libg.a(lib_a-fwrite.o)
 .ARM.attributes
                0x0000000000000000       0x2e /home/antodom/installations/ChibiStudio/tools/GNU Tools ARM Embedded/8.3.1 2019q3/bin/../lib/gcc/arm-none-eabi/8.3.1/../../../../arm-none-eabi/lib/thumb/v7e-m/nofp/libg.a(lib_a-fwrite.o)
 .text          0x0000000000000000        0x0 /home/antodom/installations/ChibiStudio/tools/GNU Tools ARM Embedded/8.3.1 2019q3/bin/../lib/gcc/arm-none-eabi/8.3.1/../../../../arm-none-eabi/lib/thumb/v7e-m/nofp/libg.a(lib_a-impure.o)
 .data          0x0000000000000000        0x0 /home/antodom/installations/ChibiStudio/tools/GNU Tools ARM Embedded/8.3.1 2019q3/bin/../lib/gcc/arm-none-eabi/8.3.1/../../../../arm-none-eabi/lib/thumb/v7e-m/nofp/libg.a(lib_a-impure.o)
 .bss           0x0000000000000000        0x0 /home/antodom/installations/ChibiStudio/tools/GNU Tools ARM Embedded/8.3.1 2019q3/bin/../lib/gcc/arm-none-eabi/8.3.1/../../../../arm-none-eabi/lib/thumb/v7e-m/nofp/libg.a(lib_a-impure.o)
 .text          0x0000000000000000        0x0 /home/antodom/installations/ChibiStudio/tools/GNU Tools ARM Embedded/8.3.1 2019q3/bin/../lib/gcc/arm-none-eabi/8.3.1/../../../../arm-none-eabi/lib/thumb/v7e-m/nofp/libg.a(lib_a-lock.o)
 .data          0x0000000000000000        0x0 /home/antodom/installations/ChibiStudio/tools/GNU Tools ARM Embedded/8.3.1 2019q3/bin/../lib/gcc/arm-none-eabi/8.3.1/../../../../arm-none-eabi/lib/thumb/v7e-m/nofp/libg.a(lib_a-lock.o)
 .bss           0x0000000000000000        0x0 /home/antodom/installations/ChibiStudio/tools/GNU Tools ARM Embedded/8.3.1 2019q3/bin/../lib/gcc/arm-none-eabi/8.3.1/../../../../arm-none-eabi/lib/thumb/v7e-m/nofp/libg.a(lib_a-lock.o)
 .text.__retarget_lock_init
                0x0000000000000000        0x4 /home/antodom/installations/ChibiStudio/tools/GNU Tools ARM Embedded/8.3.1 2019q3/bin/../lib/gcc/arm-none-eabi/8.3.1/../../../../arm-none-eabi/lib/thumb/v7e-m/nofp/libg.a(lib_a-lock.o)
 .text.__retarget_lock_close
                0x0000000000000000        0x4 /home/antodom/installations/ChibiStudio/tools/GNU Tools ARM Embedded/8.3.1 2019q3/bin/../lib/gcc/arm-none-eabi/8.3.1/../../../../arm-none-eabi/lib/thumb/v7e-m/nofp/libg.a(lib_a-lock.o)
 .text.__retarget_lock_acquire
                0x0000000000000000        0x4 /home/antodom/installations/ChibiStudio/tools/GNU Tools ARM Embedded/8.3.1 2019q3/bin/../lib/gcc/arm-none-eabi/8.3.1/../../../../arm-none-eabi/lib/thumb/v7e-m/nofp/libg.a(lib_a-lock.o)
 .text.__retarget_lock_try_acquire
                0x0000000000000000        0x4 /home/antodom/installations/ChibiStudio/tools/GNU Tools ARM Embedded/8.3.1 2019q3/bin/../lib/gcc/arm-none-eabi/8.3.1/../../../../arm-none-eabi/lib/thumb/v7e-m/nofp/libg.a(lib_a-lock.o)
 .text.__retarget_lock_try_acquire_recursive
                0x0000000000000000        0x4 /home/antodom/installations/ChibiStudio/tools/GNU Tools ARM Embedded/8.3.1 2019q3/bin/../lib/gcc/arm-none-eabi/8.3.1/../../../../arm-none-eabi/lib/thumb/v7e-m/nofp/libg.a(lib_a-lock.o)
 .text.__retarget_lock_release
                0x0000000000000000        0x4 /home/antodom/installations/ChibiStudio/tools/GNU Tools ARM Embedded/8.3.1 2019q3/bin/../lib/gcc/arm-none-eabi/8.3.1/../../../../arm-none-eabi/lib/thumb/v7e-m/nofp/libg.a(lib_a-lock.o)
 .text          0x0000000000000000        0x0 /home/antodom/installations/ChibiStudio/tools/GNU Tools ARM Embedded/8.3.1 2019q3/bin/../lib/gcc/arm-none-eabi/8.3.1/../../../../arm-none-eabi/lib/thumb/v7e-m/nofp/libg.a(lib_a-malloc.o)
 .data          0x0000000000000000        0x0 /home/antodom/installations/ChibiStudio/tools/GNU Tools ARM Embedded/8.3.1 2019q3/bin/../lib/gcc/arm-none-eabi/8.3.1/../../../../arm-none-eabi/lib/thumb/v7e-m/nofp/libg.a(lib_a-malloc.o)
 .bss           0x0000000000000000        0x0 /home/antodom/installations/ChibiStudio/tools/GNU Tools ARM Embedded/8.3.1 2019q3/bin/../lib/gcc/arm-none-eabi/8.3.1/../../../../arm-none-eabi/lib/thumb/v7e-m/nofp/libg.a(lib_a-malloc.o)
 .text          0x0000000000000000        0x0 /home/antodom/installations/ChibiStudio/tools/GNU Tools ARM Embedded/8.3.1 2019q3/bin/../lib/gcc/arm-none-eabi/8.3.1/../../../../arm-none-eabi/lib/thumb/v7e-m/nofp/libg.a(lib_a-mallocr.o)
 .data          0x0000000000000000        0x0 /home/antodom/installations/ChibiStudio/tools/GNU Tools ARM Embedded/8.3.1 2019q3/bin/../lib/gcc/arm-none-eabi/8.3.1/../../../../arm-none-eabi/lib/thumb/v7e-m/nofp/libg.a(lib_a-mallocr.o)
 .bss           0x0000000000000000        0x0 /home/antodom/installations/ChibiStudio/tools/GNU Tools ARM Embedded/8.3.1 2019q3/bin/../lib/gcc/arm-none-eabi/8.3.1/../../../../arm-none-eabi/lib/thumb/v7e-m/nofp/libg.a(lib_a-mallocr.o)
 .data          0x0000000000000000        0x0 /home/antodom/installations/ChibiStudio/tools/GNU Tools ARM Embedded/8.3.1 2019q3/bin/../lib/gcc/arm-none-eabi/8.3.1/../../../../arm-none-eabi/lib/thumb/v7e-m/nofp/libg.a(lib_a-memchr.o)
 .bss           0x0000000000000000        0x0 /home/antodom/installations/ChibiStudio/tools/GNU Tools ARM Embedded/8.3.1 2019q3/bin/../lib/gcc/arm-none-eabi/8.3.1/../../../../arm-none-eabi/lib/thumb/v7e-m/nofp/libg.a(lib_a-memchr.o)
 .ARM.attributes
                0x0000000000000000       0x1c /home/antodom/installations/ChibiStudio/tools/GNU Tools ARM Embedded/8.3.1 2019q3/bin/../lib/gcc/arm-none-eabi/8.3.1/../../../../arm-none-eabi/lib/thumb/v7e-m/nofp/libg.a(lib_a-memchr.o)
 .text          0x0000000000000000        0x0 /home/antodom/installations/ChibiStudio/tools/GNU Tools ARM Embedded/8.3.1 2019q3/bin/../lib/gcc/arm-none-eabi/8.3.1/../../../../arm-none-eabi/lib/thumb/v7e-m/nofp/libg.a(lib_a-memcmp.o)
 .data          0x0000000000000000        0x0 /home/antodom/installations/ChibiStudio/tools/GNU Tools ARM Embedded/8.3.1 2019q3/bin/../lib/gcc/arm-none-eabi/8.3.1/../../../../arm-none-eabi/lib/thumb/v7e-m/nofp/libg.a(lib_a-memcmp.o)
 .bss           0x0000000000000000        0x0 /home/antodom/installations/ChibiStudio/tools/GNU Tools ARM Embedded/8.3.1 2019q3/bin/../lib/gcc/arm-none-eabi/8.3.1/../../../../arm-none-eabi/lib/thumb/v7e-m/nofp/libg.a(lib_a-memcmp.o)
 .debug_frame   0x0000000000000000       0x38 /home/antodom/installations/ChibiStudio/tools/GNU Tools ARM Embedded/8.3.1 2019q3/bin/../lib/gcc/arm-none-eabi/8.3.1/../../../../arm-none-eabi/lib/thumb/v7e-m/nofp/libg.a(lib_a-memcmp.o)
 .ARM.attributes
                0x0000000000000000       0x2e /home/antodom/installations/ChibiStudio/tools/GNU Tools ARM Embedded/8.3.1 2019q3/bin/../lib/gcc/arm-none-eabi/8.3.1/../../../../arm-none-eabi/lib/thumb/v7e-m/nofp/libg.a(lib_a-memcmp.o)
 .data          0x0000000000000000        0x0 /home/antodom/installations/ChibiStudio/tools/GNU Tools ARM Embedded/8.3.1 2019q3/bin/../lib/gcc/arm-none-eabi/8.3.1/../../../../arm-none-eabi/lib/thumb/v7e-m/nofp/libg.a(lib_a-memcpy.o)
 .bss           0x0000000000000000        0x0 /home/antodom/installations/ChibiStudio/tools/GNU Tools ARM Embedded/8.3.1 2019q3/bin/../lib/gcc/arm-none-eabi/8.3.1/../../../../arm-none-eabi/lib/thumb/v7e-m/nofp/libg.a(lib_a-memcpy.o)
 .text          0x0000000000000000        0x0 /home/antodom/installations/ChibiStudio/tools/GNU Tools ARM Embedded/8.3.1 2019q3/bin/../lib/gcc/arm-none-eabi/8.3.1/../../../../arm-none-eabi/lib/thumb/v7e-m/nofp/libg.a(lib_a-memmove.o)
 .data          0x0000000000000000        0x0 /home/antodom/installations/ChibiStudio/tools/GNU Tools ARM Embedded/8.3.1 2019q3/bin/../lib/gcc/arm-none-eabi/8.3.1/../../../../arm-none-eabi/lib/thumb/v7e-m/nofp/libg.a(lib_a-memmove.o)
 .bss           0x0000000000000000        0x0 /home/antodom/installations/ChibiStudio/tools/GNU Tools ARM Embedded/8.3.1 2019q3/bin/../lib/gcc/arm-none-eabi/8.3.1/../../../../arm-none-eabi/lib/thumb/v7e-m/nofp/libg.a(lib_a-memmove.o)
 .debug_frame   0x0000000000000000       0x40 /home/antodom/installations/ChibiStudio/tools/GNU Tools ARM Embedded/8.3.1 2019q3/bin/../lib/gcc/arm-none-eabi/8.3.1/../../../../arm-none-eabi/lib/thumb/v7e-m/nofp/libg.a(lib_a-memmove.o)
 .ARM.attributes
                0x0000000000000000       0x2e /home/antodom/installations/ChibiStudio/tools/GNU Tools ARM Embedded/8.3.1 2019q3/bin/../lib/gcc/arm-none-eabi/8.3.1/../../../../arm-none-eabi/lib/thumb/v7e-m/nofp/libg.a(lib_a-memmove.o)
 .text          0x0000000000000000        0x0 /home/antodom/installations/ChibiStudio/tools/GNU Tools ARM Embedded/8.3.1 2019q3/bin/../lib/gcc/arm-none-eabi/8.3.1/../../../../arm-none-eabi/lib/thumb/v7e-m/nofp/libg.a(lib_a-memset.o)
 .data          0x0000000000000000        0x0 /home/antodom/installations/ChibiStudio/tools/GNU Tools ARM Embedded/8.3.1 2019q3/bin/../lib/gcc/arm-none-eabi/8.3.1/../../../../arm-none-eabi/lib/thumb/v7e-m/nofp/libg.a(lib_a-memset.o)
 .bss           0x0000000000000000        0x0 /home/antodom/installations/ChibiStudio/tools/GNU Tools ARM Embedded/8.3.1 2019q3/bin/../lib/gcc/arm-none-eabi/8.3.1/../../../../arm-none-eabi/lib/thumb/v7e-m/nofp/libg.a(lib_a-memset.o)
 .debug_frame   0x0000000000000000       0x38 /home/antodom/installations/ChibiStudio/tools/GNU Tools ARM Embedded/8.3.1 2019q3/bin/../lib/gcc/arm-none-eabi/8.3.1/../../../../arm-none-eabi/lib/thumb/v7e-m/nofp/libg.a(lib_a-memset.o)
 .ARM.attributes
                0x0000000000000000       0x2e /home/antodom/installations/ChibiStudio/tools/GNU Tools ARM Embedded/8.3.1 2019q3/bin/../lib/gcc/arm-none-eabi/8.3.1/../../../../arm-none-eabi/lib/thumb/v7e-m/nofp/libg.a(lib_a-memset.o)
 .text          0x0000000000000000        0x0 /home/antodom/installations/ChibiStudio/tools/GNU Tools ARM Embedded/8.3.1 2019q3/bin/../lib/gcc/arm-none-eabi/8.3.1/../../../../arm-none-eabi/lib/thumb/v7e-m/nofp/libg.a(lib_a-mlock.o)
 .data          0x0000000000000000        0x0 /home/antodom/installations/ChibiStudio/tools/GNU Tools ARM Embedded/8.3.1 2019q3/bin/../lib/gcc/arm-none-eabi/8.3.1/../../../../arm-none-eabi/lib/thumb/v7e-m/nofp/libg.a(lib_a-mlock.o)
 .bss           0x0000000000000000        0x0 /home/antodom/installations/ChibiStudio/tools/GNU Tools ARM Embedded/8.3.1 2019q3/bin/../lib/gcc/arm-none-eabi/8.3.1/../../../../arm-none-eabi/lib/thumb/v7e-m/nofp/libg.a(lib_a-mlock.o)
 .text          0x0000000000000000        0x0 /home/antodom/installations/ChibiStudio/tools/GNU Tools ARM Embedded/8.3.1 2019q3/bin/../lib/gcc/arm-none-eabi/8.3.1/../../../../arm-none-eabi/lib/thumb/v7e-m/nofp/libg.a(lib_a-putc.o)
 .data          0x0000000000000000        0x0 /home/antodom/installations/ChibiStudio/tools/GNU Tools ARM Embedded/8.3.1 2019q3/bin/../lib/gcc/arm-none-eabi/8.3.1/../../../../arm-none-eabi/lib/thumb/v7e-m/nofp/libg.a(lib_a-putc.o)
 .bss           0x0000000000000000        0x0 /home/antodom/installations/ChibiStudio/tools/GNU Tools ARM Embedded/8.3.1 2019q3/bin/../lib/gcc/arm-none-eabi/8.3.1/../../../../arm-none-eabi/lib/thumb/v7e-m/nofp/libg.a(lib_a-putc.o)
 .text.putc     0x0000000000000000       0x7c /home/antodom/installations/ChibiStudio/tools/GNU Tools ARM Embedded/8.3.1 2019q3/bin/../lib/gcc/arm-none-eabi/8.3.1/../../../../arm-none-eabi/lib/thumb/v7e-m/nofp/libg.a(lib_a-putc.o)
 .debug_frame   0x0000000000000000       0x48 /home/antodom/installations/ChibiStudio/tools/GNU Tools ARM Embedded/8.3.1 2019q3/bin/../lib/gcc/arm-none-eabi/8.3.1/../../../../arm-none-eabi/lib/thumb/v7e-m/nofp/libg.a(lib_a-putc.o)
 .ARM.attributes
                0x0000000000000000       0x2e /home/antodom/installations/ChibiStudio/tools/GNU Tools ARM Embedded/8.3.1 2019q3/bin/../lib/gcc/arm-none-eabi/8.3.1/../../../../arm-none-eabi/lib/thumb/v7e-m/nofp/libg.a(lib_a-putc.o)
 .text          0x0000000000000000        0x0 /home/antodom/installations/ChibiStudio/tools/GNU Tools ARM Embedded/8.3.1 2019q3/bin/../lib/gcc/arm-none-eabi/8.3.1/../../../../arm-none-eabi/lib/thumb/v7e-m/nofp/libg.a(lib_a-realloc.o)
 .data          0x0000000000000000        0x0 /home/antodom/installations/ChibiStudio/tools/GNU Tools ARM Embedded/8.3.1 2019q3/bin/../lib/gcc/arm-none-eabi/8.3.1/../../../../arm-none-eabi/lib/thumb/v7e-m/nofp/libg.a(lib_a-realloc.o)
 .bss           0x0000000000000000        0x0 /home/antodom/installations/ChibiStudio/tools/GNU Tools ARM Embedded/8.3.1 2019q3/bin/../lib/gcc/arm-none-eabi/8.3.1/../../../../arm-none-eabi/lib/thumb/v7e-m/nofp/libg.a(lib_a-realloc.o)
 .debug_frame   0x0000000000000000       0x20 /home/antodom/installations/ChibiStudio/tools/GNU Tools ARM Embedded/8.3.1 2019q3/bin/../lib/gcc/arm-none-eabi/8.3.1/../../../../arm-none-eabi/lib/thumb/v7e-m/nofp/libg.a(lib_a-realloc.o)
 .ARM.attributes
                0x0000000000000000       0x2e /home/antodom/installations/ChibiStudio/tools/GNU Tools ARM Embedded/8.3.1 2019q3/bin/../lib/gcc/arm-none-eabi/8.3.1/../../../../arm-none-eabi/lib/thumb/v7e-m/nofp/libg.a(lib_a-realloc.o)
 .text          0x0000000000000000        0x0 /home/antodom/installations/ChibiStudio/tools/GNU Tools ARM Embedded/8.3.1 2019q3/bin/../lib/gcc/arm-none-eabi/8.3.1/../../../../arm-none-eabi/lib/thumb/v7e-m/nofp/libg.a(lib_a-reallocr.o)
 .data          0x0000000000000000        0x0 /home/antodom/installations/ChibiStudio/tools/GNU Tools ARM Embedded/8.3.1 2019q3/bin/../lib/gcc/arm-none-eabi/8.3.1/../../../../arm-none-eabi/lib/thumb/v7e-m/nofp/libg.a(lib_a-reallocr.o)
 .bss           0x0000000000000000        0x0 /home/antodom/installations/ChibiStudio/tools/GNU Tools ARM Embedded/8.3.1 2019q3/bin/../lib/gcc/arm-none-eabi/8.3.1/../../../../arm-none-eabi/lib/thumb/v7e-m/nofp/libg.a(lib_a-reallocr.o)
 .debug_frame   0x0000000000000000       0x48 /home/antodom/installations/ChibiStudio/tools/GNU Tools ARM Embedded/8.3.1 2019q3/bin/../lib/gcc/arm-none-eabi/8.3.1/../../../../arm-none-eabi/lib/thumb/v7e-m/nofp/libg.a(lib_a-reallocr.o)
 .ARM.attributes
                0x0000000000000000       0x2e /home/antodom/installations/ChibiStudio/tools/GNU Tools ARM Embedded/8.3.1 2019q3/bin/../lib/gcc/arm-none-eabi/8.3.1/../../../../arm-none-eabi/lib/thumb/v7e-m/nofp/libg.a(lib_a-reallocr.o)
 .text          0x0000000000000000        0x0 /home/antodom/installations/ChibiStudio/tools/GNU Tools ARM Embedded/8.3.1 2019q3/bin/../lib/gcc/arm-none-eabi/8.3.1/../../../../arm-none-eabi/lib/thumb/v7e-m/nofp/libg.a(lib_a-reent.o)
 .data          0x0000000000000000        0x0 /home/antodom/installations/ChibiStudio/tools/GNU Tools ARM Embedded/8.3.1 2019q3/bin/../lib/gcc/arm-none-eabi/8.3.1/../../../../arm-none-eabi/lib/thumb/v7e-m/nofp/libg.a(lib_a-reent.o)
 .bss           0x0000000000000000        0x0 /home/antodom/installations/ChibiStudio/tools/GNU Tools ARM Embedded/8.3.1 2019q3/bin/../lib/gcc/arm-none-eabi/8.3.1/../../../../arm-none-eabi/lib/thumb/v7e-m/nofp/libg.a(lib_a-reent.o)
 .text.cleanup_glue
                0x0000000000000000       0x1c /home/antodom/installations/ChibiStudio/tools/GNU Tools ARM Embedded/8.3.1 2019q3/bin/../lib/gcc/arm-none-eabi/8.3.1/../../../../arm-none-eabi/lib/thumb/v7e-m/nofp/libg.a(lib_a-reent.o)
 .text._reclaim_reent
                0x0000000000000000       0x88 /home/antodom/installations/ChibiStudio/tools/GNU Tools ARM Embedded/8.3.1 2019q3/bin/../lib/gcc/arm-none-eabi/8.3.1/../../../../arm-none-eabi/lib/thumb/v7e-m/nofp/libg.a(lib_a-reent.o)
 .debug_frame   0x0000000000000000       0x60 /home/antodom/installations/ChibiStudio/tools/GNU Tools ARM Embedded/8.3.1 2019q3/bin/../lib/gcc/arm-none-eabi/8.3.1/../../../../arm-none-eabi/lib/thumb/v7e-m/nofp/libg.a(lib_a-reent.o)
 .ARM.attributes
                0x0000000000000000       0x2e /home/antodom/installations/ChibiStudio/tools/GNU Tools ARM Embedded/8.3.1 2019q3/bin/../lib/gcc/arm-none-eabi/8.3.1/../../../../arm-none-eabi/lib/thumb/v7e-m/nofp/libg.a(lib_a-reent.o)
 .text          0x0000000000000000        0x0 /home/antodom/installations/ChibiStudio/tools/GNU Tools ARM Embedded/8.3.1 2019q3/bin/../lib/gcc/arm-none-eabi/8.3.1/../../../../arm-none-eabi/lib/thumb/v7e-m/nofp/libg.a(lib_a-signal.o)
 .data          0x0000000000000000        0x0 /home/antodom/installations/ChibiStudio/tools/GNU Tools ARM Embedded/8.3.1 2019q3/bin/../lib/gcc/arm-none-eabi/8.3.1/../../../../arm-none-eabi/lib/thumb/v7e-m/nofp/libg.a(lib_a-signal.o)
 .bss           0x0000000000000000        0x0 /home/antodom/installations/ChibiStudio/tools/GNU Tools ARM Embedded/8.3.1 2019q3/bin/../lib/gcc/arm-none-eabi/8.3.1/../../../../arm-none-eabi/lib/thumb/v7e-m/nofp/libg.a(lib_a-signal.o)
 .text._init_signal_r.part.0
                0x0000000000000000       0x28 /home/antodom/installations/ChibiStudio/tools/GNU Tools ARM Embedded/8.3.1 2019q3/bin/../lib/gcc/arm-none-eabi/8.3.1/../../../../arm-none-eabi/lib/thumb/v7e-m/nofp/libg.a(lib_a-signal.o)
 .text._init_signal_r
                0x0000000000000000       0x10 /home/antodom/installations/ChibiStudio/tools/GNU Tools ARM Embedded/8.3.1 2019q3/bin/../lib/gcc/arm-none-eabi/8.3.1/../../../../arm-none-eabi/lib/thumb/v7e-m/nofp/libg.a(lib_a-signal.o)
 .text._signal_r
                0x0000000000000000       0x38 /home/antodom/installations/ChibiStudio/tools/GNU Tools ARM Embedded/8.3.1 2019q3/bin/../lib/gcc/arm-none-eabi/8.3.1/../../../../arm-none-eabi/lib/thumb/v7e-m/nofp/libg.a(lib_a-signal.o)
 .text.__sigtramp_r
                0x0000000000000000       0x54 /home/antodom/installations/ChibiStudio/tools/GNU Tools ARM Embedded/8.3.1 2019q3/bin/../lib/gcc/arm-none-eabi/8.3.1/../../../../arm-none-eabi/lib/thumb/v7e-m/nofp/libg.a(lib_a-signal.o)
 .text.signal   0x0000000000000000       0x10 /home/antodom/installations/ChibiStudio/tools/GNU Tools ARM Embedded/8.3.1 2019q3/bin/../lib/gcc/arm-none-eabi/8.3.1/../../../../arm-none-eabi/lib/thumb/v7e-m/nofp/libg.a(lib_a-signal.o)
 .text._init_signal
                0x0000000000000000       0x18 /home/antodom/installations/ChibiStudio/tools/GNU Tools ARM Embedded/8.3.1 2019q3/bin/../lib/gcc/arm-none-eabi/8.3.1/../../../../arm-none-eabi/lib/thumb/v7e-m/nofp/libg.a(lib_a-signal.o)
 .text.__sigtramp
                0x0000000000000000       0x10 /home/antodom/installations/ChibiStudio/tools/GNU Tools ARM Embedded/8.3.1 2019q3/bin/../lib/gcc/arm-none-eabi/8.3.1/../../../../arm-none-eabi/lib/thumb/v7e-m/nofp/libg.a(lib_a-signal.o)
 .debug_frame   0x0000000000000000       0xe0 /home/antodom/installations/ChibiStudio/tools/GNU Tools ARM Embedded/8.3.1 2019q3/bin/../lib/gcc/arm-none-eabi/8.3.1/../../../../arm-none-eabi/lib/thumb/v7e-m/nofp/libg.a(lib_a-signal.o)
 .ARM.attributes
                0x0000000000000000       0x2e /home/antodom/installations/ChibiStudio/tools/GNU Tools ARM Embedded/8.3.1 2019q3/bin/../lib/gcc/arm-none-eabi/8.3.1/../../../../arm-none-eabi/lib/thumb/v7e-m/nofp/libg.a(lib_a-signal.o)
 .text          0x0000000000000000        0x0 /home/antodom/installations/ChibiStudio/tools/GNU Tools ARM Embedded/8.3.1 2019q3/bin/../lib/gcc/arm-none-eabi/8.3.1/../../../../arm-none-eabi/lib/thumb/v7e-m/nofp/libg.a(lib_a-signalr.o)
 .data          0x0000000000000000        0x0 /home/antodom/installations/ChibiStudio/tools/GNU Tools ARM Embedded/8.3.1 2019q3/bin/../lib/gcc/arm-none-eabi/8.3.1/../../../../arm-none-eabi/lib/thumb/v7e-m/nofp/libg.a(lib_a-signalr.o)
 .bss           0x0000000000000000        0x0 /home/antodom/installations/ChibiStudio/tools/GNU Tools ARM Embedded/8.3.1 2019q3/bin/../lib/gcc/arm-none-eabi/8.3.1/../../../../arm-none-eabi/lib/thumb/v7e-m/nofp/libg.a(lib_a-signalr.o)
 .debug_frame   0x0000000000000000       0x3c /home/antodom/installations/ChibiStudio/tools/GNU Tools ARM Embedded/8.3.1 2019q3/bin/../lib/gcc/arm-none-eabi/8.3.1/../../../../arm-none-eabi/lib/thumb/v7e-m/nofp/libg.a(lib_a-signalr.o)
 .ARM.attributes
                0x0000000000000000       0x2e /home/antodom/installations/ChibiStudio/tools/GNU Tools ARM Embedded/8.3.1 2019q3/bin/../lib/gcc/arm-none-eabi/8.3.1/../../../../arm-none-eabi/lib/thumb/v7e-m/nofp/libg.a(lib_a-signalr.o)
 .text          0x0000000000000000        0x0 /home/antodom/installations/ChibiStudio/tools/GNU Tools ARM Embedded/8.3.1 2019q3/bin/../lib/gcc/arm-none-eabi/8.3.1/../../../../arm-none-eabi/lib/thumb/v7e-m/nofp/libg.a(lib_a-sprintf.o)
 .data          0x0000000000000000        0x0 /home/antodom/installations/ChibiStudio/tools/GNU Tools ARM Embedded/8.3.1 2019q3/bin/../lib/gcc/arm-none-eabi/8.3.1/../../../../arm-none-eabi/lib/thumb/v7e-m/nofp/libg.a(lib_a-sprintf.o)
 .bss           0x0000000000000000        0x0 /home/antodom/installations/ChibiStudio/tools/GNU Tools ARM Embedded/8.3.1 2019q3/bin/../lib/gcc/arm-none-eabi/8.3.1/../../../../arm-none-eabi/lib/thumb/v7e-m/nofp/libg.a(lib_a-sprintf.o)
 .text._sprintf_r
                0x0000000000000000       0x3c /home/antodom/installations/ChibiStudio/tools/GNU Tools ARM Embedded/8.3.1 2019q3/bin/../lib/gcc/arm-none-eabi/8.3.1/../../../../arm-none-eabi/lib/thumb/v7e-m/nofp/libg.a(lib_a-sprintf.o)
 .debug_frame   0x0000000000000000       0x80 /home/antodom/installations/ChibiStudio/tools/GNU Tools ARM Embedded/8.3.1 2019q3/bin/../lib/gcc/arm-none-eabi/8.3.1/../../../../arm-none-eabi/lib/thumb/v7e-m/nofp/libg.a(lib_a-sprintf.o)
 .ARM.attributes
                0x0000000000000000       0x2e /home/antodom/installations/ChibiStudio/tools/GNU Tools ARM Embedded/8.3.1 2019q3/bin/../lib/gcc/arm-none-eabi/8.3.1/../../../../arm-none-eabi/lib/thumb/v7e-m/nofp/libg.a(lib_a-sprintf.o)
 .data          0x0000000000000000        0x0 /home/antodom/installations/ChibiStudio/tools/GNU Tools ARM Embedded/8.3.1 2019q3/bin/../lib/gcc/arm-none-eabi/8.3.1/../../../../arm-none-eabi/lib/thumb/v7e-m/nofp/libg.a(lib_a-strcmp.o)
 .bss           0x0000000000000000        0x0 /home/antodom/installations/ChibiStudio/tools/GNU Tools ARM Embedded/8.3.1 2019q3/bin/../lib/gcc/arm-none-eabi/8.3.1/../../../../arm-none-eabi/lib/thumb/v7e-m/nofp/libg.a(lib_a-strcmp.o)
 .debug_frame   0x0000000000000000       0x68 /home/antodom/installations/ChibiStudio/tools/GNU Tools ARM Embedded/8.3.1 2019q3/bin/../lib/gcc/arm-none-eabi/8.3.1/../../../../arm-none-eabi/lib/thumb/v7e-m/nofp/libg.a(lib_a-strcmp.o)
 .ARM.attributes
                0x0000000000000000       0x1c /home/antodom/installations/ChibiStudio/tools/GNU Tools ARM Embedded/8.3.1 2019q3/bin/../lib/gcc/arm-none-eabi/8.3.1/../../../../arm-none-eabi/lib/thumb/v7e-m/nofp/libg.a(lib_a-strcmp.o)
 .data          0x0000000000000000        0x0 /home/antodom/installations/ChibiStudio/tools/GNU Tools ARM Embedded/8.3.1 2019q3/bin/../lib/gcc/arm-none-eabi/8.3.1/../../../../arm-none-eabi/lib/thumb/v7e-m/nofp/libg.a(lib_a-strlen.o)
 .bss           0x0000000000000000        0x0 /home/antodom/installations/ChibiStudio/tools/GNU Tools ARM Embedded/8.3.1 2019q3/bin/../lib/gcc/arm-none-eabi/8.3.1/../../../../arm-none-eabi/lib/thumb/v7e-m/nofp/libg.a(lib_a-strlen.o)
 .ARM.attributes
                0x0000000000000000       0x1c /home/antodom/installations/ChibiStudio/tools/GNU Tools ARM Embedded/8.3.1 2019q3/bin/../lib/gcc/arm-none-eabi/8.3.1/../../../../arm-none-eabi/lib/thumb/v7e-m/nofp/libg.a(lib_a-strlen.o)
 .text          0x0000000000000000        0x0 /home/antodom/installations/ChibiStudio/tools/GNU Tools ARM Embedded/8.3.1 2019q3/bin/../lib/gcc/arm-none-eabi/8.3.1/../../../../arm-none-eabi/lib/thumb/v7e-m/nofp/libg.a(lib_a-strncmp.o)
 .data          0x0000000000000000        0x0 /home/antodom/installations/ChibiStudio/tools/GNU Tools ARM Embedded/8.3.1 2019q3/bin/../lib/gcc/arm-none-eabi/8.3.1/../../../../arm-none-eabi/lib/thumb/v7e-m/nofp/libg.a(lib_a-strncmp.o)
 .bss           0x0000000000000000        0x0 /home/antodom/installations/ChibiStudio/tools/GNU Tools ARM Embedded/8.3.1 2019q3/bin/../lib/gcc/arm-none-eabi/8.3.1/../../../../arm-none-eabi/lib/thumb/v7e-m/nofp/libg.a(lib_a-strncmp.o)
 .debug_frame   0x0000000000000000       0x48 /home/antodom/installations/ChibiStudio/tools/GNU Tools ARM Embedded/8.3.1 2019q3/bin/../lib/gcc/arm-none-eabi/8.3.1/../../../../arm-none-eabi/lib/thumb/v7e-m/nofp/libg.a(lib_a-strncmp.o)
 .ARM.attributes
                0x0000000000000000       0x2e /home/antodom/installations/ChibiStudio/tools/GNU Tools ARM Embedded/8.3.1 2019q3/bin/../lib/gcc/arm-none-eabi/8.3.1/../../../../arm-none-eabi/lib/thumb/v7e-m/nofp/libg.a(lib_a-strncmp.o)
 .text          0x0000000000000000        0x0 /home/antodom/installations/ChibiStudio/tools/GNU Tools ARM Embedded/8.3.1 2019q3/bin/../lib/gcc/arm-none-eabi/8.3.1/../../../../arm-none-eabi/lib/thumb/v7e-m/nofp/libg.a(lib_a-svfprintf.o)
 .data          0x0000000000000000        0x0 /home/antodom/installations/ChibiStudio/tools/GNU Tools ARM Embedded/8.3.1 2019q3/bin/../lib/gcc/arm-none-eabi/8.3.1/../../../../arm-none-eabi/lib/thumb/v7e-m/nofp/libg.a(lib_a-svfprintf.o)
 .bss           0x0000000000000000        0x0 /home/antodom/installations/ChibiStudio/tools/GNU Tools ARM Embedded/8.3.1 2019q3/bin/../lib/gcc/arm-none-eabi/8.3.1/../../../../arm-none-eabi/lib/thumb/v7e-m/nofp/libg.a(lib_a-svfprintf.o)
 .debug_frame   0x0000000000000000       0x44 /home/antodom/installations/ChibiStudio/tools/GNU Tools ARM Embedded/8.3.1 2019q3/bin/../lib/gcc/arm-none-eabi/8.3.1/../../../../arm-none-eabi/lib/thumb/v7e-m/nofp/libg.a(lib_a-svfprintf.o)
 .ARM.attributes
                0x0000000000000000       0x2e /home/antodom/installations/ChibiStudio/tools/GNU Tools ARM Embedded/8.3.1 2019q3/bin/../lib/gcc/arm-none-eabi/8.3.1/../../../../arm-none-eabi/lib/thumb/v7e-m/nofp/libg.a(lib_a-svfprintf.o)
 .text          0x0000000000000000        0x0 /home/antodom/installations/ChibiStudio/tools/GNU Tools ARM Embedded/8.3.1 2019q3/bin/../lib/gcc/arm-none-eabi/8.3.1/../../../../arm-none-eabi/lib/thumb/v7e-m/nofp/libg.a(lib_a-wbuf.o)
 .data          0x0000000000000000        0x0 /home/antodom/installations/ChibiStudio/tools/GNU Tools ARM Embedded/8.3.1 2019q3/bin/../lib/gcc/arm-none-eabi/8.3.1/../../../../arm-none-eabi/lib/thumb/v7e-m/nofp/libg.a(lib_a-wbuf.o)
 .bss           0x0000000000000000        0x0 /home/antodom/installations/ChibiStudio/tools/GNU Tools ARM Embedded/8.3.1 2019q3/bin/../lib/gcc/arm-none-eabi/8.3.1/../../../../arm-none-eabi/lib/thumb/v7e-m/nofp/libg.a(lib_a-wbuf.o)
 .text.__swbuf  0x0000000000000000       0x10 /home/antodom/installations/ChibiStudio/tools/GNU Tools ARM Embedded/8.3.1 2019q3/bin/../lib/gcc/arm-none-eabi/8.3.1/../../../../arm-none-eabi/lib/thumb/v7e-m/nofp/libg.a(lib_a-wbuf.o)
 .debug_frame   0x0000000000000000       0x40 /home/antodom/installations/ChibiStudio/tools/GNU Tools ARM Embedded/8.3.1 2019q3/bin/../lib/gcc/arm-none-eabi/8.3.1/../../../../arm-none-eabi/lib/thumb/v7e-m/nofp/libg.a(lib_a-wbuf.o)
 .ARM.attributes
                0x0000000000000000       0x2e /home/antodom/installations/ChibiStudio/tools/GNU Tools ARM Embedded/8.3.1 2019q3/bin/../lib/gcc/arm-none-eabi/8.3.1/../../../../arm-none-eabi/lib/thumb/v7e-m/nofp/libg.a(lib_a-wbuf.o)
 .text          0x0000000000000000        0x0 /home/antodom/installations/ChibiStudio/tools/GNU Tools ARM Embedded/8.3.1 2019q3/bin/../lib/gcc/arm-none-eabi/8.3.1/../../../../arm-none-eabi/lib/thumb/v7e-m/nofp/libg.a(lib_a-wsetup.o)
 .data          0x0000000000000000        0x0 /home/antodom/installations/ChibiStudio/tools/GNU Tools ARM Embedded/8.3.1 2019q3/bin/../lib/gcc/arm-none-eabi/8.3.1/../../../../arm-none-eabi/lib/thumb/v7e-m/nofp/libg.a(lib_a-wsetup.o)
 .bss           0x0000000000000000        0x0 /home/antodom/installations/ChibiStudio/tools/GNU Tools ARM Embedded/8.3.1 2019q3/bin/../lib/gcc/arm-none-eabi/8.3.1/../../../../arm-none-eabi/lib/thumb/v7e-m/nofp/libg.a(lib_a-wsetup.o)
 .debug_frame   0x0000000000000000       0x2c /home/antodom/installations/ChibiStudio/tools/GNU Tools ARM Embedded/8.3.1 2019q3/bin/../lib/gcc/arm-none-eabi/8.3.1/../../../../arm-none-eabi/lib/thumb/v7e-m/nofp/libg.a(lib_a-wsetup.o)
 .ARM.attributes
                0x0000000000000000       0x2e /home/antodom/installations/ChibiStudio/tools/GNU Tools ARM Embedded/8.3.1 2019q3/bin/../lib/gcc/arm-none-eabi/8.3.1/../../../../arm-none-eabi/lib/thumb/v7e-m/nofp/libg.a(lib_a-wsetup.o)
 .text          0x0000000000000000        0x0 /home/antodom/installations/ChibiStudio/tools/GNU Tools ARM Embedded/8.3.1 2019q3/bin/../lib/gcc/arm-none-eabi/8.3.1/../../../../arm-none-eabi/lib/thumb/v7e-m/nofp/libg.a(lib_a-__atexit.o)
 .data          0x0000000000000000        0x0 /home/antodom/installations/ChibiStudio/tools/GNU Tools ARM Embedded/8.3.1 2019q3/bin/../lib/gcc/arm-none-eabi/8.3.1/../../../../arm-none-eabi/lib/thumb/v7e-m/nofp/libg.a(lib_a-__atexit.o)
 .bss           0x0000000000000000        0x0 /home/antodom/installations/ChibiStudio/tools/GNU Tools ARM Embedded/8.3.1 2019q3/bin/../lib/gcc/arm-none-eabi/8.3.1/../../../../arm-none-eabi/lib/thumb/v7e-m/nofp/libg.a(lib_a-__atexit.o)
 .text          0x0000000000000000        0x0 /home/antodom/installations/ChibiStudio/tools/GNU Tools ARM Embedded/8.3.1 2019q3/bin/../lib/gcc/arm-none-eabi/8.3.1/../../../../arm-none-eabi/lib/thumb/v7e-m/nofp/libg.a(lib_a-__call_atexit.o)
 .data          0x0000000000000000        0x0 /home/antodom/installations/ChibiStudio/tools/GNU Tools ARM Embedded/8.3.1 2019q3/bin/../lib/gcc/arm-none-eabi/8.3.1/../../../../arm-none-eabi/lib/thumb/v7e-m/nofp/libg.a(lib_a-__call_atexit.o)
 .bss           0x0000000000000000        0x0 /home/antodom/installations/ChibiStudio/tools/GNU Tools ARM Embedded/8.3.1 2019q3/bin/../lib/gcc/arm-none-eabi/8.3.1/../../../../arm-none-eabi/lib/thumb/v7e-m/nofp/libg.a(lib_a-__call_atexit.o)
 .text.__call_exitprocs
                0x0000000000000000       0xb0 /home/antodom/installations/ChibiStudio/tools/GNU Tools ARM Embedded/8.3.1 2019q3/bin/../lib/gcc/arm-none-eabi/8.3.1/../../../../arm-none-eabi/lib/thumb/v7e-m/nofp/libg.a(lib_a-__call_atexit.o)
 .text          0x0000000000000000        0x0 /home/antodom/installations/ChibiStudio/tools/GNU Tools ARM Embedded/8.3.1 2019q3/bin/../lib/gcc/arm-none-eabi/8.3.1/../../../../arm-none-eabi/lib/thumb/v7e-m/nofp/libg.a(lib_a-atexit.o)
 .data          0x0000000000000000        0x0 /home/antodom/installations/ChibiStudio/tools/GNU Tools ARM Embedded/8.3.1 2019q3/bin/../lib/gcc/arm-none-eabi/8.3.1/../../../../arm-none-eabi/lib/thumb/v7e-m/nofp/libg.a(lib_a-atexit.o)
 .bss           0x0000000000000000        0x0 /home/antodom/installations/ChibiStudio/tools/GNU Tools ARM Embedded/8.3.1 2019q3/bin/../lib/gcc/arm-none-eabi/8.3.1/../../../../arm-none-eabi/lib/thumb/v7e-m/nofp/libg.a(lib_a-atexit.o)
 .text          0x0000000000000000        0x0 /home/antodom/installations/ChibiStudio/tools/GNU Tools ARM Embedded/8.3.1 2019q3/bin/../lib/gcc/arm-none-eabi/8.3.1/../../../../arm-none-eabi/lib/thumb/v7e-m/nofp/libg.a(lib_a-dtoa.o)
 .data          0x0000000000000000        0x0 /home/antodom/installations/ChibiStudio/tools/GNU Tools ARM Embedded/8.3.1 2019q3/bin/../lib/gcc/arm-none-eabi/8.3.1/../../../../arm-none-eabi/lib/thumb/v7e-m/nofp/libg.a(lib_a-dtoa.o)
 .bss           0x0000000000000000        0x0 /home/antodom/installations/ChibiStudio/tools/GNU Tools ARM Embedded/8.3.1 2019q3/bin/../lib/gcc/arm-none-eabi/8.3.1/../../../../arm-none-eabi/lib/thumb/v7e-m/nofp/libg.a(lib_a-dtoa.o)
 .debug_frame   0x0000000000000000       0x8c /home/antodom/installations/ChibiStudio/tools/GNU Tools ARM Embedded/8.3.1 2019q3/bin/../lib/gcc/arm-none-eabi/8.3.1/../../../../arm-none-eabi/lib/thumb/v7e-m/nofp/libg.a(lib_a-dtoa.o)
 .ARM.attributes
                0x0000000000000000       0x2e /home/antodom/installations/ChibiStudio/tools/GNU Tools ARM Embedded/8.3.1 2019q3/bin/../lib/gcc/arm-none-eabi/8.3.1/../../../../arm-none-eabi/lib/thumb/v7e-m/nofp/libg.a(lib_a-dtoa.o)
 .text          0x0000000000000000        0x0 /home/antodom/installations/ChibiStudio/tools/GNU Tools ARM Embedded/8.3.1 2019q3/bin/../lib/gcc/arm-none-eabi/8.3.1/../../../../arm-none-eabi/lib/thumb/v7e-m/nofp/libg.a(lib_a-fflush.o)
 .data          0x0000000000000000        0x0 /home/antodom/installations/ChibiStudio/tools/GNU Tools ARM Embedded/8.3.1 2019q3/bin/../lib/gcc/arm-none-eabi/8.3.1/../../../../arm-none-eabi/lib/thumb/v7e-m/nofp/libg.a(lib_a-fflush.o)
 .bss           0x0000000000000000        0x0 /home/antodom/installations/ChibiStudio/tools/GNU Tools ARM Embedded/8.3.1 2019q3/bin/../lib/gcc/arm-none-eabi/8.3.1/../../../../arm-none-eabi/lib/thumb/v7e-m/nofp/libg.a(lib_a-fflush.o)
 .text.fflush   0x0000000000000000       0x24 /home/antodom/installations/ChibiStudio/tools/GNU Tools ARM Embedded/8.3.1 2019q3/bin/../lib/gcc/arm-none-eabi/8.3.1/../../../../arm-none-eabi/lib/thumb/v7e-m/nofp/libg.a(lib_a-fflush.o)
 .debug_frame   0x0000000000000000       0x5c /home/antodom/installations/ChibiStudio/tools/GNU Tools ARM Embedded/8.3.1 2019q3/bin/../lib/gcc/arm-none-eabi/8.3.1/../../../../arm-none-eabi/lib/thumb/v7e-m/nofp/libg.a(lib_a-fflush.o)
 .ARM.attributes
                0x0000000000000000       0x2e /home/antodom/installations/ChibiStudio/tools/GNU Tools ARM Embedded/8.3.1 2019q3/bin/../lib/gcc/arm-none-eabi/8.3.1/../../../../arm-none-eabi/lib/thumb/v7e-m/nofp/libg.a(lib_a-fflush.o)
 .text          0x0000000000000000        0x0 /home/antodom/installations/ChibiStudio/tools/GNU Tools ARM Embedded/8.3.1 2019q3/bin/../lib/gcc/arm-none-eabi/8.3.1/../../../../arm-none-eabi/lib/thumb/v7e-m/nofp/libg.a(lib_a-findfp.o)
 .data          0x0000000000000000        0x0 /home/antodom/installations/ChibiStudio/tools/GNU Tools ARM Embedded/8.3.1 2019q3/bin/../lib/gcc/arm-none-eabi/8.3.1/../../../../arm-none-eabi/lib/thumb/v7e-m/nofp/libg.a(lib_a-findfp.o)
 .bss           0x0000000000000000        0x0 /home/antodom/installations/ChibiStudio/tools/GNU Tools ARM Embedded/8.3.1 2019q3/bin/../lib/gcc/arm-none-eabi/8.3.1/../../../../arm-none-eabi/lib/thumb/v7e-m/nofp/libg.a(lib_a-findfp.o)
 .text.__fp_lock
                0x0000000000000000       0x1c /home/antodom/installations/ChibiStudio/tools/GNU Tools ARM Embedded/8.3.1 2019q3/bin/../lib/gcc/arm-none-eabi/8.3.1/../../../../arm-none-eabi/lib/thumb/v7e-m/nofp/libg.a(lib_a-findfp.o)
 .text.__fp_unlock
                0x0000000000000000       0x1c /home/antodom/installations/ChibiStudio/tools/GNU Tools ARM Embedded/8.3.1 2019q3/bin/../lib/gcc/arm-none-eabi/8.3.1/../../../../arm-none-eabi/lib/thumb/v7e-m/nofp/libg.a(lib_a-findfp.o)
 .text.__sfmoreglue
                0x0000000000000000       0x30 /home/antodom/installations/ChibiStudio/tools/GNU Tools ARM Embedded/8.3.1 2019q3/bin/../lib/gcc/arm-none-eabi/8.3.1/../../../../arm-none-eabi/lib/thumb/v7e-m/nofp/libg.a(lib_a-findfp.o)
 .text._cleanup
                0x0000000000000000       0x14 /home/antodom/installations/ChibiStudio/tools/GNU Tools ARM Embedded/8.3.1 2019q3/bin/../lib/gcc/arm-none-eabi/8.3.1/../../../../arm-none-eabi/lib/thumb/v7e-m/nofp/libg.a(lib_a-findfp.o)
 .text.__sfp    0x0000000000000000       0xa4 /home/antodom/installations/ChibiStudio/tools/GNU Tools ARM Embedded/8.3.1 2019q3/bin/../lib/gcc/arm-none-eabi/8.3.1/../../../../arm-none-eabi/lib/thumb/v7e-m/nofp/libg.a(lib_a-findfp.o)
 .text.__sinit_lock_acquire
                0x0000000000000000        0xc /home/antodom/installations/ChibiStudio/tools/GNU Tools ARM Embedded/8.3.1 2019q3/bin/../lib/gcc/arm-none-eabi/8.3.1/../../../../arm-none-eabi/lib/thumb/v7e-m/nofp/libg.a(lib_a-findfp.o)
 .text.__sinit_lock_release
                0x0000000000000000        0xc /home/antodom/installations/ChibiStudio/tools/GNU Tools ARM Embedded/8.3.1 2019q3/bin/../lib/gcc/arm-none-eabi/8.3.1/../../../../arm-none-eabi/lib/thumb/v7e-m/nofp/libg.a(lib_a-findfp.o)
 .text.__fp_lock_all
                0x0000000000000000       0x24 /home/antodom/installations/ChibiStudio/tools/GNU Tools ARM Embedded/8.3.1 2019q3/bin/../lib/gcc/arm-none-eabi/8.3.1/../../../../arm-none-eabi/lib/thumb/v7e-m/nofp/libg.a(lib_a-findfp.o)
 .text.__fp_unlock_all
                0x0000000000000000       0x24 /home/antodom/installations/ChibiStudio/tools/GNU Tools ARM Embedded/8.3.1 2019q3/bin/../lib/gcc/arm-none-eabi/8.3.1/../../../../arm-none-eabi/lib/thumb/v7e-m/nofp/libg.a(lib_a-findfp.o)
 .debug_frame   0x0000000000000000      0x148 /home/antodom/installations/ChibiStudio/tools/GNU Tools ARM Embedded/8.3.1 2019q3/bin/../lib/gcc/arm-none-eabi/8.3.1/../../../../arm-none-eabi/lib/thumb/v7e-m/nofp/libg.a(lib_a-findfp.o)
 .ARM.attributes
                0x0000000000000000       0x2e /home/antodom/installations/ChibiStudio/tools/GNU Tools ARM Embedded/8.3.1 2019q3/bin/../lib/gcc/arm-none-eabi/8.3.1/../../../../arm-none-eabi/lib/thumb/v7e-m/nofp/libg.a(lib_a-findfp.o)
 .text          0x0000000000000000        0x0 /home/antodom/installations/ChibiStudio/tools/GNU Tools ARM Embedded/8.3.1 2019q3/bin/../lib/gcc/arm-none-eabi/8.3.1/../../../../arm-none-eabi/lib/thumb/v7e-m/nofp/libg.a(lib_a-fini.o)
 .data          0x0000000000000000        0x0 /home/antodom/installations/ChibiStudio/tools/GNU Tools ARM Embedded/8.3.1 2019q3/bin/../lib/gcc/arm-none-eabi/8.3.1/../../../../arm-none-eabi/lib/thumb/v7e-m/nofp/libg.a(lib_a-fini.o)
 .bss           0x0000000000000000        0x0 /home/antodom/installations/ChibiStudio/tools/GNU Tools ARM Embedded/8.3.1 2019q3/bin/../lib/gcc/arm-none-eabi/8.3.1/../../../../arm-none-eabi/lib/thumb/v7e-m/nofp/libg.a(lib_a-fini.o)
 .text          0x0000000000000000        0x0 /home/antodom/installations/ChibiStudio/tools/GNU Tools ARM Embedded/8.3.1 2019q3/bin/../lib/gcc/arm-none-eabi/8.3.1/../../../../arm-none-eabi/lib/thumb/v7e-m/nofp/libg.a(lib_a-freer.o)
 .data          0x0000000000000000        0x0 /home/antodom/installations/ChibiStudio/tools/GNU Tools ARM Embedded/8.3.1 2019q3/bin/../lib/gcc/arm-none-eabi/8.3.1/../../../../arm-none-eabi/lib/thumb/v7e-m/nofp/libg.a(lib_a-freer.o)
 .bss           0x0000000000000000        0x0 /home/antodom/installations/ChibiStudio/tools/GNU Tools ARM Embedded/8.3.1 2019q3/bin/../lib/gcc/arm-none-eabi/8.3.1/../../../../arm-none-eabi/lib/thumb/v7e-m/nofp/libg.a(lib_a-freer.o)
 .text          0x0000000000000000        0x0 /home/antodom/installations/ChibiStudio/tools/GNU Tools ARM Embedded/8.3.1 2019q3/bin/../lib/gcc/arm-none-eabi/8.3.1/../../../../arm-none-eabi/lib/thumb/v7e-m/nofp/libg.a(lib_a-fwalk.o)
 .data          0x0000000000000000        0x0 /home/antodom/installations/ChibiStudio/tools/GNU Tools ARM Embedded/8.3.1 2019q3/bin/../lib/gcc/arm-none-eabi/8.3.1/../../../../arm-none-eabi/lib/thumb/v7e-m/nofp/libg.a(lib_a-fwalk.o)
 .bss           0x0000000000000000        0x0 /home/antodom/installations/ChibiStudio/tools/GNU Tools ARM Embedded/8.3.1 2019q3/bin/../lib/gcc/arm-none-eabi/8.3.1/../../../../arm-none-eabi/lib/thumb/v7e-m/nofp/libg.a(lib_a-fwalk.o)
 .text._fwalk   0x0000000000000000       0x4c /home/antodom/installations/ChibiStudio/tools/GNU Tools ARM Embedded/8.3.1 2019q3/bin/../lib/gcc/arm-none-eabi/8.3.1/../../../../arm-none-eabi/lib/thumb/v7e-m/nofp/libg.a(lib_a-fwalk.o)
 .debug_frame   0x0000000000000000       0x54 /home/antodom/installations/ChibiStudio/tools/GNU Tools ARM Embedded/8.3.1 2019q3/bin/../lib/gcc/arm-none-eabi/8.3.1/../../../../arm-none-eabi/lib/thumb/v7e-m/nofp/libg.a(lib_a-fwalk.o)
 .ARM.attributes
                0x0000000000000000       0x2e /home/antodom/installations/ChibiStudio/tools/GNU Tools ARM Embedded/8.3.1 2019q3/bin/../lib/gcc/arm-none-eabi/8.3.1/../../../../arm-none-eabi/lib/thumb/v7e-m/nofp/libg.a(lib_a-fwalk.o)
 .text          0x0000000000000000        0x0 /home/antodom/installations/ChibiStudio/tools/GNU Tools ARM Embedded/8.3.1 2019q3/bin/../lib/gcc/arm-none-eabi/8.3.1/../../../../arm-none-eabi/lib/thumb/v7e-m/nofp/libg.a(lib_a-localeconv.o)
 .data          0x0000000000000000        0x0 /home/antodom/installations/ChibiStudio/tools/GNU Tools ARM Embedded/8.3.1 2019q3/bin/../lib/gcc/arm-none-eabi/8.3.1/../../../../arm-none-eabi/lib/thumb/v7e-m/nofp/libg.a(lib_a-localeconv.o)
 .bss           0x0000000000000000        0x0 /home/antodom/installations/ChibiStudio/tools/GNU Tools ARM Embedded/8.3.1 2019q3/bin/../lib/gcc/arm-none-eabi/8.3.1/../../../../arm-none-eabi/lib/thumb/v7e-m/nofp/libg.a(lib_a-localeconv.o)
 .text.__localeconv_l
                0x0000000000000000        0x4 /home/antodom/installations/ChibiStudio/tools/GNU Tools ARM Embedded/8.3.1 2019q3/bin/../lib/gcc/arm-none-eabi/8.3.1/../../../../arm-none-eabi/lib/thumb/v7e-m/nofp/libg.a(lib_a-localeconv.o)
 .text.localeconv
                0x0000000000000000        0x8 /home/antodom/installations/ChibiStudio/tools/GNU Tools ARM Embedded/8.3.1 2019q3/bin/../lib/gcc/arm-none-eabi/8.3.1/../../../../arm-none-eabi/lib/thumb/v7e-m/nofp/libg.a(lib_a-localeconv.o)
 .debug_frame   0x0000000000000000       0x40 /home/antodom/installations/ChibiStudio/tools/GNU Tools ARM Embedded/8.3.1 2019q3/bin/../lib/gcc/arm-none-eabi/8.3.1/../../../../arm-none-eabi/lib/thumb/v7e-m/nofp/libg.a(lib_a-localeconv.o)
 .ARM.attributes
                0x0000000000000000       0x2e /home/antodom/installations/ChibiStudio/tools/GNU Tools ARM Embedded/8.3.1 2019q3/bin/../lib/gcc/arm-none-eabi/8.3.1/../../../../arm-none-eabi/lib/thumb/v7e-m/nofp/libg.a(lib_a-localeconv.o)
 .text          0x0000000000000000        0x0 /home/antodom/installations/ChibiStudio/tools/GNU Tools ARM Embedded/8.3.1 2019q3/bin/../lib/gcc/arm-none-eabi/8.3.1/../../../../arm-none-eabi/lib/thumb/v7e-m/nofp/libg.a(lib_a-makebuf.o)
 .data          0x0000000000000000        0x0 /home/antodom/installations/ChibiStudio/tools/GNU Tools ARM Embedded/8.3.1 2019q3/bin/../lib/gcc/arm-none-eabi/8.3.1/../../../../arm-none-eabi/lib/thumb/v7e-m/nofp/libg.a(lib_a-makebuf.o)
 .bss           0x0000000000000000        0x0 /home/antodom/installations/ChibiStudio/tools/GNU Tools ARM Embedded/8.3.1 2019q3/bin/../lib/gcc/arm-none-eabi/8.3.1/../../../../arm-none-eabi/lib/thumb/v7e-m/nofp/libg.a(lib_a-makebuf.o)
 .debug_frame   0x0000000000000000       0x64 /home/antodom/installations/ChibiStudio/tools/GNU Tools ARM Embedded/8.3.1 2019q3/bin/../lib/gcc/arm-none-eabi/8.3.1/../../../../arm-none-eabi/lib/thumb/v7e-m/nofp/libg.a(lib_a-makebuf.o)
 .ARM.attributes
                0x0000000000000000       0x2e /home/antodom/installations/ChibiStudio/tools/GNU Tools ARM Embedded/8.3.1 2019q3/bin/../lib/gcc/arm-none-eabi/8.3.1/../../../../arm-none-eabi/lib/thumb/v7e-m/nofp/libg.a(lib_a-makebuf.o)
 .text          0x0000000000000000        0x0 /home/antodom/installations/ChibiStudio/tools/GNU Tools ARM Embedded/8.3.1 2019q3/bin/../lib/gcc/arm-none-eabi/8.3.1/../../../../arm-none-eabi/lib/thumb/v7e-m/nofp/libg.a(lib_a-mprec.o)
 .data          0x0000000000000000        0x0 /home/antodom/installations/ChibiStudio/tools/GNU Tools ARM Embedded/8.3.1 2019q3/bin/../lib/gcc/arm-none-eabi/8.3.1/../../../../arm-none-eabi/lib/thumb/v7e-m/nofp/libg.a(lib_a-mprec.o)
 .bss           0x0000000000000000        0x0 /home/antodom/installations/ChibiStudio/tools/GNU Tools ARM Embedded/8.3.1 2019q3/bin/../lib/gcc/arm-none-eabi/8.3.1/../../../../arm-none-eabi/lib/thumb/v7e-m/nofp/libg.a(lib_a-mprec.o)
 .text.__s2b    0x0000000000000000       0x98 /home/antodom/installations/ChibiStudio/tools/GNU Tools ARM Embedded/8.3.1 2019q3/bin/../lib/gcc/arm-none-eabi/8.3.1/../../../../arm-none-eabi/lib/thumb/v7e-m/nofp/libg.a(lib_a-mprec.o)
 .text.__ulp    0x0000000000000000       0x40 /home/antodom/installations/ChibiStudio/tools/GNU Tools ARM Embedded/8.3.1 2019q3/bin/../lib/gcc/arm-none-eabi/8.3.1/../../../../arm-none-eabi/lib/thumb/v7e-m/nofp/libg.a(lib_a-mprec.o)
 .text.__b2d    0x0000000000000000       0xb8 /home/antodom/installations/ChibiStudio/tools/GNU Tools ARM Embedded/8.3.1 2019q3/bin/../lib/gcc/arm-none-eabi/8.3.1/../../../../arm-none-eabi/lib/thumb/v7e-m/nofp/libg.a(lib_a-mprec.o)
 .text.__ratio  0x0000000000000000       0x5c /home/antodom/installations/ChibiStudio/tools/GNU Tools ARM Embedded/8.3.1 2019q3/bin/../lib/gcc/arm-none-eabi/8.3.1/../../../../arm-none-eabi/lib/thumb/v7e-m/nofp/libg.a(lib_a-mprec.o)
 .text._mprec_log10
                0x0000000000000000       0x38 /home/antodom/installations/ChibiStudio/tools/GNU Tools ARM Embedded/8.3.1 2019q3/bin/../lib/gcc/arm-none-eabi/8.3.1/../../../../arm-none-eabi/lib/thumb/v7e-m/nofp/libg.a(lib_a-mprec.o)
 .text.__copybits
                0x0000000000000000       0x48 /home/antodom/installations/ChibiStudio/tools/GNU Tools ARM Embedded/8.3.1 2019q3/bin/../lib/gcc/arm-none-eabi/8.3.1/../../../../arm-none-eabi/lib/thumb/v7e-m/nofp/libg.a(lib_a-mprec.o)
 .text.__any_on
                0x0000000000000000       0x54 /home/antodom/installations/ChibiStudio/tools/GNU Tools ARM Embedded/8.3.1 2019q3/bin/../lib/gcc/arm-none-eabi/8.3.1/../../../../arm-none-eabi/lib/thumb/v7e-m/nofp/libg.a(lib_a-mprec.o)
 .rodata.__mprec_tinytens
                0x0000000000000000       0x28 /home/antodom/installations/ChibiStudio/tools/GNU Tools ARM Embedded/8.3.1 2019q3/bin/../lib/gcc/arm-none-eabi/8.3.1/../../../../arm-none-eabi/lib/thumb/v7e-m/nofp/libg.a(lib_a-mprec.o)
 .debug_frame   0x0000000000000000      0x260 /home/antodom/installations/ChibiStudio/tools/GNU Tools ARM Embedded/8.3.1 2019q3/bin/../lib/gcc/arm-none-eabi/8.3.1/../../../../arm-none-eabi/lib/thumb/v7e-m/nofp/libg.a(lib_a-mprec.o)
 .ARM.attributes
                0x0000000000000000       0x2e /home/antodom/installations/ChibiStudio/tools/GNU Tools ARM Embedded/8.3.1 2019q3/bin/../lib/gcc/arm-none-eabi/8.3.1/../../../../arm-none-eabi/lib/thumb/v7e-m/nofp/libg.a(lib_a-mprec.o)
 .text          0x0000000000000000        0x0 /home/antodom/installations/ChibiStudio/tools/GNU Tools ARM Embedded/8.3.1 2019q3/bin/../lib/gcc/arm-none-eabi/8.3.1/../../../../arm-none-eabi/lib/thumb/v7e-m/nofp/libg.a(lib_a-s_frexp.o)
 .data          0x0000000000000000        0x0 /home/antodom/installations/ChibiStudio/tools/GNU Tools ARM Embedded/8.3.1 2019q3/bin/../lib/gcc/arm-none-eabi/8.3.1/../../../../arm-none-eabi/lib/thumb/v7e-m/nofp/libg.a(lib_a-s_frexp.o)
 .bss           0x0000000000000000        0x0 /home/antodom/installations/ChibiStudio/tools/GNU Tools ARM Embedded/8.3.1 2019q3/bin/../lib/gcc/arm-none-eabi/8.3.1/../../../../arm-none-eabi/lib/thumb/v7e-m/nofp/libg.a(lib_a-s_frexp.o)
 .debug_frame   0x0000000000000000       0x30 /home/antodom/installations/ChibiStudio/tools/GNU Tools ARM Embedded/8.3.1 2019q3/bin/../lib/gcc/arm-none-eabi/8.3.1/../../../../arm-none-eabi/lib/thumb/v7e-m/nofp/libg.a(lib_a-s_frexp.o)
 .ARM.attributes
                0x0000000000000000       0x2e /home/antodom/installations/ChibiStudio/tools/GNU Tools ARM Embedded/8.3.1 2019q3/bin/../lib/gcc/arm-none-eabi/8.3.1/../../../../arm-none-eabi/lib/thumb/v7e-m/nofp/libg.a(lib_a-s_frexp.o)
 .text          0x0000000000000000        0x0 /home/antodom/installations/ChibiStudio/tools/GNU Tools ARM Embedded/8.3.1 2019q3/bin/../lib/gcc/arm-none-eabi/8.3.1/../../../../arm-none-eabi/lib/thumb/v7e-m/nofp/libg.a(lib_a-stdio.o)
 .data          0x0000000000000000        0x0 /home/antodom/installations/ChibiStudio/tools/GNU Tools ARM Embedded/8.3.1 2019q3/bin/../lib/gcc/arm-none-eabi/8.3.1/../../../../arm-none-eabi/lib/thumb/v7e-m/nofp/libg.a(lib_a-stdio.o)
 .bss           0x0000000000000000        0x0 /home/antodom/installations/ChibiStudio/tools/GNU Tools ARM Embedded/8.3.1 2019q3/bin/../lib/gcc/arm-none-eabi/8.3.1/../../../../arm-none-eabi/lib/thumb/v7e-m/nofp/libg.a(lib_a-stdio.o)
 .text.__seofread
                0x0000000000000000        0x4 /home/antodom/installations/ChibiStudio/tools/GNU Tools ARM Embedded/8.3.1 2019q3/bin/../lib/gcc/arm-none-eabi/8.3.1/../../../../arm-none-eabi/lib/thumb/v7e-m/nofp/libg.a(lib_a-stdio.o)
 .debug_frame   0x0000000000000000       0x8c /home/antodom/installations/ChibiStudio/tools/GNU Tools ARM Embedded/8.3.1 2019q3/bin/../lib/gcc/arm-none-eabi/8.3.1/../../../../arm-none-eabi/lib/thumb/v7e-m/nofp/libg.a(lib_a-stdio.o)
 .ARM.attributes
                0x0000000000000000       0x2e /home/antodom/installations/ChibiStudio/tools/GNU Tools ARM Embedded/8.3.1 2019q3/bin/../lib/gcc/arm-none-eabi/8.3.1/../../../../arm-none-eabi/lib/thumb/v7e-m/nofp/libg.a(lib_a-stdio.o)
 .text          0x0000000000000000        0x0 /home/antodom/installations/ChibiStudio/tools/GNU Tools ARM Embedded/8.3.1 2019q3/bin/../lib/gcc/arm-none-eabi/8.3.1/../../../../arm-none-eabi/lib/thumb/v7e-m/nofp/libg.a(lib_a-strncpy.o)
 .data          0x0000000000000000        0x0 /home/antodom/installations/ChibiStudio/tools/GNU Tools ARM Embedded/8.3.1 2019q3/bin/../lib/gcc/arm-none-eabi/8.3.1/../../../../arm-none-eabi/lib/thumb/v7e-m/nofp/libg.a(lib_a-strncpy.o)
 .bss           0x0000000000000000        0x0 /home/antodom/installations/ChibiStudio/tools/GNU Tools ARM Embedded/8.3.1 2019q3/bin/../lib/gcc/arm-none-eabi/8.3.1/../../../../arm-none-eabi/lib/thumb/v7e-m/nofp/libg.a(lib_a-strncpy.o)
 .debug_frame   0x0000000000000000       0x38 /home/antodom/installations/ChibiStudio/tools/GNU Tools ARM Embedded/8.3.1 2019q3/bin/../lib/gcc/arm-none-eabi/8.3.1/../../../../arm-none-eabi/lib/thumb/v7e-m/nofp/libg.a(lib_a-strncpy.o)
 .ARM.attributes
                0x0000000000000000       0x2e /home/antodom/installations/ChibiStudio/tools/GNU Tools ARM Embedded/8.3.1 2019q3/bin/../lib/gcc/arm-none-eabi/8.3.1/../../../../arm-none-eabi/lib/thumb/v7e-m/nofp/libg.a(lib_a-strncpy.o)
 .text          0x0000000000000000        0x0 /home/antodom/installations/ChibiStudio/tools/GNU Tools ARM Embedded/8.3.1 2019q3/bin/../lib/gcc/arm-none-eabi/8.3.1/../../../../arm-none-eabi/lib/thumb/v7e-m/nofp/libg.a(lib_a-svfiprintf.o)
 .data          0x0000000000000000        0x0 /home/antodom/installations/ChibiStudio/tools/GNU Tools ARM Embedded/8.3.1 2019q3/bin/../lib/gcc/arm-none-eabi/8.3.1/../../../../arm-none-eabi/lib/thumb/v7e-m/nofp/libg.a(lib_a-svfiprintf.o)
 .bss           0x0000000000000000        0x0 /home/antodom/installations/ChibiStudio/tools/GNU Tools ARM Embedded/8.3.1 2019q3/bin/../lib/gcc/arm-none-eabi/8.3.1/../../../../arm-none-eabi/lib/thumb/v7e-m/nofp/libg.a(lib_a-svfiprintf.o)
 .text._svfiprintf_r
                0x0000000000000000      0xb74 /home/antodom/installations/ChibiStudio/tools/GNU Tools ARM Embedded/8.3.1 2019q3/bin/../lib/gcc/arm-none-eabi/8.3.1/../../../../arm-none-eabi/lib/thumb/v7e-m/nofp/libg.a(lib_a-svfiprintf.o)
 .rodata._svfiprintf_r.str1.4
                0x0000000000000000       0x2f /home/antodom/installations/ChibiStudio/tools/GNU Tools ARM Embedded/8.3.1 2019q3/bin/../lib/gcc/arm-none-eabi/8.3.1/../../../../arm-none-eabi/lib/thumb/v7e-m/nofp/libg.a(lib_a-svfiprintf.o)
 .rodata.blanks.7334
                0x0000000000000000       0x10 /home/antodom/installations/ChibiStudio/tools/GNU Tools ARM Embedded/8.3.1 2019q3/bin/../lib/gcc/arm-none-eabi/8.3.1/../../../../arm-none-eabi/lib/thumb/v7e-m/nofp/libg.a(lib_a-svfiprintf.o)
 .rodata.zeroes.7335
                0x0000000000000000       0x10 /home/antodom/installations/ChibiStudio/tools/GNU Tools ARM Embedded/8.3.1 2019q3/bin/../lib/gcc/arm-none-eabi/8.3.1/../../../../arm-none-eabi/lib/thumb/v7e-m/nofp/libg.a(lib_a-svfiprintf.o)
 .debug_frame   0x0000000000000000       0x78 /home/antodom/installations/ChibiStudio/tools/GNU Tools ARM Embedded/8.3.1 2019q3/bin/../lib/gcc/arm-none-eabi/8.3.1/../../../../arm-none-eabi/lib/thumb/v7e-m/nofp/libg.a(lib_a-svfiprintf.o)
 .ARM.attributes
                0x0000000000000000       0x2e /home/antodom/installations/ChibiStudio/tools/GNU Tools ARM Embedded/8.3.1 2019q3/bin/../lib/gcc/arm-none-eabi/8.3.1/../../../../arm-none-eabi/lib/thumb/v7e-m/nofp/libg.a(lib_a-svfiprintf.o)
 .text          0x0000000000000000        0x0 /home/antodom/installations/ChibiStudio/tools/GNU Tools ARM Embedded/8.3.1 2019q3/bin/../lib/gcc/arm-none-eabi/8.3.1/../../../../arm-none-eabi/lib/thumb/v7e-m/nofp/libg.a(lib_a-callocr.o)
 .data          0x0000000000000000        0x0 /home/antodom/installations/ChibiStudio/tools/GNU Tools ARM Embedded/8.3.1 2019q3/bin/../lib/gcc/arm-none-eabi/8.3.1/../../../../arm-none-eabi/lib/thumb/v7e-m/nofp/libg.a(lib_a-callocr.o)
 .bss           0x0000000000000000        0x0 /home/antodom/installations/ChibiStudio/tools/GNU Tools ARM Embedded/8.3.1 2019q3/bin/../lib/gcc/arm-none-eabi/8.3.1/../../../../arm-none-eabi/lib/thumb/v7e-m/nofp/libg.a(lib_a-callocr.o)
 .debug_frame   0x0000000000000000       0x28 /home/antodom/installations/ChibiStudio/tools/GNU Tools ARM Embedded/8.3.1 2019q3/bin/../lib/gcc/arm-none-eabi/8.3.1/../../../../arm-none-eabi/lib/thumb/v7e-m/nofp/libg.a(lib_a-callocr.o)
 .ARM.attributes
                0x0000000000000000       0x2e /home/antodom/installations/ChibiStudio/tools/GNU Tools ARM Embedded/8.3.1 2019q3/bin/../lib/gcc/arm-none-eabi/8.3.1/../../../../arm-none-eabi/lib/thumb/v7e-m/nofp/libg.a(lib_a-callocr.o)
 .text          0x0000000000000000        0x0 /home/antodom/installations/ChibiStudio/tools/GNU Tools ARM Embedded/8.3.1 2019q3/bin/../lib/gcc/arm-none-eabi/8.3.1/../../../../arm-none-eabi/lib/thumb/v7e-m/nofp/libg.a(lib_a-fclose.o)
 .data          0x0000000000000000        0x0 /home/antodom/installations/ChibiStudio/tools/GNU Tools ARM Embedded/8.3.1 2019q3/bin/../lib/gcc/arm-none-eabi/8.3.1/../../../../arm-none-eabi/lib/thumb/v7e-m/nofp/libg.a(lib_a-fclose.o)
 .bss           0x0000000000000000        0x0 /home/antodom/installations/ChibiStudio/tools/GNU Tools ARM Embedded/8.3.1 2019q3/bin/../lib/gcc/arm-none-eabi/8.3.1/../../../../arm-none-eabi/lib/thumb/v7e-m/nofp/libg.a(lib_a-fclose.o)
 .text.fclose   0x0000000000000000       0x10 /home/antodom/installations/ChibiStudio/tools/GNU Tools ARM Embedded/8.3.1 2019q3/bin/../lib/gcc/arm-none-eabi/8.3.1/../../../../arm-none-eabi/lib/thumb/v7e-m/nofp/libg.a(lib_a-fclose.o)
 .debug_frame   0x0000000000000000       0x3c /home/antodom/installations/ChibiStudio/tools/GNU Tools ARM Embedded/8.3.1 2019q3/bin/../lib/gcc/arm-none-eabi/8.3.1/../../../../arm-none-eabi/lib/thumb/v7e-m/nofp/libg.a(lib_a-fclose.o)
 .ARM.attributes
                0x0000000000000000       0x2e /home/antodom/installations/ChibiStudio/tools/GNU Tools ARM Embedded/8.3.1 2019q3/bin/../lib/gcc/arm-none-eabi/8.3.1/../../../../arm-none-eabi/lib/thumb/v7e-m/nofp/libg.a(lib_a-fclose.o)
 .text          0x0000000000000000        0x0 /home/antodom/installations/ChibiStudio/tools/GNU Tools ARM Embedded/8.3.1 2019q3/bin/../lib/gcc/arm-none-eabi/8.3.1/../../../../arm-none-eabi/lib/thumb/v7e-m/nofp/libg.a(lib_a-locale.o)
 .data          0x0000000000000000        0x0 /home/antodom/installations/ChibiStudio/tools/GNU Tools ARM Embedded/8.3.1 2019q3/bin/../lib/gcc/arm-none-eabi/8.3.1/../../../../arm-none-eabi/lib/thumb/v7e-m/nofp/libg.a(lib_a-locale.o)
 .bss           0x0000000000000000        0x0 /home/antodom/installations/ChibiStudio/tools/GNU Tools ARM Embedded/8.3.1 2019q3/bin/../lib/gcc/arm-none-eabi/8.3.1/../../../../arm-none-eabi/lib/thumb/v7e-m/nofp/libg.a(lib_a-locale.o)
 .text._setlocale_r
                0x0000000000000000       0x40 /home/antodom/installations/ChibiStudio/tools/GNU Tools ARM Embedded/8.3.1 2019q3/bin/../lib/gcc/arm-none-eabi/8.3.1/../../../../arm-none-eabi/lib/thumb/v7e-m/nofp/libg.a(lib_a-locale.o)
 .text.__locale_mb_cur_max
                0x0000000000000000        0xc /home/antodom/installations/ChibiStudio/tools/GNU Tools ARM Embedded/8.3.1 2019q3/bin/../lib/gcc/arm-none-eabi/8.3.1/../../../../arm-none-eabi/lib/thumb/v7e-m/nofp/libg.a(lib_a-locale.o)
 .text.setlocale
                0x0000000000000000       0x10 /home/antodom/installations/ChibiStudio/tools/GNU Tools ARM Embedded/8.3.1 2019q3/bin/../lib/gcc/arm-none-eabi/8.3.1/../../../../arm-none-eabi/lib/thumb/v7e-m/nofp/libg.a(lib_a-locale.o)
 .bss._PathLocale
                0x0000000000000000        0x4 /home/antodom/installations/ChibiStudio/tools/GNU Tools ARM Embedded/8.3.1 2019q3/bin/../lib/gcc/arm-none-eabi/8.3.1/../../../../arm-none-eabi/lib/thumb/v7e-m/nofp/libg.a(lib_a-locale.o)
 .debug_frame   0x0000000000000000       0x54 /home/antodom/installations/ChibiStudio/tools/GNU Tools ARM Embedded/8.3.1 2019q3/bin/../lib/gcc/arm-none-eabi/8.3.1/../../../../arm-none-eabi/lib/thumb/v7e-m/nofp/libg.a(lib_a-locale.o)
 .ARM.attributes
                0x0000000000000000       0x2e /home/antodom/installations/ChibiStudio/tools/GNU Tools ARM Embedded/8.3.1 2019q3/bin/../lib/gcc/arm-none-eabi/8.3.1/../../../../arm-none-eabi/lib/thumb/v7e-m/nofp/libg.a(lib_a-locale.o)
 .text          0x0000000000000000        0x0 /home/antodom/installations/ChibiStudio/tools/GNU Tools ARM Embedded/8.3.1 2019q3/bin/../lib/gcc/arm-none-eabi/8.3.1/../../../../arm-none-eabi/lib/thumb/v7e-m/nofp/libg.a(lib_a-mbtowc_r.o)
 .data          0x0000000000000000        0x0 /home/antodom/installations/ChibiStudio/tools/GNU Tools ARM Embedded/8.3.1 2019q3/bin/../lib/gcc/arm-none-eabi/8.3.1/../../../../arm-none-eabi/lib/thumb/v7e-m/nofp/libg.a(lib_a-mbtowc_r.o)
 .bss           0x0000000000000000        0x0 /home/antodom/installations/ChibiStudio/tools/GNU Tools ARM Embedded/8.3.1 2019q3/bin/../lib/gcc/arm-none-eabi/8.3.1/../../../../arm-none-eabi/lib/thumb/v7e-m/nofp/libg.a(lib_a-mbtowc_r.o)
 .text._mbtowc_r
                0x0000000000000000       0x14 /home/antodom/installations/ChibiStudio/tools/GNU Tools ARM Embedded/8.3.1 2019q3/bin/../lib/gcc/arm-none-eabi/8.3.1/../../../../arm-none-eabi/lib/thumb/v7e-m/nofp/libg.a(lib_a-mbtowc_r.o)
 .debug_frame   0x0000000000000000       0x4c /home/antodom/installations/ChibiStudio/tools/GNU Tools ARM Embedded/8.3.1 2019q3/bin/../lib/gcc/arm-none-eabi/8.3.1/../../../../arm-none-eabi/lib/thumb/v7e-m/nofp/libg.a(lib_a-mbtowc_r.o)
 .ARM.attributes
                0x0000000000000000       0x2e /home/antodom/installations/ChibiStudio/tools/GNU Tools ARM Embedded/8.3.1 2019q3/bin/../lib/gcc/arm-none-eabi/8.3.1/../../../../arm-none-eabi/lib/thumb/v7e-m/nofp/libg.a(lib_a-mbtowc_r.o)
 .text          0x0000000000000000        0x0 /home/antodom/installations/ChibiStudio/tools/GNU Tools ARM Embedded/8.3.1 2019q3/bin/../lib/gcc/arm-none-eabi/8.3.1/../../../../arm-none-eabi/lib/thumb/v7e-m/nofp/libg.a(lib_a-wctomb_r.o)
 .data          0x0000000000000000        0x0 /home/antodom/installations/ChibiStudio/tools/GNU Tools ARM Embedded/8.3.1 2019q3/bin/../lib/gcc/arm-none-eabi/8.3.1/../../../../arm-none-eabi/lib/thumb/v7e-m/nofp/libg.a(lib_a-wctomb_r.o)
 .bss           0x0000000000000000        0x0 /home/antodom/installations/ChibiStudio/tools/GNU Tools ARM Embedded/8.3.1 2019q3/bin/../lib/gcc/arm-none-eabi/8.3.1/../../../../arm-none-eabi/lib/thumb/v7e-m/nofp/libg.a(lib_a-wctomb_r.o)
 .text._wctomb_r
                0x0000000000000000       0x14 /home/antodom/installations/ChibiStudio/tools/GNU Tools ARM Embedded/8.3.1 2019q3/bin/../lib/gcc/arm-none-eabi/8.3.1/../../../../arm-none-eabi/lib/thumb/v7e-m/nofp/libg.a(lib_a-wctomb_r.o)
 .debug_frame   0x0000000000000000       0x3c /home/antodom/installations/ChibiStudio/tools/GNU Tools ARM Embedded/8.3.1 2019q3/bin/../lib/gcc/arm-none-eabi/8.3.1/../../../../arm-none-eabi/lib/thumb/v7e-m/nofp/libg.a(lib_a-wctomb_r.o)
 .ARM.attributes
                0x0000000000000000       0x2e /home/antodom/installations/ChibiStudio/tools/GNU Tools ARM Embedded/8.3.1 2019q3/bin/../lib/gcc/arm-none-eabi/8.3.1/../../../../arm-none-eabi/lib/thumb/v7e-m/nofp/libg.a(lib_a-wctomb_r.o)
 .text          0x0000000000000000        0x0 /home/antodom/installations/ChibiStudio/tools/GNU Tools ARM Embedded/8.3.1 2019q3/bin/../lib/gcc/arm-none-eabi/8.3.1/../../../../arm-none-eabi/lib/thumb/v7e-m/nofp/libg.a(lib_a-ctype_.o)
 .data          0x0000000000000000        0x0 /home/antodom/installations/ChibiStudio/tools/GNU Tools ARM Embedded/8.3.1 2019q3/bin/../lib/gcc/arm-none-eabi/8.3.1/../../../../arm-none-eabi/lib/thumb/v7e-m/nofp/libg.a(lib_a-ctype_.o)
 .bss           0x0000000000000000        0x0 /home/antodom/installations/ChibiStudio/tools/GNU Tools ARM Embedded/8.3.1 2019q3/bin/../lib/gcc/arm-none-eabi/8.3.1/../../../../arm-none-eabi/lib/thumb/v7e-m/nofp/libg.a(lib_a-ctype_.o)
 .ARM.attributes
                0x0000000000000000       0x2e /home/antodom/installations/ChibiStudio/tools/GNU Tools ARM Embedded/8.3.1 2019q3/bin/../lib/gcc/arm-none-eabi/8.3.1/../../../../arm-none-eabi/lib/thumb/v7e-m/nofp/libg.a(lib_a-ctype_.o)
 .data          0x0000000000000000        0x0 /home/antodom/installations/ChibiStudio/tools/GNU Tools ARM Embedded/8.3.1 2019q3/bin/../lib/gcc/arm-none-eabi/8.3.1/thumb/v7e-m/nofp/libgcc.a(_arm_addsubdf3.o)
 .bss           0x0000000000000000        0x0 /home/antodom/installations/ChibiStudio/tools/GNU Tools ARM Embedded/8.3.1 2019q3/bin/../lib/gcc/arm-none-eabi/8.3.1/thumb/v7e-m/nofp/libgcc.a(_arm_addsubdf3.o)
 .debug_frame   0x0000000000000000       0xac /home/antodom/installations/ChibiStudio/tools/GNU Tools ARM Embedded/8.3.1 2019q3/bin/../lib/gcc/arm-none-eabi/8.3.1/thumb/v7e-m/nofp/libgcc.a(_arm_addsubdf3.o)
 .ARM.attributes
                0x0000000000000000       0x1e /home/antodom/installations/ChibiStudio/tools/GNU Tools ARM Embedded/8.3.1 2019q3/bin/../lib/gcc/arm-none-eabi/8.3.1/thumb/v7e-m/nofp/libgcc.a(_arm_addsubdf3.o)
 .data          0x0000000000000000        0x0 /home/antodom/installations/ChibiStudio/tools/GNU Tools ARM Embedded/8.3.1 2019q3/bin/../lib/gcc/arm-none-eabi/8.3.1/thumb/v7e-m/nofp/libgcc.a(_arm_muldivdf3.o)
 .bss           0x0000000000000000        0x0 /home/antodom/installations/ChibiStudio/tools/GNU Tools ARM Embedded/8.3.1 2019q3/bin/../lib/gcc/arm-none-eabi/8.3.1/thumb/v7e-m/nofp/libgcc.a(_arm_muldivdf3.o)
 .debug_frame   0x0000000000000000       0x50 /home/antodom/installations/ChibiStudio/tools/GNU Tools ARM Embedded/8.3.1 2019q3/bin/../lib/gcc/arm-none-eabi/8.3.1/thumb/v7e-m/nofp/libgcc.a(_arm_muldivdf3.o)
 .ARM.attributes
                0x0000000000000000       0x1e /home/antodom/installations/ChibiStudio/tools/GNU Tools ARM Embedded/8.3.1 2019q3/bin/../lib/gcc/arm-none-eabi/8.3.1/thumb/v7e-m/nofp/libgcc.a(_arm_muldivdf3.o)
 .data          0x0000000000000000        0x0 /home/antodom/installations/ChibiStudio/tools/GNU Tools ARM Embedded/8.3.1 2019q3/bin/../lib/gcc/arm-none-eabi/8.3.1/thumb/v7e-m/nofp/libgcc.a(_arm_cmpdf2.o)
 .bss           0x0000000000000000        0x0 /home/antodom/installations/ChibiStudio/tools/GNU Tools ARM Embedded/8.3.1 2019q3/bin/../lib/gcc/arm-none-eabi/8.3.1/thumb/v7e-m/nofp/libgcc.a(_arm_cmpdf2.o)
 .debug_frame   0x0000000000000000       0xc4 /home/antodom/installations/ChibiStudio/tools/GNU Tools ARM Embedded/8.3.1 2019q3/bin/../lib/gcc/arm-none-eabi/8.3.1/thumb/v7e-m/nofp/libgcc.a(_arm_cmpdf2.o)
 .ARM.attributes
                0x0000000000000000       0x1e /home/antodom/installations/ChibiStudio/tools/GNU Tools ARM Embedded/8.3.1 2019q3/bin/../lib/gcc/arm-none-eabi/8.3.1/thumb/v7e-m/nofp/libgcc.a(_arm_cmpdf2.o)
 .data          0x0000000000000000        0x0 /home/antodom/installations/ChibiStudio/tools/GNU Tools ARM Embedded/8.3.1 2019q3/bin/../lib/gcc/arm-none-eabi/8.3.1/thumb/v7e-m/nofp/libgcc.a(_arm_unorddf2.o)
 .bss           0x0000000000000000        0x0 /home/antodom/installations/ChibiStudio/tools/GNU Tools ARM Embedded/8.3.1 2019q3/bin/../lib/gcc/arm-none-eabi/8.3.1/thumb/v7e-m/nofp/libgcc.a(_arm_unorddf2.o)
 .debug_frame   0x0000000000000000       0x20 /home/antodom/installations/ChibiStudio/tools/GNU Tools ARM Embedded/8.3.1 2019q3/bin/../lib/gcc/arm-none-eabi/8.3.1/thumb/v7e-m/nofp/libgcc.a(_arm_unorddf2.o)
 .ARM.attributes
                0x0000000000000000       0x1e /home/antodom/installations/ChibiStudio/tools/GNU Tools ARM Embedded/8.3.1 2019q3/bin/../lib/gcc/arm-none-eabi/8.3.1/thumb/v7e-m/nofp/libgcc.a(_arm_unorddf2.o)
 .data          0x0000000000000000        0x0 /home/antodom/installations/ChibiStudio/tools/GNU Tools ARM Embedded/8.3.1 2019q3/bin/../lib/gcc/arm-none-eabi/8.3.1/thumb/v7e-m/nofp/libgcc.a(_arm_fixdfsi.o)
 .bss           0x0000000000000000        0x0 /home/antodom/installations/ChibiStudio/tools/GNU Tools ARM Embedded/8.3.1 2019q3/bin/../lib/gcc/arm-none-eabi/8.3.1/thumb/v7e-m/nofp/libgcc.a(_arm_fixdfsi.o)
 .debug_frame   0x0000000000000000       0x24 /home/antodom/installations/ChibiStudio/tools/GNU Tools ARM Embedded/8.3.1 2019q3/bin/../lib/gcc/arm-none-eabi/8.3.1/thumb/v7e-m/nofp/libgcc.a(_arm_fixdfsi.o)
 .ARM.attributes
                0x0000000000000000       0x1e /home/antodom/installations/ChibiStudio/tools/GNU Tools ARM Embedded/8.3.1 2019q3/bin/../lib/gcc/arm-none-eabi/8.3.1/thumb/v7e-m/nofp/libgcc.a(_arm_fixdfsi.o)
 .data          0x0000000000000000        0x0 /home/antodom/installations/ChibiStudio/tools/GNU Tools ARM Embedded/8.3.1 2019q3/bin/../lib/gcc/arm-none-eabi/8.3.1/thumb/v7e-m/nofp/libgcc.a(_aeabi_uldivmod.o)
 .bss           0x0000000000000000        0x0 /home/antodom/installations/ChibiStudio/tools/GNU Tools ARM Embedded/8.3.1 2019q3/bin/../lib/gcc/arm-none-eabi/8.3.1/thumb/v7e-m/nofp/libgcc.a(_aeabi_uldivmod.o)
 .data          0x0000000000000000        0x0 /home/antodom/installations/ChibiStudio/tools/GNU Tools ARM Embedded/8.3.1 2019q3/bin/../lib/gcc/arm-none-eabi/8.3.1/thumb/v7e-m/nofp/libgcc.a(_udivmoddi4.o)
 .bss           0x0000000000000000        0x0 /home/antodom/installations/ChibiStudio/tools/GNU Tools ARM Embedded/8.3.1 2019q3/bin/../lib/gcc/arm-none-eabi/8.3.1/thumb/v7e-m/nofp/libgcc.a(_udivmoddi4.o)
 .ARM.extab     0x0000000000000000        0x0 /home/antodom/installations/ChibiStudio/tools/GNU Tools ARM Embedded/8.3.1 2019q3/bin/../lib/gcc/arm-none-eabi/8.3.1/thumb/v7e-m/nofp/libgcc.a(_udivmoddi4.o)
 .data          0x0000000000000000        0x0 /home/antodom/installations/ChibiStudio/tools/GNU Tools ARM Embedded/8.3.1 2019q3/bin/../lib/gcc/arm-none-eabi/8.3.1/thumb/v7e-m/nofp/libgcc.a(_dvmd_tls.o)
 .bss           0x0000000000000000        0x0 /home/antodom/installations/ChibiStudio/tools/GNU Tools ARM Embedded/8.3.1 2019q3/bin/../lib/gcc/arm-none-eabi/8.3.1/thumb/v7e-m/nofp/libgcc.a(_dvmd_tls.o)

Memory Configuration

Name             Origin             Length             Attributes
flash0           0x0000000008000000 0x0000000000200000
flash1           0x0000000000000000 0x0000000000000000
flash2           0x0000000000000000 0x0000000000000000
flash3           0x0000000000000000 0x0000000000000000
flash4           0x0000000000000000 0x0000000000000000
flash5           0x0000000000000000 0x0000000000000000
flash6           0x0000000000000000 0x0000000000000000
flash7           0x0000000000000000 0x0000000000000000
ram0             0x0000000020000000 0x00000000000a0000
ram1             0x0000000020000000 0x0000000000030000
ram2             0x0000000000000000 0x0000000000010000
ram3             0x0000000000000000 0x0000000000060000
ram4             0x0000000010000000 0x0000000000010000
ram5             0x0000000000000000 0x0000000000000000
ram6             0x0000000000000000 0x0000000000000000
ram7             0x0000000000000000 0x0000000000000000
*default*        0x0000000000000000 0xffffffffffffffff

Linker script and memory map

LOAD ./build/obj/crt0_v7m.o
LOAD ./build/obj/vectors.o
LOAD ./build/obj/chcoreasm_v7m.o
LOAD /tmp/ccbVf9uwdebugobj
LOAD /tmp/ccxSiIU7.ltrans0.ltrans.o

.mstack         0x0000000020000000      0x400
                0x0000000020000000                . = ALIGN (0x8)
                0x0000000020000000                __main_stack_base__ = .
                0x0000000020000400                . = (. + __main_stack_size__)
 *fill*         0x0000000020000000      0x400 
                0x0000000020000400                . = ALIGN (0x8)
                0x0000000020000400                __main_stack_end__ = .

.pstack         0x0000000020000400      0x400
                0x0000000020000400                . = ALIGN (0x8)
                0x0000000020000400                __process_stack_base__ = .
                0x0000000020000400                __main_thread_stack_base__ = .
                0x0000000020000800                . = (. + __process_stack_size__)
 *fill*         0x0000000020000400      0x400 
                0x0000000020000800                . = ALIGN (0x8)
                0x0000000020000800                __process_stack_end__ = .
                0x0000000020000800                __main_thread_stack_end__ = .

.vectors        0x0000000008000000      0x1c0
 *(.vectors)
 .vectors       0x0000000008000000      0x1c0 ./build/obj/vectors.o
                0x0000000008000000                _vectors

.xtors          0x00000000080001c0        0xc
                0x00000000080001c0                __init_array_start = .
 *(SORT_BY_NAME(.init_array.*))
 .init_array.00000
                0x00000000080001c0        0x4 /home/antodom/installations/ChibiStudio/tools/GNU Tools ARM Embedded/8.3.1 2019q3/bin/../lib/gcc/arm-none-eabi/8.3.1/../../../../arm-none-eabi/lib/thumb/v7e-m/nofp/libg.a(lib_a-__call_atexit.o)
 *(.init_array)
 .init_array    0x00000000080001c4        0x4 /tmp/ccxSiIU7.ltrans0.ltrans.o
 .init_array    0x00000000080001c8        0x4 /home/antodom/installations/ChibiStudio/tools/GNU Tools ARM Embedded/8.3.1 2019q3/bin/../lib/gcc/arm-none-eabi/8.3.1/../../../../arm-none-eabi/lib/thumb/v7e-m/nofp/libstdc++.a(eh_alloc.o)
                0x00000000080001cc                __init_array_end = .
                0x00000000080001cc                __fini_array_start = .
 *(.fini_array)
 *(SORT_BY_NAME(.fini_array.*))
                0x00000000080001cc                __fini_array_end = .

.text           0x0000000008000200    0x11dbc
                0x0000000008000200                __text_base = .
 *(.text)
 .text          0x0000000008000200       0xd8 ./build/obj/crt0_v7m.o
                0x0000000008000200                _crt0_entry
 .text          0x00000000080002d8        0x8 ./build/obj/vectors.o
                0x00000000080002d8                Reset_Handler
                0x00000000080002da                VectorE8
                0x00000000080002da                DebugMon_Handler
                0x00000000080002da                Vector1A0
                0x00000000080002da                Vector11C
                0x00000000080002da                HardFault_Handler
                0x00000000080002da                Vector1B8
                0x00000000080002da                Vector19C
                0x00000000080002da                Vector8C
                0x00000000080002da                SysTick_Handler
                0x00000000080002da                PendSV_Handler
                0x00000000080002da                Vector168
                0x00000000080002da                NMI_Handler
                0x00000000080002da                Vector110
                0x00000000080002da                Vector120
                0x00000000080002da                VectorC8
                0x00000000080002da                Vector94
                0x00000000080002da                Vector74
                0x00000000080002da                Vector160
                0x00000000080002da                Vector1B0
                0x00000000080002da                UsageFault_Handler
                0x00000000080002da                VectorEC
                0x00000000080002da                Vector40
                0x00000000080002da                VectorF8
                0x00000000080002da                Vector108
                0x00000000080002da                VectorBC
                0x00000000080002da                Vector190
                0x00000000080002da                Vector150
                0x00000000080002da                Vector124
                0x00000000080002da                Vector148
                0x00000000080002da                Vector188
                0x00000000080002da                Vector198
                0x00000000080002da                Vector118
                0x00000000080002da                VectorCC
                0x00000000080002da                Vector54
                0x00000000080002da                Vector98
                0x00000000080002da                VectorD8
                0x00000000080002da                Vector138
                0x00000000080002da                Vector24
                0x00000000080002da                Vector1AC
                0x00000000080002da                Vector178
                0x00000000080002da                Vector84
                0x00000000080002da                Vector1A4
                0x00000000080002da                VectorD0
                0x00000000080002da                Vector1B4
                0x00000000080002da                Vector140
                0x00000000080002da                VectorE4
                0x00000000080002da                VectorC0
                0x00000000080002da                Vector130
                0x00000000080002da                Vector134
                0x00000000080002da                VectorF0
                0x00000000080002da                Vector12C
                0x00000000080002da                Vector13C
                0x00000000080002da                Vector100
                0x00000000080002da                VectorF4
                0x00000000080002da                MemManage_Handler
                0x00000000080002da                Vector6C
                0x00000000080002da                VectorC4
                0x00000000080002da                Vector7C
                0x00000000080002da                Vector180
                0x00000000080002da                Vector90
                0x00000000080002da                Vector114
                0x00000000080002da                Vector164
                0x00000000080002da                Vector1C
                0x00000000080002da                Vector1BC
                0x00000000080002da                Vector17C
                0x00000000080002da                Vector48
                0x00000000080002da                Vector1A8
                0x00000000080002da                Vector16C
                0x00000000080002da                Vector70
                0x00000000080002da                VectorD4
                0x00000000080002da                Vector4C
                0x00000000080002da                Vector144
                0x00000000080002da                Vector80
                0x00000000080002da                Vector15C
                0x00000000080002da                Vector78
                0x00000000080002da                Vector170
                0x00000000080002da                Vector88
                0x00000000080002da                Vector104
                0x00000000080002da                Vector184
                0x00000000080002da                Vector10C
                0x00000000080002da                Vector14C
                0x00000000080002da                BusFault_Handler
                0x00000000080002da                Vector50
                0x00000000080002da                Vector194
                0x00000000080002da                Vector154
                0x00000000080002da                Vector44
                0x00000000080002da                Vector28
                0x00000000080002da                VectorB8
                0x00000000080002da                VectorFC
                0x00000000080002da                Vector34
                0x00000000080002da                Vector128
                0x00000000080002da                Vector20
                0x00000000080002da                Vector18C
                0x00000000080002da                Vector174
                0x00000000080002de                _unhandled_exception
 .text          0x00000000080002e0       0x28 ./build/obj/chcoreasm_v7m.o
                0x00000000080002e0                _port_switch
                0x00000000080002f0                _port_thread_start
                0x0000000008000300                _port_switch_from_isr
                0x0000000008000304                _port_exit_from_isr
 .text          0x0000000008000308     0x686c /home/antodom/installations/ChibiStudio/tools/GNU Tools ARM Embedded/8.3.1 2019q3/bin/../lib/gcc/arm-none-eabi/8.3.1/../../../../arm-none-eabi/lib/thumb/v7e-m/nofp/libstdc++.a(cp-demangle.o)
                0x0000000008006a8c                __cxa_demangle
                0x0000000008006b50                __gcclibcxx_demangle_callback
 .text          0x0000000008006b74      0x9e0 /home/antodom/installations/ChibiStudio/tools/GNU Tools ARM Embedded/8.3.1 2019q3/bin/../lib/gcc/arm-none-eabi/8.3.1/thumb/v7e-m/nofp/libgcc.a(unwind-arm.o)
                0x0000000008006e2c                _Unwind_GetCFA
                0x0000000008006e30                __gnu_Unwind_RaiseException
                0x0000000008006e90                __gnu_Unwind_ForcedUnwind
                0x0000000008006ea4                __gnu_Unwind_Resume
                0x0000000008006ee8                __gnu_Unwind_Resume_or_Rethrow
                0x0000000008006ef8                _Unwind_Complete
                0x0000000008006efc                _Unwind_DeleteException
                0x0000000008006f08                _Unwind_VRS_Get
                0x0000000008006f4c                _Unwind_VRS_Set
                0x0000000008006f90                __gnu_Unwind_Backtrace
                0x00000000080072c8                __aeabi_unwind_cpp_pr0
                0x00000000080072cc                __aeabi_unwind_cpp_pr1
                0x00000000080072d0                __aeabi_unwind_cpp_pr2
                0x00000000080072d4                _Unwind_VRS_Pop
 .text          0x0000000008007554      0x1ac /home/antodom/installations/ChibiStudio/tools/GNU Tools ARM Embedded/8.3.1 2019q3/bin/../lib/gcc/arm-none-eabi/8.3.1/thumb/v7e-m/nofp/libgcc.a(libunwind.o)
                0x0000000008007554                __restore_core_regs
                0x0000000008007554                restore_core_regs
                0x000000000800756c                __gnu_Unwind_Restore_VFP
                0x0000000008007574                __gnu_Unwind_Save_VFP
                0x000000000800757c                __gnu_Unwind_Restore_VFP_D
                0x0000000008007584                __gnu_Unwind_Save_VFP_D
                0x000000000800758c                __gnu_Unwind_Restore_VFP_D_16_to_31
                0x0000000008007594                __gnu_Unwind_Save_VFP_D_16_to_31
                0x000000000800759c                __gnu_Unwind_Restore_WMMXD
                0x00000000080075e0                __gnu_Unwind_Save_WMMXD
                0x0000000008007624                __gnu_Unwind_Restore_WMMXC
                0x0000000008007638                __gnu_Unwind_Save_WMMXC
                0x000000000800764c                ___Unwind_RaiseException
                0x000000000800764c                _Unwind_RaiseException
                0x0000000008007670                ___Unwind_Resume
                0x0000000008007670                _Unwind_Resume
                0x0000000008007694                _Unwind_Resume_or_Rethrow
                0x0000000008007694                ___Unwind_Resume_or_Rethrow
                0x00000000080076b8                ___Unwind_ForcedUnwind
                0x00000000080076b8                _Unwind_ForcedUnwind
                0x00000000080076dc                _Unwind_Backtrace
                0x00000000080076dc                ___Unwind_Backtrace
 .text          0x0000000008007700      0x368 /home/antodom/installations/ChibiStudio/tools/GNU Tools ARM Embedded/8.3.1 2019q3/bin/../lib/gcc/arm-none-eabi/8.3.1/thumb/v7e-m/nofp/libgcc.a(pr-support.o)
                0x0000000008007758                __gnu_unwind_execute
                0x0000000008007a20                __gnu_unwind_frame
                0x0000000008007a48                _Unwind_GetRegionStart
                0x0000000008007a54                _Unwind_GetLanguageSpecificData
 *fill*         0x0000000008007a68        0x8 
 .text          0x0000000008007a70       0xa0 /home/antodom/installations/ChibiStudio/tools/GNU Tools ARM Embedded/8.3.1 2019q3/bin/../lib/gcc/arm-none-eabi/8.3.1/../../../../arm-none-eabi/lib/thumb/v7e-m/nofp/libg.a(lib_a-memchr.o)
                0x0000000008007a70                memchr
 .text          0x0000000008007b10      0x134 /home/antodom/installations/ChibiStudio/tools/GNU Tools ARM Embedded/8.3.1 2019q3/bin/../lib/gcc/arm-none-eabi/8.3.1/../../../../arm-none-eabi/lib/thumb/v7e-m/nofp/libg.a(lib_a-memcpy.o)
                0x0000000008007b10                memcpy
 *fill*         0x0000000008007c44       0x1c 
 .text          0x0000000008007c60      0x2dc /home/antodom/installations/ChibiStudio/tools/GNU Tools ARM Embedded/8.3.1 2019q3/bin/../lib/gcc/arm-none-eabi/8.3.1/../../../../arm-none-eabi/lib/thumb/v7e-m/nofp/libg.a(lib_a-strcmp.o)
                0x0000000008007c68                strcmp
 *fill*         0x0000000008007f3c        0x4 
 .text          0x0000000008007f40       0xdc /home/antodom/installations/ChibiStudio/tools/GNU Tools ARM Embedded/8.3.1 2019q3/bin/../lib/gcc/arm-none-eabi/8.3.1/../../../../arm-none-eabi/lib/thumb/v7e-m/nofp/libg.a(lib_a-strlen.o)
                0x0000000008007f40                strlen
 .text          0x000000000800801c      0x378 /home/antodom/installations/ChibiStudio/tools/GNU Tools ARM Embedded/8.3.1 2019q3/bin/../lib/gcc/arm-none-eabi/8.3.1/thumb/v7e-m/nofp/libgcc.a(_arm_addsubdf3.o)
                0x000000000800801c                __aeabi_drsub
                0x0000000008008024                __aeabi_dsub
                0x0000000008008024                __subdf3
                0x0000000008008028                __adddf3
                0x0000000008008028                __aeabi_dadd
                0x00000000080082a0                __aeabi_ui2d
                0x00000000080082a0                __floatunsidf
                0x00000000080082c0                __floatsidf
                0x00000000080082c0                __aeabi_i2d
                0x00000000080082e4                __extendsfdf2
                0x00000000080082e4                __aeabi_f2d
                0x0000000008008328                __aeabi_ul2d
                0x0000000008008328                __floatundidf
                0x0000000008008338                __floatdidf
                0x0000000008008338                __aeabi_l2d
 .text          0x0000000008008394      0x424 /home/antodom/installations/ChibiStudio/tools/GNU Tools ARM Embedded/8.3.1 2019q3/bin/../lib/gcc/arm-none-eabi/8.3.1/thumb/v7e-m/nofp/libgcc.a(_arm_muldivdf3.o)
                0x0000000008008394                __aeabi_dmul
                0x0000000008008394                __muldf3
                0x00000000080085e8                __aeabi_ddiv
                0x00000000080085e8                __divdf3
 .text          0x00000000080087b8      0x110 /home/antodom/installations/ChibiStudio/tools/GNU Tools ARM Embedded/8.3.1 2019q3/bin/../lib/gcc/arm-none-eabi/8.3.1/thumb/v7e-m/nofp/libgcc.a(_arm_cmpdf2.o)
                0x00000000080087b8                __gtdf2
                0x00000000080087b8                __gedf2
                0x00000000080087c0                __ltdf2
                0x00000000080087c0                __ledf2
                0x00000000080087c8                __cmpdf2
                0x00000000080087c8                __eqdf2
                0x00000000080087c8                __nedf2
                0x0000000008008844                __aeabi_cdrcmple
                0x0000000008008854                __aeabi_cdcmple
                0x0000000008008854                __aeabi_cdcmpeq
                0x0000000008008864                __aeabi_dcmpeq
                0x0000000008008878                __aeabi_dcmplt
                0x000000000800888c                __aeabi_dcmple
                0x00000000080088a0                __aeabi_dcmpge
                0x00000000080088b4                __aeabi_dcmpgt
 .text          0x00000000080088c8       0x2c /home/antodom/installations/ChibiStudio/tools/GNU Tools ARM Embedded/8.3.1 2019q3/bin/../lib/gcc/arm-none-eabi/8.3.1/thumb/v7e-m/nofp/libgcc.a(_arm_unorddf2.o)
                0x00000000080088c8                __aeabi_dcmpun
                0x00000000080088c8                __unorddf2
 .text          0x00000000080088f4       0x50 /home/antodom/installations/ChibiStudio/tools/GNU Tools ARM Embedded/8.3.1 2019q3/bin/../lib/gcc/arm-none-eabi/8.3.1/thumb/v7e-m/nofp/libgcc.a(_arm_fixdfsi.o)
                0x00000000080088f4                __fixdfsi
                0x00000000080088f4                __aeabi_d2iz
 .text          0x0000000008008944       0x30 /home/antodom/installations/ChibiStudio/tools/GNU Tools ARM Embedded/8.3.1 2019q3/bin/../lib/gcc/arm-none-eabi/8.3.1/thumb/v7e-m/nofp/libgcc.a(_aeabi_uldivmod.o)
                0x0000000008008944                __aeabi_uldivmod
 .text          0x0000000008008974      0x2d0 /home/antodom/installations/ChibiStudio/tools/GNU Tools ARM Embedded/8.3.1 2019q3/bin/../lib/gcc/arm-none-eabi/8.3.1/thumb/v7e-m/nofp/libgcc.a(_udivmoddi4.o)
                0x0000000008008974                __udivmoddi4
 .text          0x0000000008008c44        0x4 /home/antodom/installations/ChibiStudio/tools/GNU Tools ARM Embedded/8.3.1 2019q3/bin/../lib/gcc/arm-none-eabi/8.3.1/thumb/v7e-m/nofp/libgcc.a(_dvmd_tls.o)
                0x0000000008008c44                __aeabi_ldiv0
                0x0000000008008c44                __aeabi_idiv0
 *(.text.*)
 *fill*         0x0000000008008c48        0x8 
 .text._pal_lld_enablepadevent.constprop.31
                0x0000000008008c50       0x70 /tmp/ccxSiIU7.ltrans0.ltrans.o
 .text.chTMStartMeasurementX.constprop.25
                0x0000000008008cc0        0xc /tmp/ccxSiIU7.ltrans0.ltrans.o
 *fill*         0x0000000008008ccc        0x4 
 .text._ZL11chSysUnlockv
                0x0000000008008cd0       0x2c /tmp/ccxSiIU7.ltrans0.ltrans.o
 *fill*         0x0000000008008cfc        0x4 
 .text._ZN9soft_uart7chibios4uartIXadL_Z5GPTD1EELj256ELj256EE10_uart_ctx_D2Ev
                0x0000000008008d00        0x4 /tmp/ccxSiIU7.ltrans0.ltrans.o
 *fill*         0x0000000008008d04        0xc 
 .text._ZN9soft_uart7chibios4uartIXadL_Z5GPTD3EELj256ELj256EE10_uart_ctx_11get_rx_dataERm
                0x0000000008008d10      0x104 /tmp/ccxSiIU7.ltrans0.ltrans.o
 *fill*         0x0000000008008e14        0xc 
 .text.notify3  0x0000000008008e20       0x10 /tmp/ccxSiIU7.ltrans0.ltrans.o
 .text.notifylp1
                0x0000000008008e30       0x10 /tmp/ccxSiIU7.ltrans0.ltrans.o
 .text._port_irq_epilogue
                0x0000000008008e40       0x54 /tmp/ccxSiIU7.ltrans0.ltrans.o
 *fill*         0x0000000008008e94        0xc 
 .text.chCoreAllocAlignedI
                0x0000000008008ea0       0x34 /tmp/ccxSiIU7.ltrans0.ltrans.o
 *fill*         0x0000000008008ed4        0xc 
 .text.chCoreAllocAlignedWithOffset
                0x0000000008008ee0       0x60 /tmp/ccxSiIU7.ltrans0.ltrans.o
 .text.chTMStopMeasurementX
                0x0000000008008f40       0x48 /tmp/ccxSiIU7.ltrans0.ltrans.o
 *fill*         0x0000000008008f88        0x8 
 .text.chSchReadyAheadI
                0x0000000008008f90       0x40 /tmp/ccxSiIU7.ltrans0.ltrans.o
 .text.chSchReadyI
                0x0000000008008fd0       0x40 /tmp/ccxSiIU7.ltrans0.ltrans.o
 .text.chThdDequeueNextI.constprop.41
                0x0000000008009010       0x34 /tmp/ccxSiIU7.ltrans0.ltrans.o
 *fill*         0x0000000008009044        0xc 
 .text.chEvtBroadcastFlagsI
                0x0000000008009050       0x58 /tmp/ccxSiIU7.ltrans0.ltrans.o
 *fill*         0x00000000080090a8        0x8 
 .text.wakeup   0x00000000080090b0       0x50 /tmp/ccxSiIU7.ltrans0.ltrans.o
 .text._idle_thread
                0x0000000008009100        0x4 /tmp/ccxSiIU7.ltrans0.ltrans.o
 *fill*         0x0000000008009104        0xc 
 .text.serve_interrupt
                0x0000000008009110      0x17c /tmp/ccxSiIU7.ltrans0.ltrans.o
 *fill*         0x000000000800928c        0x4 
 .text._pal_lld_disablepadevent
                0x0000000008009290       0x7c /tmp/ccxSiIU7.ltrans0.ltrans.o
 *fill*         0x000000000800930c        0x4 
 .text._pal_lld_setgroupmode
                0x0000000008009310       0xa8 /tmp/ccxSiIU7.ltrans0.ltrans.o
 *fill*         0x00000000080093b8        0x8 
 .text._ctl     0x00000000080093c0       0x18 /tmp/ccxSiIU7.ltrans0.ltrans.o
 *fill*         0x00000000080093d8        0x8 
 .text.gptStopTimerI
                0x00000000080093e0       0x30 /tmp/ccxSiIU7.ltrans0.ltrans.o
 .text._ZN9soft_uart7chibios4uartIXadL_Z5GPTD3EELj256ELj256EE14_gpt_callback_EP9GPTDriver
                0x0000000008009410      0x1b0 /tmp/ccxSiIU7.ltrans0.ltrans.o
 .text._ZN9soft_uart7chibios4uartIXadL_Z5GPTD1EELj256ELj256EE14_gpt_callback_EP9GPTDriver
                0x00000000080095c0      0x1b0 /tmp/ccxSiIU7.ltrans0.ltrans.o
 .text.gptStartContinuousI
                0x0000000008009770       0x44 /tmp/ccxSiIU7.ltrans0.ltrans.o
 *fill*         0x00000000080097b4        0xc 
 .text._ZN9soft_uart7chibios4uartIXadL_Z5GPTD3EELj256ELj256EE13_rx_callback_EPv
                0x00000000080097c0       0x6c /tmp/ccxSiIU7.ltrans0.ltrans.o
 *fill*         0x000000000800982c        0x4 
 .text._ZN9soft_uart7chibios4uartIXadL_Z5GPTD1EELj256ELj256EE13_rx_callback_EPv
                0x0000000008009830       0x6c /tmp/ccxSiIU7.ltrans0.ltrans.o
 *fill*         0x000000000800989c        0x4 
 .text.gptStop  0x00000000080098a0       0xc4 /tmp/ccxSiIU7.ltrans0.ltrans.o
 *fill*         0x0000000008009964        0xc 
 .text._ZN9soft_uart7chibios4uartIXadL_Z5GPTD3EELj256ELj256EED2Ev
                0x0000000008009970       0x84 /tmp/ccxSiIU7.ltrans0.ltrans.o
 *fill*         0x00000000080099f4        0xc 
 .text._ZN9soft_uart7chibios4uartIXadL_Z5GPTD1EELj256ELj256EED2Ev
                0x0000000008009a00       0x84 /tmp/ccxSiIU7.ltrans0.ltrans.o
 *fill*         0x0000000008009a84        0xc 
 .text.gptStart
                0x0000000008009a90      0x11c /tmp/ccxSiIU7.ltrans0.ltrans.o
 *fill*         0x0000000008009bac        0x4 
 .text.stSetAlarm
                0x0000000008009bb0       0x20 /tmp/ccxSiIU7.ltrans0.ltrans.o
 .text.chprintf.constprop.33
                0x0000000008009bd0      0x438 /tmp/ccxSiIU7.ltrans0.ltrans.o
 *fill*         0x000000000800a008        0x8 
 .text.chSchGoSleepS
                0x000000000800a010       0x28 /tmp/ccxSiIU7.ltrans0.ltrans.o
 *fill*         0x000000000800a038        0x8 
 .text.chSchGoSleepTimeoutS
                0x000000000800a040      0x140 /tmp/ccxSiIU7.ltrans0.ltrans.o
 .text.chThdEnqueueTimeoutS
                0x000000000800a180       0x28 /tmp/ccxSiIU7.ltrans0.ltrans.o
 *fill*         0x000000000800a1a8        0x8 
 .text.oqPutTimeout
                0x000000000800a1b0       0x90 /tmp/ccxSiIU7.ltrans0.ltrans.o
 .text._putt    0x000000000800a240        0x8 /tmp/ccxSiIU7.ltrans0.ltrans.o
 *fill*         0x000000000800a248        0x8 
 .text._put     0x000000000800a250        0xc /tmp/ccxSiIU7.ltrans0.ltrans.o
 *fill*         0x000000000800a25c        0x4 
 .text.iqGetTimeout
                0x000000000800a260       0x90 /tmp/ccxSiIU7.ltrans0.ltrans.o
 .text._gett    0x000000000800a2f0        0x8 /tmp/ccxSiIU7.ltrans0.ltrans.o
 *fill*         0x000000000800a2f8        0x8 
 .text._get     0x000000000800a300        0xc /tmp/ccxSiIU7.ltrans0.ltrans.o
 *fill*         0x000000000800a30c        0x4 
 .text.oqWriteTimeout
                0x000000000800a310      0x11c /tmp/ccxSiIU7.ltrans0.ltrans.o
 *fill*         0x000000000800a42c        0x4 
 .text._writet  0x000000000800a430        0x8 /tmp/ccxSiIU7.ltrans0.ltrans.o
 *fill*         0x000000000800a438        0x8 
 .text._write   0x000000000800a440        0xc /tmp/ccxSiIU7.ltrans0.ltrans.o
 *fill*         0x000000000800a44c        0x4 
 .text.iqReadTimeout
                0x000000000800a450      0x11c /tmp/ccxSiIU7.ltrans0.ltrans.o
 *fill*         0x000000000800a56c        0x4 
 .text._readt   0x000000000800a570        0x8 /tmp/ccxSiIU7.ltrans0.ltrans.o
 *fill*         0x000000000800a578        0x8 
 .text._read    0x000000000800a580        0xc /tmp/ccxSiIU7.ltrans0.ltrans.o
 *fill*         0x000000000800a58c        0x4 
 .text.startup._GLOBAL__sub_I_my_soft_uart_1
                0x000000000800a590       0xbc /tmp/ccxSiIU7.ltrans0.ltrans.o
 *fill*         0x000000000800a64c        0x4 
 .text.boardInit
                0x000000000800a650        0x4 /tmp/ccxSiIU7.ltrans0.ltrans.o
                0x000000000800a650                _fini
 *fill*         0x000000000800a654        0xc 
 .text._kill    0x000000000800a660       0x10 /tmp/ccxSiIU7.ltrans0.ltrans.o
                0x000000000800a660                _kill
 .text._getpid  0x000000000800a670        0x4 /tmp/ccxSiIU7.ltrans0.ltrans.o
                0x000000000800a670                _getpid
 *fill*         0x000000000800a674        0xc 
 .text._exit    0x000000000800a680       0x14 /tmp/ccxSiIU7.ltrans0.ltrans.o
                0x000000000800a680                _exit
 *fill*         0x000000000800a694        0xc 
 .text._isatty_r
                0x000000000800a6a0        0x4 /tmp/ccxSiIU7.ltrans0.ltrans.o
                0x000000000800a6a0                _isatty_r
 *fill*         0x000000000800a6a4        0xc 
 .text._fstat_r
                0x000000000800a6b0       0x18 /tmp/ccxSiIU7.ltrans0.ltrans.o
                0x000000000800a6b0                _fstat_r
 *fill*         0x000000000800a6c8        0x8 
 .text._sbrk_r  0x000000000800a6d0       0x1c /tmp/ccxSiIU7.ltrans0.ltrans.o
                0x000000000800a6d0                _sbrk_r
 *fill*         0x000000000800a6ec        0x4 
 .text._close_r
                0x000000000800a6f0        0x4 /tmp/ccxSiIU7.ltrans0.ltrans.o
                0x000000000800a6f0                _close_r
 *fill*         0x000000000800a6f4        0xc 
 .text._write_r
                0x000000000800a700        0x4 /tmp/ccxSiIU7.ltrans0.ltrans.o
                0x000000000800a700                _write_r
 *fill*         0x000000000800a704        0xc 
 .text._lseek_r
                0x000000000800a710        0x4 /tmp/ccxSiIU7.ltrans0.ltrans.o
                0x000000000800a710                _lseek_r
 *fill*         0x000000000800a714        0xc 
 .text._read_r  0x000000000800a720        0xc /tmp/ccxSiIU7.ltrans0.ltrans.o
                0x000000000800a720                _read_r
 *fill*         0x000000000800a72c        0x4 
 .text.SVC_Handler
                0x000000000800a730       0x14 /tmp/ccxSiIU7.ltrans0.ltrans.o
                0x000000000800a730                SVC_Handler
 *fill*         0x000000000800a744        0xc 
 .text.chThdExit
                0x000000000800a750       0x54 /tmp/ccxSiIU7.ltrans0.ltrans.o
                0x000000000800a750                chThdExit
 *fill*         0x000000000800a7a4        0xc 
 .text.chSchDoRescheduleAhead
                0x000000000800a7b0       0x2c /tmp/ccxSiIU7.ltrans0.ltrans.o
                0x000000000800a7b0                chSchDoReschedule
 *fill*         0x000000000800a7dc        0x4 
 .text.startup.main
                0x000000000800a7e0     0x12d0 /tmp/ccxSiIU7.ltrans0.ltrans.o
                0x000000000800a7e0                main
 .text.__early_init
                0x000000000800bab0      0x258 /tmp/ccxSiIU7.ltrans0.ltrans.o
                0x000000000800bab0                __early_init
 *fill*         0x000000000800bd08        0x8 
 .text.Vector158
                0x000000000800bd10       0x14 /tmp/ccxSiIU7.ltrans0.ltrans.o
                0x000000000800bd10                Vector158
 *fill*         0x000000000800bd24        0xc 
 .text.VectorDC
                0x000000000800bd30       0x14 /tmp/ccxSiIU7.ltrans0.ltrans.o
                0x000000000800bd30                VectorDC
 *fill*         0x000000000800bd44        0xc 
 .text.VectorB4
                0x000000000800bd50       0x34 /tmp/ccxSiIU7.ltrans0.ltrans.o
                0x000000000800bd50                VectorB4
 *fill*         0x000000000800bd84        0xc 
 .text.VectorB0
                0x000000000800bd90       0xb4 /tmp/ccxSiIU7.ltrans0.ltrans.o
                0x000000000800bd90                VectorB0
 *fill*         0x000000000800be44        0xc 
 .text.VectorAC
                0x000000000800be50        0x4 /tmp/ccxSiIU7.ltrans0.ltrans.o
                0x000000000800be50                VectorAC
 *fill*         0x000000000800be54        0xc 
 .text.VectorA0
                0x000000000800be60        0x4 /tmp/ccxSiIU7.ltrans0.ltrans.o
                0x000000000800be60                VectorA0
 *fill*         0x000000000800be64        0xc 
 .text.VectorA8
                0x000000000800be70        0x4 /tmp/ccxSiIU7.ltrans0.ltrans.o
                0x000000000800be70                VectorA8
 *fill*         0x000000000800be74        0xc 
 .text.VectorA4
                0x000000000800be80       0x34 /tmp/ccxSiIU7.ltrans0.ltrans.o
                0x000000000800be80                VectorA4
 *fill*         0x000000000800beb4        0xc 
 .text.VectorE0
                0x000000000800bec0       0x74 /tmp/ccxSiIU7.ltrans0.ltrans.o
                0x000000000800bec0                VectorE0
 *fill*         0x000000000800bf34        0xc 
 .text.Vector9C
                0x000000000800bf40       0x68 /tmp/ccxSiIU7.ltrans0.ltrans.o
                0x000000000800bf40                Vector9C
 *fill*         0x000000000800bfa8        0x8 
 .text.Vector68
                0x000000000800bfb0       0x2c /tmp/ccxSiIU7.ltrans0.ltrans.o
                0x000000000800bfb0                Vector68
 *fill*         0x000000000800bfdc        0x4 
 .text.Vector64
                0x000000000800bfe0       0x2c /tmp/ccxSiIU7.ltrans0.ltrans.o
                0x000000000800bfe0                Vector64
 *fill*         0x000000000800c00c        0x4 
 .text.Vector60
                0x000000000800c010       0x2c /tmp/ccxSiIU7.ltrans0.ltrans.o
                0x000000000800c010                Vector60
 *fill*         0x000000000800c03c        0x4 
 .text.Vector5C
                0x000000000800c040       0x2c /tmp/ccxSiIU7.ltrans0.ltrans.o
                0x000000000800c040                Vector5C
 *fill*         0x000000000800c06c        0x4 
 .text.Vector58
                0x000000000800c070       0x2c /tmp/ccxSiIU7.ltrans0.ltrans.o
                0x000000000800c070                Vector58
 *fill*         0x000000000800c09c        0x4 
 .text.__init_ram_areas
                0x000000000800c0a0       0x68 /tmp/ccxSiIU7.ltrans0.ltrans.o
                0x000000000800c0a0                __init_ram_areas
 *fill*         0x000000000800c108        0x8 
 .text.__default_exit
                0x000000000800c110        0x4 /tmp/ccxSiIU7.ltrans0.ltrans.o
                0x000000000800c110                __default_exit
 *fill*         0x000000000800c114        0xc 
 .text.__late_init
                0x000000000800c120        0x4 /tmp/ccxSiIU7.ltrans0.ltrans.o
                0x000000000800c120                __late_init
 *fill*         0x000000000800c124        0xc 
 .text.__core_init
                0x000000000800c130        0x4 /tmp/ccxSiIU7.ltrans0.ltrans.o
                0x000000000800c130                __core_init
 .text._ZL28read_encoded_value_with_basehjPKhPj
                0x000000000800c134       0xcc /home/antodom/installations/ChibiStudio/tools/GNU Tools ARM Embedded/8.3.1 2019q3/bin/../lib/gcc/arm-none-eabi/8.3.1/../../../../arm-none-eabi/lib/thumb/v7e-m/nofp/libstdc++.a(eh_personality.o)
 .text._ZL21base_of_encoded_valuehP15_Unwind_Context
                0x000000000800c200       0x3c /home/antodom/installations/ChibiStudio/tools/GNU Tools ARM Embedded/8.3.1 2019q3/bin/../lib/gcc/arm-none-eabi/8.3.1/../../../../arm-none-eabi/lib/thumb/v7e-m/nofp/libstdc++.a(eh_personality.o)
 .text._ZL17parse_lsda_headerP15_Unwind_ContextPKhP16lsda_header_info
                0x000000000800c23c       0x94 /home/antodom/installations/ChibiStudio/tools/GNU Tools ARM Embedded/8.3.1 2019q3/bin/../lib/gcc/arm-none-eabi/8.3.1/../../../../arm-none-eabi/lib/thumb/v7e-m/nofp/libstdc++.a(eh_personality.o)
 .text.__gxx_personality_v0
                0x000000000800c2d0      0x478 /home/antodom/installations/ChibiStudio/tools/GNU Tools ARM Embedded/8.3.1 2019q3/bin/../lib/gcc/arm-none-eabi/8.3.1/../../../../arm-none-eabi/lib/thumb/v7e-m/nofp/libstdc++.a(eh_personality.o)
                0x000000000800c2d0                __gxx_personality_v0
 .text._ZN10__cxxabiv1L24__is_gxx_exception_classEPc
                0x000000000800c748       0x3c /home/antodom/installations/ChibiStudio/tools/GNU Tools ARM Embedded/8.3.1 2019q3/bin/../lib/gcc/arm-none-eabi/8.3.1/../../../../arm-none-eabi/lib/thumb/v7e-m/nofp/libstdc++.a(eh_call.o)
 .text.__cxa_call_terminate
                0x000000000800c784       0x20 /home/antodom/installations/ChibiStudio/tools/GNU Tools ARM Embedded/8.3.1 2019q3/bin/../lib/gcc/arm-none-eabi/8.3.1/../../../../arm-none-eabi/lib/thumb/v7e-m/nofp/libstdc++.a(eh_call.o)
                0x000000000800c784                __cxa_call_terminate
 .text.unlikely.__cxa_call_unexpected
                0x000000000800c7a4       0xd8 /home/antodom/installations/ChibiStudio/tools/GNU Tools ARM Embedded/8.3.1 2019q3/bin/../lib/gcc/arm-none-eabi/8.3.1/../../../../arm-none-eabi/lib/thumb/v7e-m/nofp/libstdc++.a(eh_call.o)
                0x000000000800c7a4                __cxa_call_unexpected
 .text.__cxa_begin_catch
                0x000000000800c87c       0x7c /home/antodom/installations/ChibiStudio/tools/GNU Tools ARM Embedded/8.3.1 2019q3/bin/../lib/gcc/arm-none-eabi/8.3.1/../../../../arm-none-eabi/lib/thumb/v7e-m/nofp/libstdc++.a(eh_catch.o)
                0x000000000800c87c                __cxa_begin_catch
 .text.__cxa_end_catch
                0x000000000800c8f8       0x88 /home/antodom/installations/ChibiStudio/tools/GNU Tools ARM Embedded/8.3.1 2019q3/bin/../lib/gcc/arm-none-eabi/8.3.1/../../../../arm-none-eabi/lib/thumb/v7e-m/nofp/libstdc++.a(eh_catch.o)
                0x000000000800c8f8                __cxa_end_catch
 .text.__cxa_get_globals_fast
                0x000000000800c980        0x8 /home/antodom/installations/ChibiStudio/tools/GNU Tools ARM Embedded/8.3.1 2019q3/bin/../lib/gcc/arm-none-eabi/8.3.1/../../../../arm-none-eabi/lib/thumb/v7e-m/nofp/libstdc++.a(eh_globals.o)
                0x000000000800c980                __cxa_get_globals_fast
 .text.__cxa_get_globals
                0x000000000800c988        0x8 /home/antodom/installations/ChibiStudio/tools/GNU Tools ARM Embedded/8.3.1 2019q3/bin/../lib/gcc/arm-none-eabi/8.3.1/../../../../arm-none-eabi/lib/thumb/v7e-m/nofp/libstdc++.a(eh_globals.o)
                0x000000000800c988                __cxa_get_globals
 .text._ZN10__cxxabiv111__terminateEPFvvE
                0x000000000800c990       0x28 /home/antodom/installations/ChibiStudio/tools/GNU Tools ARM Embedded/8.3.1 2019q3/bin/../lib/gcc/arm-none-eabi/8.3.1/../../../../arm-none-eabi/lib/thumb/v7e-m/nofp/libstdc++.a(eh_terminate.o)
                0x000000000800c990                __cxxabiv1::__terminate(void (*)())
 .text._ZSt9terminatev
                0x000000000800c9b8       0x14 /home/antodom/installations/ChibiStudio/tools/GNU Tools ARM Embedded/8.3.1 2019q3/bin/../lib/gcc/arm-none-eabi/8.3.1/../../../../arm-none-eabi/lib/thumb/v7e-m/nofp/libstdc++.a(eh_terminate.o)
                0x000000000800c9b8                std::terminate()
 .text._ZN10__cxxabiv112__unexpectedEPFvvE
                0x000000000800c9cc        0x8 /home/antodom/installations/ChibiStudio/tools/GNU Tools ARM Embedded/8.3.1 2019q3/bin/../lib/gcc/arm-none-eabi/8.3.1/../../../../arm-none-eabi/lib/thumb/v7e-m/nofp/libstdc++.a(eh_terminate.o)
                0x000000000800c9cc                __cxxabiv1::__unexpected(void (*)())
 .text._ZSt10unexpectedv
                0x000000000800c9d4       0x14 /home/antodom/installations/ChibiStudio/tools/GNU Tools ARM Embedded/8.3.1 2019q3/bin/../lib/gcc/arm-none-eabi/8.3.1/../../../../arm-none-eabi/lib/thumb/v7e-m/nofp/libstdc++.a(eh_terminate.o)
                0x000000000800c9d4                std::unexpected()
 .text._ZSt13get_terminatev
                0x000000000800c9e8       0x10 /home/antodom/installations/ChibiStudio/tools/GNU Tools ARM Embedded/8.3.1 2019q3/bin/../lib/gcc/arm-none-eabi/8.3.1/../../../../arm-none-eabi/lib/thumb/v7e-m/nofp/libstdc++.a(eh_terminate.o)
                0x000000000800c9e8                std::get_terminate()
 .text._ZSt14get_unexpectedv
                0x000000000800c9f8       0x10 /home/antodom/installations/ChibiStudio/tools/GNU Tools ARM Embedded/8.3.1 2019q3/bin/../lib/gcc/arm-none-eabi/8.3.1/../../../../arm-none-eabi/lib/thumb/v7e-m/nofp/libstdc++.a(eh_terminate.o)
                0x000000000800c9f8                std::get_unexpected()
 .text.__cxa_end_cleanup
                0x000000000800ca08        0xc /home/antodom/installations/ChibiStudio/tools/GNU Tools ARM Embedded/8.3.1 2019q3/bin/../lib/gcc/arm-none-eabi/8.3.1/../../../../arm-none-eabi/lib/thumb/v7e-m/nofp/libstdc++.a(eh_arm.o)
                0x000000000800ca08                __cxa_end_cleanup
 .text.__cxa_type_match
                0x000000000800ca14       0xbc /home/antodom/installations/ChibiStudio/tools/GNU Tools ARM Embedded/8.3.1 2019q3/bin/../lib/gcc/arm-none-eabi/8.3.1/../../../../arm-none-eabi/lib/thumb/v7e-m/nofp/libstdc++.a(eh_arm.o)
                0x000000000800ca14                __cxa_type_match
 .text.__cxa_begin_cleanup
                0x000000000800cad0       0x64 /home/antodom/installations/ChibiStudio/tools/GNU Tools ARM Embedded/8.3.1 2019q3/bin/../lib/gcc/arm-none-eabi/8.3.1/../../../../arm-none-eabi/lib/thumb/v7e-m/nofp/libstdc++.a(eh_arm.o)
                0x000000000800cad0                __cxa_begin_cleanup
 .text.__gnu_end_cleanup
                0x000000000800cb34       0x70 /home/antodom/installations/ChibiStudio/tools/GNU Tools ARM Embedded/8.3.1 2019q3/bin/../lib/gcc/arm-none-eabi/8.3.1/../../../../arm-none-eabi/lib/thumb/v7e-m/nofp/libstdc++.a(eh_arm.o)
                0x000000000800cb34                __gnu_end_cleanup
 .text.__aeabi_atexit
                0x000000000800cba4        0xc /home/antodom/installations/ChibiStudio/tools/GNU Tools ARM Embedded/8.3.1 2019q3/bin/../lib/gcc/arm-none-eabi/8.3.1/../../../../arm-none-eabi/lib/thumb/v7e-m/nofp/libstdc++.a(atexit_arm.o)
                0x000000000800cba4                __aeabi_atexit
 .text._ZL23__gxx_exception_cleanup19_Unwind_Reason_CodeP21_Unwind_Control_Block
                0x000000000800cbb0       0x44 /home/antodom/installations/ChibiStudio/tools/GNU Tools ARM Embedded/8.3.1 2019q3/bin/../lib/gcc/arm-none-eabi/8.3.1/../../../../arm-none-eabi/lib/thumb/v7e-m/nofp/libstdc++.a(eh_throw.o)
 .text.__cxa_init_primary_exception
                0x000000000800cbf4       0x58 /home/antodom/installations/ChibiStudio/tools/GNU Tools ARM Embedded/8.3.1 2019q3/bin/../lib/gcc/arm-none-eabi/8.3.1/../../../../arm-none-eabi/lib/thumb/v7e-m/nofp/libstdc++.a(eh_throw.o)
                0x000000000800cbf4                __cxa_init_primary_exception
 .text.__cxa_throw
                0x000000000800cc4c       0x38 /home/antodom/installations/ChibiStudio/tools/GNU Tools ARM Embedded/8.3.1 2019q3/bin/../lib/gcc/arm-none-eabi/8.3.1/../../../../arm-none-eabi/lib/thumb/v7e-m/nofp/libstdc++.a(eh_throw.o)
                0x000000000800cc4c                __cxa_throw
 .text.__cxa_rethrow
                0x000000000800cc84       0x70 /home/antodom/installations/ChibiStudio/tools/GNU Tools ARM Embedded/8.3.1 2019q3/bin/../lib/gcc/arm-none-eabi/8.3.1/../../../../arm-none-eabi/lib/thumb/v7e-m/nofp/libstdc++.a(eh_throw.o)
                0x000000000800cc84                __cxa_rethrow
 .text._ZNSt13bad_exceptionD2Ev
                0x000000000800ccf4        0x4 /home/antodom/installations/ChibiStudio/tools/GNU Tools ARM Embedded/8.3.1 2019q3/bin/../lib/gcc/arm-none-eabi/8.3.1/../../../../arm-none-eabi/lib/thumb/v7e-m/nofp/libstdc++.a(eh_exception.o)
                0x000000000800ccf4                std::bad_exception::~bad_exception()
                0x000000000800ccf4                std::bad_exception::~bad_exception()
 .text._ZNKSt13bad_exception4whatEv
                0x000000000800ccf8        0x8 /home/antodom/installations/ChibiStudio/tools/GNU Tools ARM Embedded/8.3.1 2019q3/bin/../lib/gcc/arm-none-eabi/8.3.1/../../../../arm-none-eabi/lib/thumb/v7e-m/nofp/libstdc++.a(eh_exception.o)
                0x000000000800ccf8                transaction clone for std::bad_exception::what() const
                0x000000000800ccf8                std::bad_exception::what() const
 .text._ZNSt13bad_exceptionD0Ev
                0x000000000800cd00       0x10 /home/antodom/installations/ChibiStudio/tools/GNU Tools ARM Embedded/8.3.1 2019q3/bin/../lib/gcc/arm-none-eabi/8.3.1/../../../../arm-none-eabi/lib/thumb/v7e-m/nofp/libstdc++.a(eh_exception.o)
                0x000000000800cd00                std::bad_exception::~bad_exception()
 .text._ZN12_GLOBAL__N_14pool4freeEPv.constprop.4
                0x000000000800cd10       0x8c /home/antodom/installations/ChibiStudio/tools/GNU Tools ARM Embedded/8.3.1 2019q3/bin/../lib/gcc/arm-none-eabi/8.3.1/../../../../arm-none-eabi/lib/thumb/v7e-m/nofp/libstdc++.a(eh_alloc.o)
 .text._ZN12_GLOBAL__N_14pool8allocateEj.constprop.5
                0x000000000800cd9c       0x64 /home/antodom/installations/ChibiStudio/tools/GNU Tools ARM Embedded/8.3.1 2019q3/bin/../lib/gcc/arm-none-eabi/8.3.1/../../../../arm-none-eabi/lib/thumb/v7e-m/nofp/libstdc++.a(eh_alloc.o)
 .text.__cxa_allocate_exception
                0x000000000800ce00       0x30 /home/antodom/installations/ChibiStudio/tools/GNU Tools ARM Embedded/8.3.1 2019q3/bin/../lib/gcc/arm-none-eabi/8.3.1/../../../../arm-none-eabi/lib/thumb/v7e-m/nofp/libstdc++.a(eh_alloc.o)
                0x000000000800ce00                __cxa_allocate_exception
 .text.__cxa_free_exception
                0x000000000800ce30       0x20 /home/antodom/installations/ChibiStudio/tools/GNU Tools ARM Embedded/8.3.1 2019q3/bin/../lib/gcc/arm-none-eabi/8.3.1/../../../../arm-none-eabi/lib/thumb/v7e-m/nofp/libstdc++.a(eh_alloc.o)
                0x000000000800ce30                __cxa_free_exception
 .text.startup._GLOBAL__sub_I__ZN9__gnu_cxx9__freeresEv
                0x000000000800ce50       0x28 /home/antodom/installations/ChibiStudio/tools/GNU Tools ARM Embedded/8.3.1 2019q3/bin/../lib/gcc/arm-none-eabi/8.3.1/../../../../arm-none-eabi/lib/thumb/v7e-m/nofp/libstdc++.a(eh_alloc.o)
 .text._ZN9__gnu_cxx27__verbose_terminate_handlerEv
                0x000000000800ce78      0x10c /home/antodom/installations/ChibiStudio/tools/GNU Tools ARM Embedded/8.3.1 2019q3/bin/../lib/gcc/arm-none-eabi/8.3.1/../../../../arm-none-eabi/lib/thumb/v7e-m/nofp/libstdc++.a(vterminate.o)
                0x000000000800ce78                __gnu_cxx::__verbose_terminate_handler()
 .text._ZdlPvj  0x000000000800cf84        0x4 /home/antodom/installations/ChibiStudio/tools/GNU Tools ARM Embedded/8.3.1 2019q3/bin/../lib/gcc/arm-none-eabi/8.3.1/../../../../arm-none-eabi/lib/thumb/v7e-m/nofp/libstdc++.a(del_ops.o)
                0x000000000800cf84                operator delete(void*, unsigned int)
 .text._ZN10__cxxabiv120__si_class_type_infoD2Ev
                0x000000000800cf88       0x14 /home/antodom/installations/ChibiStudio/tools/GNU Tools ARM Embedded/8.3.1 2019q3/bin/../lib/gcc/arm-none-eabi/8.3.1/../../../../arm-none-eabi/lib/thumb/v7e-m/nofp/libstdc++.a(si_class_type_info.o)
                0x000000000800cf88                __cxxabiv1::__si_class_type_info::~__si_class_type_info()
                0x000000000800cf88                __cxxabiv1::__si_class_type_info::~__si_class_type_info()
 .text._ZN10__cxxabiv120__si_class_type_infoD0Ev
                0x000000000800cf9c       0x1c /home/antodom/installations/ChibiStudio/tools/GNU Tools ARM Embedded/8.3.1 2019q3/bin/../lib/gcc/arm-none-eabi/8.3.1/../../../../arm-none-eabi/lib/thumb/v7e-m/nofp/libstdc++.a(si_class_type_info.o)
                0x000000000800cf9c                __cxxabiv1::__si_class_type_info::~__si_class_type_info()
 .text._ZNK10__cxxabiv120__si_class_type_info20__do_find_public_srcEiPKvPKNS_17__class_type_infoES2_
                0x000000000800cfb8       0x3c /home/antodom/installations/ChibiStudio/tools/GNU Tools ARM Embedded/8.3.1 2019q3/bin/../lib/gcc/arm-none-eabi/8.3.1/../../../../arm-none-eabi/lib/thumb/v7e-m/nofp/libstdc++.a(si_class_type_info.o)
                0x000000000800cfb8                __cxxabiv1::__si_class_type_info::__do_find_public_src(int, void const*, __cxxabiv1::__class_type_info const*, void const*) const
 .text._ZNK10__cxxabiv120__si_class_type_info12__do_dyncastEiNS_17__class_type_info10__sub_kindEPKS1_PKvS4_S6_RNS1_16__dyncast_resultE
                0x000000000800cff4       0x84 /home/antodom/installations/ChibiStudio/tools/GNU Tools ARM Embedded/8.3.1 2019q3/bin/../lib/gcc/arm-none-eabi/8.3.1/../../../../arm-none-eabi/lib/thumb/v7e-m/nofp/libstdc++.a(si_class_type_info.o)
                0x000000000800cff4                __cxxabiv1::__si_class_type_info::__do_dyncast(int, __cxxabiv1::__class_type_info::__sub_kind, __cxxabiv1::__class_type_info const*, void const*, __cxxabiv1::__class_type_info const*, void const*, __cxxabiv1::__class_type_info::__dyncast_result&) const
 .text._ZNK10__cxxabiv120__si_class_type_info11__do_upcastEPKNS_17__class_type_infoEPKvRNS1_15__upcast_resultE
                0x000000000800d078       0x2c /home/antodom/installations/ChibiStudio/tools/GNU Tools ARM Embedded/8.3.1 2019q3/bin/../lib/gcc/arm-none-eabi/8.3.1/../../../../arm-none-eabi/lib/thumb/v7e-m/nofp/libstdc++.a(si_class_type_info.o)
                0x000000000800d078                __cxxabiv1::__si_class_type_info::__do_upcast(__cxxabiv1::__class_type_info const*, void const*, __cxxabiv1::__class_type_info::__upcast_result&) const
 .text._ZNSt9type_infoD2Ev
                0x000000000800d0a4        0x4 /home/antodom/installations/ChibiStudio/tools/GNU Tools ARM Embedded/8.3.1 2019q3/bin/../lib/gcc/arm-none-eabi/8.3.1/../../../../arm-none-eabi/lib/thumb/v7e-m/nofp/libstdc++.a(tinfo.o)
                0x000000000800d0a4                std::type_info::~type_info()
                0x000000000800d0a4                std::type_info::~type_info()
 .text._ZNKSt9type_info14__is_pointer_pEv
                0x000000000800d0a8        0x4 /home/antodom/installations/ChibiStudio/tools/GNU Tools ARM Embedded/8.3.1 2019q3/bin/../lib/gcc/arm-none-eabi/8.3.1/../../../../arm-none-eabi/lib/thumb/v7e-m/nofp/libstdc++.a(tinfo.o)
                0x000000000800d0a8                std::type_info::__is_function_p() const
                0x000000000800d0a8                std::type_info::__is_pointer_p() const
 .text._ZNKSt9type_infoeqERKS_
                0x000000000800d0ac       0x2c /home/antodom/installations/ChibiStudio/tools/GNU Tools ARM Embedded/8.3.1 2019q3/bin/../lib/gcc/arm-none-eabi/8.3.1/../../../../arm-none-eabi/lib/thumb/v7e-m/nofp/libstdc++.a(tinfo.o)
                0x000000000800d0ac                std::type_info::operator==(std::type_info const&) const
 .text._ZNK10__cxxabiv117__class_type_info11__do_upcastEPKS0_PPv
                0x000000000800d0d8       0x38 /home/antodom/installations/ChibiStudio/tools/GNU Tools ARM Embedded/8.3.1 2019q3/bin/../lib/gcc/arm-none-eabi/8.3.1/../../../../arm-none-eabi/lib/thumb/v7e-m/nofp/libstdc++.a(class_type_info.o)
                0x000000000800d0d8                __cxxabiv1::__class_type_info::__do_upcast(__cxxabiv1::__class_type_info const*, void**) const
 .text._ZNK10__cxxabiv117__class_type_info20__do_find_public_srcEiPKvPKS0_S2_
                0x000000000800d110        0xc /home/antodom/installations/ChibiStudio/tools/GNU Tools ARM Embedded/8.3.1 2019q3/bin/../lib/gcc/arm-none-eabi/8.3.1/../../../../arm-none-eabi/lib/thumb/v7e-m/nofp/libstdc++.a(class_type_info.o)
                0x000000000800d110                __cxxabiv1::__class_type_info::__do_find_public_src(int, void const*, __cxxabiv1::__class_type_info const*, void const*) const
 .text._ZN10__cxxabiv117__class_type_infoD2Ev
                0x000000000800d11c       0x14 /home/antodom/installations/ChibiStudio/tools/GNU Tools ARM Embedded/8.3.1 2019q3/bin/../lib/gcc/arm-none-eabi/8.3.1/../../../../arm-none-eabi/lib/thumb/v7e-m/nofp/libstdc++.a(class_type_info.o)
                0x000000000800d11c                __cxxabiv1::__class_type_info::~__class_type_info()
                0x000000000800d11c                __cxxabiv1::__class_type_info::~__class_type_info()
 .text._ZN10__cxxabiv117__class_type_infoD0Ev
                0x000000000800d130       0x1c /home/antodom/installations/ChibiStudio/tools/GNU Tools ARM Embedded/8.3.1 2019q3/bin/../lib/gcc/arm-none-eabi/8.3.1/../../../../arm-none-eabi/lib/thumb/v7e-m/nofp/libstdc++.a(class_type_info.o)
                0x000000000800d130                __cxxabiv1::__class_type_info::~__class_type_info()
 .text._ZNK10__cxxabiv117__class_type_info12__do_dyncastEiNS0_10__sub_kindEPKS0_PKvS3_S5_RNS0_16__dyncast_resultE
                0x000000000800d14c       0x44 /home/antodom/installations/ChibiStudio/tools/GNU Tools ARM Embedded/8.3.1 2019q3/bin/../lib/gcc/arm-none-eabi/8.3.1/../../../../arm-none-eabi/lib/thumb/v7e-m/nofp/libstdc++.a(class_type_info.o)
                0x000000000800d14c                __cxxabiv1::__class_type_info::__do_dyncast(int, __cxxabiv1::__class_type_info::__sub_kind, __cxxabiv1::__class_type_info const*, void const*, __cxxabiv1::__class_type_info const*, void const*, __cxxabiv1::__class_type_info::__dyncast_result&) const
 .text._ZNK10__cxxabiv117__class_type_info11__do_upcastEPKS0_PKvRNS0_15__upcast_resultE
                0x000000000800d190       0x1c /home/antodom/installations/ChibiStudio/tools/GNU Tools ARM Embedded/8.3.1 2019q3/bin/../lib/gcc/arm-none-eabi/8.3.1/../../../../arm-none-eabi/lib/thumb/v7e-m/nofp/libstdc++.a(class_type_info.o)
                0x000000000800d190                __cxxabiv1::__class_type_info::__do_upcast(__cxxabiv1::__class_type_info const*, void const*, __cxxabiv1::__class_type_info::__upcast_result&) const
 .text._ZNK10__cxxabiv117__class_type_info10__do_catchEPKSt9type_infoPPvj
                0x000000000800d1ac       0x2c /home/antodom/installations/ChibiStudio/tools/GNU Tools ARM Embedded/8.3.1 2019q3/bin/../lib/gcc/arm-none-eabi/8.3.1/../../../../arm-none-eabi/lib/thumb/v7e-m/nofp/libstdc++.a(class_type_info.o)
                0x000000000800d1ac                __cxxabiv1::__class_type_info::__do_catch(std::type_info const*, void**, unsigned int) const
 .text.__cxa_current_exception_type
                0x000000000800d1d8       0x1c /home/antodom/installations/ChibiStudio/tools/GNU Tools ARM Embedded/8.3.1 2019q3/bin/../lib/gcc/arm-none-eabi/8.3.1/../../../../arm-none-eabi/lib/thumb/v7e-m/nofp/libstdc++.a(eh_type.o)
                0x000000000800d1d8                __cxa_current_exception_type
 .text._ZdlPv   0x000000000800d1f4        0x4 /home/antodom/installations/ChibiStudio/tools/GNU Tools ARM Embedded/8.3.1 2019q3/bin/../lib/gcc/arm-none-eabi/8.3.1/../../../../arm-none-eabi/lib/thumb/v7e-m/nofp/libstdc++.a(del_op.o)
                0x000000000800d1f4                operator delete(void*)
 .text.unlikely
                0x000000000800d1f8        0xc /home/antodom/installations/ChibiStudio/tools/GNU Tools ARM Embedded/8.3.1 2019q3/bin/../lib/gcc/arm-none-eabi/8.3.1/thumb/v7e-m/nofp/libgcc.a(pr-support.o)
                0x000000000800d1f8                _Unwind_GetDataRelBase
                0x000000000800d1fe                _Unwind_GetTextRelBase
 .text.abort    0x000000000800d204       0x10 /home/antodom/installations/ChibiStudio/tools/GNU Tools ARM Embedded/8.3.1 2019q3/bin/../lib/gcc/arm-none-eabi/8.3.1/../../../../arm-none-eabi/lib/thumb/v7e-m/nofp/libg.a(lib_a-abort.o)
                0x000000000800d204                abort
 .text.__cxa_atexit
                0x000000000800d214        0xc /home/antodom/installations/ChibiStudio/tools/GNU Tools ARM Embedded/8.3.1 2019q3/bin/../lib/gcc/arm-none-eabi/8.3.1/../../../../arm-none-eabi/lib/thumb/v7e-m/nofp/libg.a(lib_a-cxa_atexit.o)
                0x000000000800d214                __cxa_atexit
 .text.fputc    0x000000000800d220       0x58 /home/antodom/installations/ChibiStudio/tools/GNU Tools ARM Embedded/8.3.1 2019q3/bin/../lib/gcc/arm-none-eabi/8.3.1/../../../../arm-none-eabi/lib/thumb/v7e-m/nofp/libg.a(lib_a-fputc.o)
                0x000000000800d220                fputc
 .text._fputs_r
                0x000000000800d278       0x84 /home/antodom/installations/ChibiStudio/tools/GNU Tools ARM Embedded/8.3.1 2019q3/bin/../lib/gcc/arm-none-eabi/8.3.1/../../../../arm-none-eabi/lib/thumb/v7e-m/nofp/libg.a(lib_a-fputs.o)
                0x000000000800d278                _fputs_r
 .text.fputs    0x000000000800d2fc       0x10 /home/antodom/installations/ChibiStudio/tools/GNU Tools ARM Embedded/8.3.1 2019q3/bin/../lib/gcc/arm-none-eabi/8.3.1/../../../../arm-none-eabi/lib/thumb/v7e-m/nofp/libg.a(lib_a-fputs.o)
                0x000000000800d2fc                fputs
 .text.__sfvwrite_r
                0x000000000800d30c      0x308 /home/antodom/installations/ChibiStudio/tools/GNU Tools ARM Embedded/8.3.1 2019q3/bin/../lib/gcc/arm-none-eabi/8.3.1/../../../../arm-none-eabi/lib/thumb/v7e-m/nofp/libg.a(lib_a-fvwrite.o)
                0x000000000800d30c                __sfvwrite_r
 .text._fwrite_r
                0x000000000800d614       0xa8 /home/antodom/installations/ChibiStudio/tools/GNU Tools ARM Embedded/8.3.1 2019q3/bin/../lib/gcc/arm-none-eabi/8.3.1/../../../../arm-none-eabi/lib/thumb/v7e-m/nofp/libg.a(lib_a-fwrite.o)
                0x000000000800d614                _fwrite_r
 .text.fwrite   0x000000000800d6bc       0x1c /home/antodom/installations/ChibiStudio/tools/GNU Tools ARM Embedded/8.3.1 2019q3/bin/../lib/gcc/arm-none-eabi/8.3.1/../../../../arm-none-eabi/lib/thumb/v7e-m/nofp/libg.a(lib_a-fwrite.o)
                0x000000000800d6bc                fwrite
 .text.__retarget_lock_init_recursive
                0x000000000800d6d8        0x4 /home/antodom/installations/ChibiStudio/tools/GNU Tools ARM Embedded/8.3.1 2019q3/bin/../lib/gcc/arm-none-eabi/8.3.1/../../../../arm-none-eabi/lib/thumb/v7e-m/nofp/libg.a(lib_a-lock.o)
                0x000000000800d6d8                __retarget_lock_init_recursive
 .text.__retarget_lock_close_recursive
                0x000000000800d6dc        0x4 /home/antodom/installations/ChibiStudio/tools/GNU Tools ARM Embedded/8.3.1 2019q3/bin/../lib/gcc/arm-none-eabi/8.3.1/../../../../arm-none-eabi/lib/thumb/v7e-m/nofp/libg.a(lib_a-lock.o)
                0x000000000800d6dc                __retarget_lock_close_recursive
 .text.__retarget_lock_acquire_recursive
                0x000000000800d6e0        0x4 /home/antodom/installations/ChibiStudio/tools/GNU Tools ARM Embedded/8.3.1 2019q3/bin/../lib/gcc/arm-none-eabi/8.3.1/../../../../arm-none-eabi/lib/thumb/v7e-m/nofp/libg.a(lib_a-lock.o)
                0x000000000800d6e0                __retarget_lock_acquire_recursive
 .text.__retarget_lock_release_recursive
                0x000000000800d6e4        0x4 /home/antodom/installations/ChibiStudio/tools/GNU Tools ARM Embedded/8.3.1 2019q3/bin/../lib/gcc/arm-none-eabi/8.3.1/../../../../arm-none-eabi/lib/thumb/v7e-m/nofp/libg.a(lib_a-lock.o)
                0x000000000800d6e4                __retarget_lock_release_recursive
 .text.malloc   0x000000000800d6e8       0x10 /home/antodom/installations/ChibiStudio/tools/GNU Tools ARM Embedded/8.3.1 2019q3/bin/../lib/gcc/arm-none-eabi/8.3.1/../../../../arm-none-eabi/lib/thumb/v7e-m/nofp/libg.a(lib_a-malloc.o)
                0x000000000800d6e8                malloc
 .text.free     0x000000000800d6f8       0x10 /home/antodom/installations/ChibiStudio/tools/GNU Tools ARM Embedded/8.3.1 2019q3/bin/../lib/gcc/arm-none-eabi/8.3.1/../../../../arm-none-eabi/lib/thumb/v7e-m/nofp/libg.a(lib_a-malloc.o)
                0x000000000800d6f8                free
 .text._malloc_r
                0x000000000800d708      0x570 /home/antodom/installations/ChibiStudio/tools/GNU Tools ARM Embedded/8.3.1 2019q3/bin/../lib/gcc/arm-none-eabi/8.3.1/../../../../arm-none-eabi/lib/thumb/v7e-m/nofp/libg.a(lib_a-mallocr.o)
                0x000000000800d708                _malloc_r
 .text.memcmp   0x000000000800dc78       0x60 /home/antodom/installations/ChibiStudio/tools/GNU Tools ARM Embedded/8.3.1 2019q3/bin/../lib/gcc/arm-none-eabi/8.3.1/../../../../arm-none-eabi/lib/thumb/v7e-m/nofp/libg.a(lib_a-memcmp.o)
                0x000000000800dc78                memcmp
 .text.memmove  0x000000000800dcd8       0xd0 /home/antodom/installations/ChibiStudio/tools/GNU Tools ARM Embedded/8.3.1 2019q3/bin/../lib/gcc/arm-none-eabi/8.3.1/../../../../arm-none-eabi/lib/thumb/v7e-m/nofp/libg.a(lib_a-memmove.o)
                0x000000000800dcd8                memmove
 .text.memset   0x000000000800dda8       0xa0 /home/antodom/installations/ChibiStudio/tools/GNU Tools ARM Embedded/8.3.1 2019q3/bin/../lib/gcc/arm-none-eabi/8.3.1/../../../../arm-none-eabi/lib/thumb/v7e-m/nofp/libg.a(lib_a-memset.o)
                0x000000000800dda8                memset
 .text.__malloc_lock
                0x000000000800de48        0xc /home/antodom/installations/ChibiStudio/tools/GNU Tools ARM Embedded/8.3.1 2019q3/bin/../lib/gcc/arm-none-eabi/8.3.1/../../../../arm-none-eabi/lib/thumb/v7e-m/nofp/libg.a(lib_a-mlock.o)
                0x000000000800de48                __malloc_lock
 .text.__malloc_unlock
                0x000000000800de54        0xc /home/antodom/installations/ChibiStudio/tools/GNU Tools ARM Embedded/8.3.1 2019q3/bin/../lib/gcc/arm-none-eabi/8.3.1/../../../../arm-none-eabi/lib/thumb/v7e-m/nofp/libg.a(lib_a-mlock.o)
                0x000000000800de54                __malloc_unlock
 .text._putc_r  0x000000000800de60       0x74 /home/antodom/installations/ChibiStudio/tools/GNU Tools ARM Embedded/8.3.1 2019q3/bin/../lib/gcc/arm-none-eabi/8.3.1/../../../../arm-none-eabi/lib/thumb/v7e-m/nofp/libg.a(lib_a-putc.o)
                0x000000000800de60                _putc_r
 .text.realloc  0x000000000800ded4       0x10 /home/antodom/installations/ChibiStudio/tools/GNU Tools ARM Embedded/8.3.1 2019q3/bin/../lib/gcc/arm-none-eabi/8.3.1/../../../../arm-none-eabi/lib/thumb/v7e-m/nofp/libg.a(lib_a-realloc.o)
                0x000000000800ded4                realloc
 .text._realloc_r
                0x000000000800dee4      0x36c /home/antodom/installations/ChibiStudio/tools/GNU Tools ARM Embedded/8.3.1 2019q3/bin/../lib/gcc/arm-none-eabi/8.3.1/../../../../arm-none-eabi/lib/thumb/v7e-m/nofp/libg.a(lib_a-reallocr.o)
                0x000000000800dee4                _realloc_r
 .text._raise_r
                0x000000000800e250       0x58 /home/antodom/installations/ChibiStudio/tools/GNU Tools ARM Embedded/8.3.1 2019q3/bin/../lib/gcc/arm-none-eabi/8.3.1/../../../../arm-none-eabi/lib/thumb/v7e-m/nofp/libg.a(lib_a-signal.o)
                0x000000000800e250                _raise_r
 .text.raise    0x000000000800e2a8       0x10 /home/antodom/installations/ChibiStudio/tools/GNU Tools ARM Embedded/8.3.1 2019q3/bin/../lib/gcc/arm-none-eabi/8.3.1/../../../../arm-none-eabi/lib/thumb/v7e-m/nofp/libg.a(lib_a-signal.o)
                0x000000000800e2a8                raise
 .text._kill_r  0x000000000800e2b8       0x28 /home/antodom/installations/ChibiStudio/tools/GNU Tools ARM Embedded/8.3.1 2019q3/bin/../lib/gcc/arm-none-eabi/8.3.1/../../../../arm-none-eabi/lib/thumb/v7e-m/nofp/libg.a(lib_a-signalr.o)
                0x000000000800e2b8                _kill_r
 .text._getpid_r
                0x000000000800e2e0        0x4 /home/antodom/installations/ChibiStudio/tools/GNU Tools ARM Embedded/8.3.1 2019q3/bin/../lib/gcc/arm-none-eabi/8.3.1/../../../../arm-none-eabi/lib/thumb/v7e-m/nofp/libg.a(lib_a-signalr.o)
                0x000000000800e2e0                _getpid_r
 .text.sprintf  0x000000000800e2e4       0x44 /home/antodom/installations/ChibiStudio/tools/GNU Tools ARM Embedded/8.3.1 2019q3/bin/../lib/gcc/arm-none-eabi/8.3.1/../../../../arm-none-eabi/lib/thumb/v7e-m/nofp/libg.a(lib_a-sprintf.o)
                0x000000000800e2e4                sprintf
 .text.strncmp  0x000000000800e328       0xa4 /home/antodom/installations/ChibiStudio/tools/GNU Tools ARM Embedded/8.3.1 2019q3/bin/../lib/gcc/arm-none-eabi/8.3.1/../../../../arm-none-eabi/lib/thumb/v7e-m/nofp/libg.a(lib_a-strncmp.o)
                0x000000000800e328                strncmp
 .text._svfprintf_r
                0x000000000800e3cc     0x19e0 /home/antodom/installations/ChibiStudio/tools/GNU Tools ARM Embedded/8.3.1 2019q3/bin/../lib/gcc/arm-none-eabi/8.3.1/../../../../arm-none-eabi/lib/thumb/v7e-m/nofp/libg.a(lib_a-svfprintf.o)
                0x000000000800e3cc                _svfprintf_r
 .text.__swbuf_r
                0x000000000800fdac       0xb0 /home/antodom/installations/ChibiStudio/tools/GNU Tools ARM Embedded/8.3.1 2019q3/bin/../lib/gcc/arm-none-eabi/8.3.1/../../../../arm-none-eabi/lib/thumb/v7e-m/nofp/libg.a(lib_a-wbuf.o)
                0x000000000800fdac                __swbuf_r
 .text.__swsetup_r
                0x000000000800fe5c       0xd0 /home/antodom/installations/ChibiStudio/tools/GNU Tools ARM Embedded/8.3.1 2019q3/bin/../lib/gcc/arm-none-eabi/8.3.1/../../../../arm-none-eabi/lib/thumb/v7e-m/nofp/libg.a(lib_a-wsetup.o)
                0x000000000800fe5c                __swsetup_r
 .text.__register_exitproc
                0x000000000800ff2c       0x88 /home/antodom/installations/ChibiStudio/tools/GNU Tools ARM Embedded/8.3.1 2019q3/bin/../lib/gcc/arm-none-eabi/8.3.1/../../../../arm-none-eabi/lib/thumb/v7e-m/nofp/libg.a(lib_a-__atexit.o)
                0x000000000800ff2c                __register_exitproc
 .text.startup.register_fini
                0x000000000800ffb4       0x14 /home/antodom/installations/ChibiStudio/tools/GNU Tools ARM Embedded/8.3.1 2019q3/bin/../lib/gcc/arm-none-eabi/8.3.1/../../../../arm-none-eabi/lib/thumb/v7e-m/nofp/libg.a(lib_a-__call_atexit.o)
 .text.atexit   0x000000000800ffc8        0xc /home/antodom/installations/ChibiStudio/tools/GNU Tools ARM Embedded/8.3.1 2019q3/bin/../lib/gcc/arm-none-eabi/8.3.1/../../../../arm-none-eabi/lib/thumb/v7e-m/nofp/libg.a(lib_a-atexit.o)
                0x000000000800ffc8                atexit
 .text.quorem   0x000000000800ffd4      0x124 /home/antodom/installations/ChibiStudio/tools/GNU Tools ARM Embedded/8.3.1 2019q3/bin/../lib/gcc/arm-none-eabi/8.3.1/../../../../arm-none-eabi/lib/thumb/v7e-m/nofp/libg.a(lib_a-dtoa.o)
 .text._dtoa_r  0x00000000080100f8      0xe60 /home/antodom/installations/ChibiStudio/tools/GNU Tools ARM Embedded/8.3.1 2019q3/bin/../lib/gcc/arm-none-eabi/8.3.1/../../../../arm-none-eabi/lib/thumb/v7e-m/nofp/libg.a(lib_a-dtoa.o)
                0x00000000080100f8                _dtoa_r
 .text.__sflush_r
                0x0000000008010f58      0x14c /home/antodom/installations/ChibiStudio/tools/GNU Tools ARM Embedded/8.3.1 2019q3/bin/../lib/gcc/arm-none-eabi/8.3.1/../../../../arm-none-eabi/lib/thumb/v7e-m/nofp/libg.a(lib_a-fflush.o)
                0x0000000008010f58                __sflush_r
 .text._fflush_r
                0x00000000080110a4       0x5c /home/antodom/installations/ChibiStudio/tools/GNU Tools ARM Embedded/8.3.1 2019q3/bin/../lib/gcc/arm-none-eabi/8.3.1/../../../../arm-none-eabi/lib/thumb/v7e-m/nofp/libg.a(lib_a-fflush.o)
                0x00000000080110a4                _fflush_r
 .text.std      0x0000000008011100       0x50 /home/antodom/installations/ChibiStudio/tools/GNU Tools ARM Embedded/8.3.1 2019q3/bin/../lib/gcc/arm-none-eabi/8.3.1/../../../../arm-none-eabi/lib/thumb/v7e-m/nofp/libg.a(lib_a-findfp.o)
 .text._cleanup_r
                0x0000000008011150        0xc /home/antodom/installations/ChibiStudio/tools/GNU Tools ARM Embedded/8.3.1 2019q3/bin/../lib/gcc/arm-none-eabi/8.3.1/../../../../arm-none-eabi/lib/thumb/v7e-m/nofp/libg.a(lib_a-findfp.o)
                0x0000000008011150                _cleanup_r
 .text.__sinit  0x000000000801115c       0x54 /home/antodom/installations/ChibiStudio/tools/GNU Tools ARM Embedded/8.3.1 2019q3/bin/../lib/gcc/arm-none-eabi/8.3.1/../../../../arm-none-eabi/lib/thumb/v7e-m/nofp/libg.a(lib_a-findfp.o)
                0x000000000801115c                __sinit
 .text.__sfp_lock_acquire
                0x00000000080111b0        0xc /home/antodom/installations/ChibiStudio/tools/GNU Tools ARM Embedded/8.3.1 2019q3/bin/../lib/gcc/arm-none-eabi/8.3.1/../../../../arm-none-eabi/lib/thumb/v7e-m/nofp/libg.a(lib_a-findfp.o)
                0x00000000080111b0                __sfp_lock_acquire
 .text.__sfp_lock_release
                0x00000000080111bc        0xc /home/antodom/installations/ChibiStudio/tools/GNU Tools ARM Embedded/8.3.1 2019q3/bin/../lib/gcc/arm-none-eabi/8.3.1/../../../../arm-none-eabi/lib/thumb/v7e-m/nofp/libg.a(lib_a-findfp.o)
                0x00000000080111bc                __sfp_lock_release
 .text.__libc_fini_array
                0x00000000080111c8       0x34 /home/antodom/installations/ChibiStudio/tools/GNU Tools ARM Embedded/8.3.1 2019q3/bin/../lib/gcc/arm-none-eabi/8.3.1/../../../../arm-none-eabi/lib/thumb/v7e-m/nofp/libg.a(lib_a-fini.o)
                0x00000000080111c8                __libc_fini_array
 .text._malloc_trim_r
                0x00000000080111fc       0xa0 /home/antodom/installations/ChibiStudio/tools/GNU Tools ARM Embedded/8.3.1 2019q3/bin/../lib/gcc/arm-none-eabi/8.3.1/../../../../arm-none-eabi/lib/thumb/v7e-m/nofp/libg.a(lib_a-freer.o)
                0x00000000080111fc                _malloc_trim_r
 .text._free_r  0x000000000801129c      0x1f4 /home/antodom/installations/ChibiStudio/tools/GNU Tools ARM Embedded/8.3.1 2019q3/bin/../lib/gcc/arm-none-eabi/8.3.1/../../../../arm-none-eabi/lib/thumb/v7e-m/nofp/libg.a(lib_a-freer.o)
                0x000000000801129c                _free_r
 .text._fwalk_reent
                0x0000000008011490       0x54 /home/antodom/installations/ChibiStudio/tools/GNU Tools ARM Embedded/8.3.1 2019q3/bin/../lib/gcc/arm-none-eabi/8.3.1/../../../../arm-none-eabi/lib/thumb/v7e-m/nofp/libg.a(lib_a-fwalk.o)
                0x0000000008011490                _fwalk_reent
 .text._localeconv_r
                0x00000000080114e4        0x8 /home/antodom/installations/ChibiStudio/tools/GNU Tools ARM Embedded/8.3.1 2019q3/bin/../lib/gcc/arm-none-eabi/8.3.1/../../../../arm-none-eabi/lib/thumb/v7e-m/nofp/libg.a(lib_a-localeconv.o)
                0x00000000080114e4                _localeconv_r
 .text.__swhatbuf_r
                0x00000000080114ec       0x5c /home/antodom/installations/ChibiStudio/tools/GNU Tools ARM Embedded/8.3.1 2019q3/bin/../lib/gcc/arm-none-eabi/8.3.1/../../../../arm-none-eabi/lib/thumb/v7e-m/nofp/libg.a(lib_a-makebuf.o)
                0x00000000080114ec                __swhatbuf_r
 .text.__smakebuf_r
                0x0000000008011548       0x94 /home/antodom/installations/ChibiStudio/tools/GNU Tools ARM Embedded/8.3.1 2019q3/bin/../lib/gcc/arm-none-eabi/8.3.1/../../../../arm-none-eabi/lib/thumb/v7e-m/nofp/libg.a(lib_a-makebuf.o)
                0x0000000008011548                __smakebuf_r
 .text._Balloc  0x00000000080115dc       0x4c /home/antodom/installations/ChibiStudio/tools/GNU Tools ARM Embedded/8.3.1 2019q3/bin/../lib/gcc/arm-none-eabi/8.3.1/../../../../arm-none-eabi/lib/thumb/v7e-m/nofp/libg.a(lib_a-mprec.o)
                0x00000000080115dc                _Balloc
 .text._Bfree   0x0000000008011628       0x14 /home/antodom/installations/ChibiStudio/tools/GNU Tools ARM Embedded/8.3.1 2019q3/bin/../lib/gcc/arm-none-eabi/8.3.1/../../../../arm-none-eabi/lib/thumb/v7e-m/nofp/libg.a(lib_a-mprec.o)
                0x0000000008011628                _Bfree
 .text.__multadd
                0x000000000801163c       0x8c /home/antodom/installations/ChibiStudio/tools/GNU Tools ARM Embedded/8.3.1 2019q3/bin/../lib/gcc/arm-none-eabi/8.3.1/../../../../arm-none-eabi/lib/thumb/v7e-m/nofp/libg.a(lib_a-mprec.o)
                0x000000000801163c                __multadd
 .text.__hi0bits
                0x00000000080116c8       0x40 /home/antodom/installations/ChibiStudio/tools/GNU Tools ARM Embedded/8.3.1 2019q3/bin/../lib/gcc/arm-none-eabi/8.3.1/../../../../arm-none-eabi/lib/thumb/v7e-m/nofp/libg.a(lib_a-mprec.o)
                0x00000000080116c8                __hi0bits
 .text.__lo0bits
                0x0000000008011708       0x60 /home/antodom/installations/ChibiStudio/tools/GNU Tools ARM Embedded/8.3.1 2019q3/bin/../lib/gcc/arm-none-eabi/8.3.1/../../../../arm-none-eabi/lib/thumb/v7e-m/nofp/libg.a(lib_a-mprec.o)
                0x0000000008011708                __lo0bits
 .text.__i2b    0x0000000008011768       0x14 /home/antodom/installations/ChibiStudio/tools/GNU Tools ARM Embedded/8.3.1 2019q3/bin/../lib/gcc/arm-none-eabi/8.3.1/../../../../arm-none-eabi/lib/thumb/v7e-m/nofp/libg.a(lib_a-mprec.o)
                0x0000000008011768                __i2b
 .text.__multiply
                0x000000000801177c      0x130 /home/antodom/installations/ChibiStudio/tools/GNU Tools ARM Embedded/8.3.1 2019q3/bin/../lib/gcc/arm-none-eabi/8.3.1/../../../../arm-none-eabi/lib/thumb/v7e-m/nofp/libg.a(lib_a-mprec.o)
                0x000000000801177c                __multiply
 .text.__pow5mult
                0x00000000080118ac       0xa0 /home/antodom/installations/ChibiStudio/tools/GNU Tools ARM Embedded/8.3.1 2019q3/bin/../lib/gcc/arm-none-eabi/8.3.1/../../../../arm-none-eabi/lib/thumb/v7e-m/nofp/libg.a(lib_a-mprec.o)
                0x00000000080118ac                __pow5mult
 .text.__lshift
                0x000000000801194c       0xb4 /home/antodom/installations/ChibiStudio/tools/GNU Tools ARM Embedded/8.3.1 2019q3/bin/../lib/gcc/arm-none-eabi/8.3.1/../../../../arm-none-eabi/lib/thumb/v7e-m/nofp/libg.a(lib_a-mprec.o)
                0x000000000801194c                __lshift
 .text.__mcmp   0x0000000008011a00       0x38 /home/antodom/installations/ChibiStudio/tools/GNU Tools ARM Embedded/8.3.1 2019q3/bin/../lib/gcc/arm-none-eabi/8.3.1/../../../../arm-none-eabi/lib/thumb/v7e-m/nofp/libg.a(lib_a-mprec.o)
                0x0000000008011a00                __mcmp
 .text.__mdiff  0x0000000008011a38       0xf8 /home/antodom/installations/ChibiStudio/tools/GNU Tools ARM Embedded/8.3.1 2019q3/bin/../lib/gcc/arm-none-eabi/8.3.1/../../../../arm-none-eabi/lib/thumb/v7e-m/nofp/libg.a(lib_a-mprec.o)
                0x0000000008011a38                __mdiff
 .text.__d2b    0x0000000008011b30       0xac /home/antodom/installations/ChibiStudio/tools/GNU Tools ARM Embedded/8.3.1 2019q3/bin/../lib/gcc/arm-none-eabi/8.3.1/../../../../arm-none-eabi/lib/thumb/v7e-m/nofp/libg.a(lib_a-mprec.o)
                0x0000000008011b30                __d2b
 .text.frexp    0x0000000008011bdc       0x70 /home/antodom/installations/ChibiStudio/tools/GNU Tools ARM Embedded/8.3.1 2019q3/bin/../lib/gcc/arm-none-eabi/8.3.1/../../../../arm-none-eabi/lib/thumb/v7e-m/nofp/libg.a(lib_a-s_frexp.o)
                0x0000000008011bdc                frexp
 .text.__sread  0x0000000008011c4c       0x24 /home/antodom/installations/ChibiStudio/tools/GNU Tools ARM Embedded/8.3.1 2019q3/bin/../lib/gcc/arm-none-eabi/8.3.1/../../../../arm-none-eabi/lib/thumb/v7e-m/nofp/libg.a(lib_a-stdio.o)
                0x0000000008011c4c                __sread
 .text.__swrite
                0x0000000008011c70       0x40 /home/antodom/installations/ChibiStudio/tools/GNU Tools ARM Embedded/8.3.1 2019q3/bin/../lib/gcc/arm-none-eabi/8.3.1/../../../../arm-none-eabi/lib/thumb/v7e-m/nofp/libg.a(lib_a-stdio.o)
                0x0000000008011c70                __swrite
 .text.__sseek  0x0000000008011cb0       0x20 /home/antodom/installations/ChibiStudio/tools/GNU Tools ARM Embedded/8.3.1 2019q3/bin/../lib/gcc/arm-none-eabi/8.3.1/../../../../arm-none-eabi/lib/thumb/v7e-m/nofp/libg.a(lib_a-stdio.o)
                0x0000000008011cb0                __sseek
 .text.__sclose
                0x0000000008011cd0        0x8 /home/antodom/installations/ChibiStudio/tools/GNU Tools ARM Embedded/8.3.1 2019q3/bin/../lib/gcc/arm-none-eabi/8.3.1/../../../../arm-none-eabi/lib/thumb/v7e-m/nofp/libg.a(lib_a-stdio.o)
                0x0000000008011cd0                __sclose
 .text.strncpy  0x0000000008011cd8       0x74 /home/antodom/installations/ChibiStudio/tools/GNU Tools ARM Embedded/8.3.1 2019q3/bin/../lib/gcc/arm-none-eabi/8.3.1/../../../../arm-none-eabi/lib/thumb/v7e-m/nofp/libg.a(lib_a-strncpy.o)
                0x0000000008011cd8                strncpy
 .text.__ssprint_r
                0x0000000008011d4c       0xf8 /home/antodom/installations/ChibiStudio/tools/GNU Tools ARM Embedded/8.3.1 2019q3/bin/../lib/gcc/arm-none-eabi/8.3.1/../../../../arm-none-eabi/lib/thumb/v7e-m/nofp/libg.a(lib_a-svfiprintf.o)
                0x0000000008011d4c                __ssprint_r
 .text._calloc_r
                0x0000000008011e44       0x60 /home/antodom/installations/ChibiStudio/tools/GNU Tools ARM Embedded/8.3.1 2019q3/bin/../lib/gcc/arm-none-eabi/8.3.1/../../../../arm-none-eabi/lib/thumb/v7e-m/nofp/libg.a(lib_a-callocr.o)
                0x0000000008011e44                _calloc_r
 .text._fclose_r
                0x0000000008011ea4       0xd0 /home/antodom/installations/ChibiStudio/tools/GNU Tools ARM Embedded/8.3.1 2019q3/bin/../lib/gcc/arm-none-eabi/8.3.1/../../../../arm-none-eabi/lib/thumb/v7e-m/nofp/libg.a(lib_a-fclose.o)
                0x0000000008011ea4                _fclose_r
 .text.__ascii_mbtowc
                0x0000000008011f74       0x2c /home/antodom/installations/ChibiStudio/tools/GNU Tools ARM Embedded/8.3.1 2019q3/bin/../lib/gcc/arm-none-eabi/8.3.1/../../../../arm-none-eabi/lib/thumb/v7e-m/nofp/libg.a(lib_a-mbtowc_r.o)
                0x0000000008011f74                __ascii_mbtowc
 .text.__ascii_wctomb
                0x0000000008011fa0       0x1c /home/antodom/installations/ChibiStudio/tools/GNU Tools ARM Embedded/8.3.1 2019q3/bin/../lib/gcc/arm-none-eabi/8.3.1/../../../../arm-none-eabi/lib/thumb/v7e-m/nofp/libg.a(lib_a-wctomb_r.o)
                0x0000000008011fa0                __ascii_wctomb
 *(.glue_7t)
 .glue_7t       0x0000000008011fbc        0x0 linker stubs
 *(.glue_7)
 .glue_7        0x0000000008011fbc        0x0 linker stubs
 *(.gcc*)
                0x0000000008011fbc                __text_end = .

.vfp11_veneer   0x0000000008011fbc        0x0
 .vfp11_veneer  0x0000000008011fbc        0x0 linker stubs

.v4_bx          0x0000000008011fbc        0x0
 .v4_bx         0x0000000008011fbc        0x0 linker stubs

.iplt           0x0000000008011fbc        0x0
 .iplt          0x0000000008011fbc        0x0 ./build/obj/crt0_v7m.o

.rodata         0x0000000008011fc0     0x185c
                0x0000000008011fc0                __rodata_base__ = .
 *(.rodata)
 .rodata        0x0000000008011fc0      0x79d /home/antodom/installations/ChibiStudio/tools/GNU Tools ARM Embedded/8.3.1 2019q3/bin/../lib/gcc/arm-none-eabi/8.3.1/../../../../arm-none-eabi/lib/thumb/v7e-m/nofp/libstdc++.a(cp-demangle.o)
 *(.rodata.*)
 *fill*         0x000000000801275d        0x3 
 .rodata._ZN9soft_uart7chibios4uartIXadL_Z5GPTD1EELj256ELj256EE12_gpt_config_E
                0x0000000008012760       0x10 /tmp/ccxSiIU7.ltrans0.ltrans.o
 .rodata._ZN9soft_uart7chibios4uartIXadL_Z5GPTD3EELj256ELj256EE12_gpt_config_E
                0x0000000008012770       0x10 /tmp/ccxSiIU7.ltrans0.ltrans.o
 .rodata._ZZL11chSysUnlockvE8__func__
                0x0000000008012780        0xc /tmp/ccxSiIU7.ltrans0.ltrans.o
 .rodata.__func__.6340.lto_priv.53
                0x000000000801278c        0xc /tmp/ccxSiIU7.ltrans0.ltrans.o
 .rodata.__func__.6340.lto_priv.54
                0x0000000008012798        0xc /tmp/ccxSiIU7.ltrans0.ltrans.o
 .rodata.__func__.6340.lto_priv.55
                0x00000000080127a4        0xc /tmp/ccxSiIU7.ltrans0.ltrans.o
 .rodata.__func__.6340.lto_priv.56
                0x00000000080127b0        0xc /tmp/ccxSiIU7.ltrans0.ltrans.o
 .rodata.__func__.6340.lto_priv.57
                0x00000000080127bc        0xc /tmp/ccxSiIU7.ltrans0.ltrans.o
 .rodata.__func__.6340.lto_priv.58
                0x00000000080127c8        0xc /tmp/ccxSiIU7.ltrans0.ltrans.o
 .rodata.__func__.6426
                0x00000000080127d4        0xc /tmp/ccxSiIU7.ltrans0.ltrans.o
 .rodata.__func__.6537
                0x00000000080127e0       0x14 /tmp/ccxSiIU7.ltrans0.ltrans.o
 .rodata.__func__.6742.lto_priv.63
                0x00000000080127f4        0xc /tmp/ccxSiIU7.ltrans0.ltrans.o
 .rodata.__func__.6742.lto_priv.64
                0x0000000008012800        0xc /tmp/ccxSiIU7.ltrans0.ltrans.o
 .rodata.__func__.7329
                0x000000000801280c        0xc /tmp/ccxSiIU7.ltrans0.ltrans.o
 .rodata.__func__.7332.lto_priv.61
                0x0000000008012818        0xb /tmp/ccxSiIU7.ltrans0.ltrans.o
 *fill*         0x0000000008012823        0x1 
 .rodata.__func__.7332.lto_priv.62
                0x0000000008012824        0xb /tmp/ccxSiIU7.ltrans0.ltrans.o
 *fill*         0x000000000801282f        0x1 
 .rodata.__func__.7336
                0x0000000008012830       0x11 /tmp/ccxSiIU7.ltrans0.ltrans.o
 *fill*         0x0000000008012841        0x3 
 .rodata.__func__.7343
                0x0000000008012844        0xc /tmp/ccxSiIU7.ltrans0.ltrans.o
 .rodata.__func__.7354
                0x0000000008012850        0xb /tmp/ccxSiIU7.ltrans0.ltrans.o
 *fill*         0x000000000801285b        0x1 
 .rodata.__func__.7355
                0x000000000801285c        0xc /tmp/ccxSiIU7.ltrans0.ltrans.o
 .rodata.__func__.7364.lto_priv.59
                0x0000000008012868        0xd /tmp/ccxSiIU7.ltrans0.ltrans.o
 *fill*         0x0000000008012875        0x3 
 .rodata.__func__.7364.lto_priv.60
                0x0000000008012878        0xd /tmp/ccxSiIU7.ltrans0.ltrans.o
 *fill*         0x0000000008012885        0x3 
 .rodata.__func__.7379
                0x0000000008012888        0xb /tmp/ccxSiIU7.ltrans0.ltrans.o
 *fill*         0x0000000008012893        0x1 
 .rodata.__func__.7732
                0x0000000008012894       0x10 /tmp/ccxSiIU7.ltrans0.ltrans.o
 .rodata.__func__.8093
                0x00000000080128a4        0xd /tmp/ccxSiIU7.ltrans0.ltrans.o
 *fill*         0x00000000080128b1        0x3 
 .rodata.__func__.8097
                0x00000000080128b4        0x9 /tmp/ccxSiIU7.ltrans0.ltrans.o
 *fill*         0x00000000080128bd        0x3 
 .rodata.__func__.8099
                0x00000000080128c0        0xe /tmp/ccxSiIU7.ltrans0.ltrans.o
 *fill*         0x00000000080128ce        0x2 
 .rodata.__func__.8100
                0x00000000080128d0        0xb /tmp/ccxSiIU7.ltrans0.ltrans.o
 *fill*         0x00000000080128db        0x1 
 .rodata.__func__.8101
                0x00000000080128dc        0x8 /tmp/ccxSiIU7.ltrans0.ltrans.o
 .rodata.__func__.8115
                0x00000000080128e4       0x14 /tmp/ccxSiIU7.ltrans0.ltrans.o
 .rodata.__func__.8123
                0x00000000080128f8       0x18 /tmp/ccxSiIU7.ltrans0.ltrans.o
 .rodata.__func__.8131.lto_priv.65
                0x0000000008012910        0xe /tmp/ccxSiIU7.ltrans0.ltrans.o
 *fill*         0x000000000801291e        0x2 
 .rodata.__func__.8131.lto_priv.66
                0x0000000008012920        0x5 /tmp/ccxSiIU7.ltrans0.ltrans.o
 *fill*         0x0000000008012925        0x3 
 .rodata.__func__.8135
                0x0000000008012928       0x19 /tmp/ccxSiIU7.ltrans0.ltrans.o
 *fill*         0x0000000008012941        0x3 
 .rodata.__func__.8147
                0x0000000008012944        0x8 /tmp/ccxSiIU7.ltrans0.ltrans.o
 .rodata._exit.str1.4
                0x000000000801294c        0xb /tmp/ccxSiIU7.ltrans0.ltrans.o
 *fill*         0x0000000008012957        0x1 
 .rodata.ch_debug
                0x0000000008012958       0x16 /tmp/ccxSiIU7.ltrans0.ltrans.o
 .rodata.chprintf.constprop.33.str1.4
                0x000000000801296e        0x7 /tmp/ccxSiIU7.ltrans0.ltrans.o
 *fill*         0x000000000801296e        0x2 
 .rodata.main.str1.4
                0x0000000008012970      0x100 /tmp/ccxSiIU7.ltrans0.ltrans.o
                                         0xfd (size before relaxing)
 .rodata.ram_areas
                0x0000000008012a70       0x80 /tmp/ccxSiIU7.ltrans0.ltrans.o
 .rodata.vmt    0x0000000008012af0       0x28 /tmp/ccxSiIU7.ltrans0.ltrans.o
 .rodata._ZNKSt13bad_exception4whatEv.str1.4
                0x0000000008012b18       0x13 /home/antodom/installations/ChibiStudio/tools/GNU Tools ARM Embedded/8.3.1 2019q3/bin/../lib/gcc/arm-none-eabi/8.3.1/../../../../arm-none-eabi/lib/thumb/v7e-m/nofp/libstdc++.a(eh_exception.o)
 *fill*         0x0000000008012b2b        0x1 
 .rodata._ZTIN10__cxxabiv115__forced_unwindE
                0x0000000008012b2c        0x8 /home/antodom/installations/ChibiStudio/tools/GNU Tools ARM Embedded/8.3.1 2019q3/bin/../lib/gcc/arm-none-eabi/8.3.1/../../../../arm-none-eabi/lib/thumb/v7e-m/nofp/libstdc++.a(eh_exception.o)
                0x0000000008012b2c                typeinfo for __cxxabiv1::__forced_unwind
 .rodata._ZTIN10__cxxabiv119__foreign_exceptionE
                0x0000000008012b34        0x8 /home/antodom/installations/ChibiStudio/tools/GNU Tools ARM Embedded/8.3.1 2019q3/bin/../lib/gcc/arm-none-eabi/8.3.1/../../../../arm-none-eabi/lib/thumb/v7e-m/nofp/libstdc++.a(eh_exception.o)
                0x0000000008012b34                typeinfo for __cxxabiv1::__foreign_exception
 .rodata._ZTISt13bad_exception
                0x0000000008012b3c        0xc /home/antodom/installations/ChibiStudio/tools/GNU Tools ARM Embedded/8.3.1 2019q3/bin/../lib/gcc/arm-none-eabi/8.3.1/../../../../arm-none-eabi/lib/thumb/v7e-m/nofp/libstdc++.a(eh_exception.o)
                0x0000000008012b3c                typeinfo for std::bad_exception
 .rodata._ZTISt9exception
                0x0000000008012b48        0x8 /home/antodom/installations/ChibiStudio/tools/GNU Tools ARM Embedded/8.3.1 2019q3/bin/../lib/gcc/arm-none-eabi/8.3.1/../../../../arm-none-eabi/lib/thumb/v7e-m/nofp/libstdc++.a(eh_exception.o)
                0x0000000008012b48                typeinfo for std::exception
 .rodata._ZTSN10__cxxabiv115__forced_unwindE
                0x0000000008012b50       0x20 /home/antodom/installations/ChibiStudio/tools/GNU Tools ARM Embedded/8.3.1 2019q3/bin/../lib/gcc/arm-none-eabi/8.3.1/../../../../arm-none-eabi/lib/thumb/v7e-m/nofp/libstdc++.a(eh_exception.o)
                0x0000000008012b50                typeinfo name for __cxxabiv1::__forced_unwind
 .rodata._ZTSN10__cxxabiv119__foreign_exceptionE
                0x0000000008012b70       0x24 /home/antodom/installations/ChibiStudio/tools/GNU Tools ARM Embedded/8.3.1 2019q3/bin/../lib/gcc/arm-none-eabi/8.3.1/../../../../arm-none-eabi/lib/thumb/v7e-m/nofp/libstdc++.a(eh_exception.o)
                0x0000000008012b70                typeinfo name for __cxxabiv1::__foreign_exception
 .rodata._ZTSSt13bad_exception
                0x0000000008012b94       0x12 /home/antodom/installations/ChibiStudio/tools/GNU Tools ARM Embedded/8.3.1 2019q3/bin/../lib/gcc/arm-none-eabi/8.3.1/../../../../arm-none-eabi/lib/thumb/v7e-m/nofp/libstdc++.a(eh_exception.o)
                0x0000000008012b94                typeinfo name for std::bad_exception
 *fill*         0x0000000008012ba6        0x2 
 .rodata._ZTSSt9exception
                0x0000000008012ba8        0xd /home/antodom/installations/ChibiStudio/tools/GNU Tools ARM Embedded/8.3.1 2019q3/bin/../lib/gcc/arm-none-eabi/8.3.1/../../../../arm-none-eabi/lib/thumb/v7e-m/nofp/libstdc++.a(eh_exception.o)
                0x0000000008012ba8                typeinfo name for std::exception
 *fill*         0x0000000008012bb5        0x3 
 .rodata._ZTVSt13bad_exception
                0x0000000008012bb8       0x14 /home/antodom/installations/ChibiStudio/tools/GNU Tools ARM Embedded/8.3.1 2019q3/bin/../lib/gcc/arm-none-eabi/8.3.1/../../../../arm-none-eabi/lib/thumb/v7e-m/nofp/libstdc++.a(eh_exception.o)
                0x0000000008012bb8                vtable for std::bad_exception
 .rodata._ZN9__gnu_cxx27__verbose_terminate_handlerEv.str1.4
                0x0000000008012bcc       0x94 /home/antodom/installations/ChibiStudio/tools/GNU Tools ARM Embedded/8.3.1 2019q3/bin/../lib/gcc/arm-none-eabi/8.3.1/../../../../arm-none-eabi/lib/thumb/v7e-m/nofp/libstdc++.a(vterminate.o)
 .rodata.str1.4
                0x0000000008012c60      0x862 /home/antodom/installations/ChibiStudio/tools/GNU Tools ARM Embedded/8.3.1 2019q3/bin/../lib/gcc/arm-none-eabi/8.3.1/../../../../arm-none-eabi/lib/thumb/v7e-m/nofp/libstdc++.a(cp-demangle.o)
                                        0x8b2 (size before relaxing)
 *fill*         0x00000000080134c2        0x2 
 .rodata._ZTIN10__cxxabiv120__si_class_type_infoE
                0x00000000080134c4        0xc /home/antodom/installations/ChibiStudio/tools/GNU Tools ARM Embedded/8.3.1 2019q3/bin/../lib/gcc/arm-none-eabi/8.3.1/../../../../arm-none-eabi/lib/thumb/v7e-m/nofp/libstdc++.a(si_class_type_info.o)
                0x00000000080134c4                typeinfo for __cxxabiv1::__si_class_type_info
 .rodata._ZTSN10__cxxabiv120__si_class_type_infoE
                0x00000000080134d0       0x25 /home/antodom/installations/ChibiStudio/tools/GNU Tools ARM Embedded/8.3.1 2019q3/bin/../lib/gcc/arm-none-eabi/8.3.1/../../../../arm-none-eabi/lib/thumb/v7e-m/nofp/libstdc++.a(si_class_type_info.o)
                0x00000000080134d0                typeinfo name for __cxxabiv1::__si_class_type_info
 *fill*         0x00000000080134f5        0x3 
 .rodata._ZTVN10__cxxabiv120__si_class_type_infoE
                0x00000000080134f8       0x2c /home/antodom/installations/ChibiStudio/tools/GNU Tools ARM Embedded/8.3.1 2019q3/bin/../lib/gcc/arm-none-eabi/8.3.1/../../../../arm-none-eabi/lib/thumb/v7e-m/nofp/libstdc++.a(si_class_type_info.o)
                0x00000000080134f8                vtable for __cxxabiv1::__si_class_type_info
 .rodata._ZTISt9type_info
                0x0000000008013524        0x8 /home/antodom/installations/ChibiStudio/tools/GNU Tools ARM Embedded/8.3.1 2019q3/bin/../lib/gcc/arm-none-eabi/8.3.1/../../../../arm-none-eabi/lib/thumb/v7e-m/nofp/libstdc++.a(tinfo.o)
                0x0000000008013524                typeinfo for std::type_info
 .rodata._ZTSSt9type_info
                0x000000000801352c        0xd /home/antodom/installations/ChibiStudio/tools/GNU Tools ARM Embedded/8.3.1 2019q3/bin/../lib/gcc/arm-none-eabi/8.3.1/../../../../arm-none-eabi/lib/thumb/v7e-m/nofp/libstdc++.a(tinfo.o)
                0x000000000801352c                typeinfo name for std::type_info
 *fill*         0x0000000008013539        0x3 
 .rodata._ZTIN10__cxxabiv117__class_type_infoE
                0x000000000801353c        0xc /home/antodom/installations/ChibiStudio/tools/GNU Tools ARM Embedded/8.3.1 2019q3/bin/../lib/gcc/arm-none-eabi/8.3.1/../../../../arm-none-eabi/lib/thumb/v7e-m/nofp/libstdc++.a(class_type_info.o)
                0x000000000801353c                typeinfo for __cxxabiv1::__class_type_info
 .rodata._ZTSN10__cxxabiv117__class_type_infoE
                0x0000000008013548       0x22 /home/antodom/installations/ChibiStudio/tools/GNU Tools ARM Embedded/8.3.1 2019q3/bin/../lib/gcc/arm-none-eabi/8.3.1/../../../../arm-none-eabi/lib/thumb/v7e-m/nofp/libstdc++.a(class_type_info.o)
                0x0000000008013548                typeinfo name for __cxxabiv1::__class_type_info
 *fill*         0x000000000801356a        0x2 
 .rodata._ZTVN10__cxxabiv117__class_type_infoE
                0x000000000801356c       0x2c /home/antodom/installations/ChibiStudio/tools/GNU Tools ARM Embedded/8.3.1 2019q3/bin/../lib/gcc/arm-none-eabi/8.3.1/../../../../arm-none-eabi/lib/thumb/v7e-m/nofp/libstdc++.a(class_type_info.o)
                0x000000000801356c                vtable for __cxxabiv1::__class_type_info
 .rodata._global_impure_ptr
                0x0000000008013598        0x4 /home/antodom/installations/ChibiStudio/tools/GNU Tools ARM Embedded/8.3.1 2019q3/bin/../lib/gcc/arm-none-eabi/8.3.1/../../../../arm-none-eabi/lib/thumb/v7e-m/nofp/libg.a(lib_a-impure.o)
                0x0000000008013598                _global_impure_ptr
 .rodata._svfprintf_r.str1.4
                0x000000000801359c       0x42 /home/antodom/installations/ChibiStudio/tools/GNU Tools ARM Embedded/8.3.1 2019q3/bin/../lib/gcc/arm-none-eabi/8.3.1/../../../../arm-none-eabi/lib/thumb/v7e-m/nofp/libg.a(lib_a-svfprintf.o)
 *fill*         0x00000000080135de        0x2 
 .rodata.blanks.7355
                0x00000000080135e0       0x10 /home/antodom/installations/ChibiStudio/tools/GNU Tools ARM Embedded/8.3.1 2019q3/bin/../lib/gcc/arm-none-eabi/8.3.1/../../../../arm-none-eabi/lib/thumb/v7e-m/nofp/libg.a(lib_a-svfprintf.o)
 .rodata.zeroes.7356
                0x00000000080135f0       0x10 /home/antodom/installations/ChibiStudio/tools/GNU Tools ARM Embedded/8.3.1 2019q3/bin/../lib/gcc/arm-none-eabi/8.3.1/../../../../arm-none-eabi/lib/thumb/v7e-m/nofp/libg.a(lib_a-svfprintf.o)
 .rodata._dtoa_r.str1.4
                0x0000000008013600        0xd /home/antodom/installations/ChibiStudio/tools/GNU Tools ARM Embedded/8.3.1 2019q3/bin/../lib/gcc/arm-none-eabi/8.3.1/../../../../arm-none-eabi/lib/thumb/v7e-m/nofp/libg.a(lib_a-dtoa.o)
                                         0x12 (size before relaxing)
 *fill*         0x000000000801360d        0x3 
 .rodata.__mprec_bigtens
                0x0000000008013610       0x28 /home/antodom/installations/ChibiStudio/tools/GNU Tools ARM Embedded/8.3.1 2019q3/bin/../lib/gcc/arm-none-eabi/8.3.1/../../../../arm-none-eabi/lib/thumb/v7e-m/nofp/libg.a(lib_a-mprec.o)
                0x0000000008013610                __mprec_bigtens
 .rodata.__mprec_tens
                0x0000000008013638       0xc8 /home/antodom/installations/ChibiStudio/tools/GNU Tools ARM Embedded/8.3.1 2019q3/bin/../lib/gcc/arm-none-eabi/8.3.1/../../../../arm-none-eabi/lib/thumb/v7e-m/nofp/libg.a(lib_a-mprec.o)
                0x0000000008013638                __mprec_tens
 .rodata.p05.6125
                0x0000000008013700        0xc /home/antodom/installations/ChibiStudio/tools/GNU Tools ARM Embedded/8.3.1 2019q3/bin/../lib/gcc/arm-none-eabi/8.3.1/../../../../arm-none-eabi/lib/thumb/v7e-m/nofp/libg.a(lib_a-mprec.o)
 .rodata._setlocale_r.str1.4
                0x000000000801370c        0xa /home/antodom/installations/ChibiStudio/tools/GNU Tools ARM Embedded/8.3.1 2019q3/bin/../lib/gcc/arm-none-eabi/8.3.1/../../../../arm-none-eabi/lib/thumb/v7e-m/nofp/libg.a(lib_a-locale.o)
                                          0xd (size before relaxing)
 .rodata.str1.4
                0x0000000008013716        0x2 /home/antodom/installations/ChibiStudio/tools/GNU Tools ARM Embedded/8.3.1 2019q3/bin/../lib/gcc/arm-none-eabi/8.3.1/../../../../arm-none-eabi/lib/thumb/v7e-m/nofp/libg.a(lib_a-locale.o)
 *fill*         0x0000000008013716        0x2 
 .rodata._ctype_
                0x0000000008013718      0x101 /home/antodom/installations/ChibiStudio/tools/GNU Tools ARM Embedded/8.3.1 2019q3/bin/../lib/gcc/arm-none-eabi/8.3.1/../../../../arm-none-eabi/lib/thumb/v7e-m/nofp/libg.a(lib_a-ctype_.o)
                0x0000000008013718                _ctype_
                0x000000000801381c                . = ALIGN (0x4)
 *fill*         0x0000000008013819        0x3 
                0x000000000801381c                __rodata_end__ = .

.ARM.extab      0x000000000801381c       0xf0
 *(.ARM.extab* .gnu.linkonce.armextab.*)
 .ARM.extab.text._ZL21base_of_encoded_valuehP15_Unwind_Context
                0x000000000801381c        0xc /home/antodom/installations/ChibiStudio/tools/GNU Tools ARM Embedded/8.3.1 2019q3/bin/../lib/gcc/arm-none-eabi/8.3.1/../../../../arm-none-eabi/lib/thumb/v7e-m/nofp/libstdc++.a(eh_personality.o)
 .ARM.extab.text.__gxx_personality_v0
                0x0000000008013828       0x24 /home/antodom/installations/ChibiStudio/tools/GNU Tools ARM Embedded/8.3.1 2019q3/bin/../lib/gcc/arm-none-eabi/8.3.1/../../../../arm-none-eabi/lib/thumb/v7e-m/nofp/libstdc++.a(eh_personality.o)
 .ARM.extab.text.unlikely.__cxa_call_unexpected
                0x000000000801384c       0x24 /home/antodom/installations/ChibiStudio/tools/GNU Tools ARM Embedded/8.3.1 2019q3/bin/../lib/gcc/arm-none-eabi/8.3.1/../../../../arm-none-eabi/lib/thumb/v7e-m/nofp/libstdc++.a(eh_call.o)
 .ARM.extab.text.__cxa_begin_catch
                0x0000000008013870        0xc /home/antodom/installations/ChibiStudio/tools/GNU Tools ARM Embedded/8.3.1 2019q3/bin/../lib/gcc/arm-none-eabi/8.3.1/../../../../arm-none-eabi/lib/thumb/v7e-m/nofp/libstdc++.a(eh_catch.o)
 .ARM.extab.text._ZN10__cxxabiv111__terminateEPFvvE
                0x000000000801387c       0x2c /home/antodom/installations/ChibiStudio/tools/GNU Tools ARM Embedded/8.3.1 2019q3/bin/../lib/gcc/arm-none-eabi/8.3.1/../../../../arm-none-eabi/lib/thumb/v7e-m/nofp/libstdc++.a(eh_terminate.o)
 .ARM.extab.text._ZN10__cxxabiv112__unexpectedEPFvvE
                0x00000000080138a8        0xc /home/antodom/installations/ChibiStudio/tools/GNU Tools ARM Embedded/8.3.1 2019q3/bin/../lib/gcc/arm-none-eabi/8.3.1/../../../../arm-none-eabi/lib/thumb/v7e-m/nofp/libstdc++.a(eh_terminate.o)
 .ARM.extab.text._ZSt10unexpectedv
                0x00000000080138b4        0xc /home/antodom/installations/ChibiStudio/tools/GNU Tools ARM Embedded/8.3.1 2019q3/bin/../lib/gcc/arm-none-eabi/8.3.1/../../../../arm-none-eabi/lib/thumb/v7e-m/nofp/libstdc++.a(eh_terminate.o)
 .ARM.extab.text._ZN9__gnu_cxx27__verbose_terminate_handlerEv
                0x00000000080138c0       0x34 /home/antodom/installations/ChibiStudio/tools/GNU Tools ARM Embedded/8.3.1 2019q3/bin/../lib/gcc/arm-none-eabi/8.3.1/../../../../arm-none-eabi/lib/thumb/v7e-m/nofp/libstdc++.a(vterminate.o)
 .ARM.extab     0x00000000080138f4       0x18 /home/antodom/installations/ChibiStudio/tools/GNU Tools ARM Embedded/8.3.1 2019q3/bin/../lib/gcc/arm-none-eabi/8.3.1/thumb/v7e-m/nofp/libgcc.a(pr-support.o)

.ARM.exidx      0x000000000801390c      0x198
                0x000000000801390c                __exidx_start = .
 *(.ARM.exidx* .gnu.linkonce.armexidx.*)
 .ARM.exidx.text._ZL11chSysUnlockv
                0x00000000080139c4        0x0 /tmp/ccxSiIU7.ltrans0.ltrans.o
                                          0x8 (size before relaxing)
 .ARM.exidx.text._ZN9soft_uart7chibios4uartIXadL_Z5GPTD1EELj256ELj256EE10_uart_ctx_D2Ev
                0x00000000080139c4        0x0 /tmp/ccxSiIU7.ltrans0.ltrans.o
                                          0x8 (size before relaxing)
 .ARM.exidx.text._ZN9soft_uart7chibios4uartIXadL_Z5GPTD3EELj256ELj256EE10_uart_ctx_11get_rx_dataERm
                0x00000000080139c4        0x0 /tmp/ccxSiIU7.ltrans0.ltrans.o
                                          0x8 (size before relaxing)
 .ARM.exidx.text._ZN9soft_uart7chibios4uartIXadL_Z5GPTD3EELj256ELj256EE14_gpt_callback_EP9GPTDriver
                0x00000000080139c4        0x0 /tmp/ccxSiIU7.ltrans0.ltrans.o
                                          0x8 (size before relaxing)
 .ARM.exidx.text._ZN9soft_uart7chibios4uartIXadL_Z5GPTD1EELj256ELj256EE14_gpt_callback_EP9GPTDriver
                0x00000000080139c4        0x0 /tmp/ccxSiIU7.ltrans0.ltrans.o
                                          0x8 (size before relaxing)
 .ARM.exidx.text._ZN9soft_uart7chibios4uartIXadL_Z5GPTD3EELj256ELj256EE13_rx_callback_EPv
                0x00000000080139c4        0x0 /tmp/ccxSiIU7.ltrans0.ltrans.o
                                          0x8 (size before relaxing)
 .ARM.exidx.text._ZN9soft_uart7chibios4uartIXadL_Z5GPTD1EELj256ELj256EE13_rx_callback_EPv
                0x00000000080139c4        0x0 /tmp/ccxSiIU7.ltrans0.ltrans.o
                                          0x8 (size before relaxing)
 .ARM.exidx.text._ZN9soft_uart7chibios4uartIXadL_Z5GPTD3EELj256ELj256EED2Ev
                0x00000000080139c4        0x0 /tmp/ccxSiIU7.ltrans0.ltrans.o
                                          0x8 (size before relaxing)
 .ARM.exidx.text._ZN9soft_uart7chibios4uartIXadL_Z5GPTD1EELj256ELj256EED2Ev
                0x00000000080139c4        0x0 /tmp/ccxSiIU7.ltrans0.ltrans.o
                                          0x8 (size before relaxing)
 .ARM.exidx.text.startup._GLOBAL__sub_I_my_soft_uart_1
                0x00000000080139c4        0x0 /tmp/ccxSiIU7.ltrans0.ltrans.o
                                          0x8 (size before relaxing)
 .ARM.exidx.text._kill
                0x00000000080139c4        0x0 /tmp/ccxSiIU7.ltrans0.ltrans.o
                                          0x8 (size before relaxing)
 .ARM.exidx.text._getpid
                0x00000000080139c4        0x0 /tmp/ccxSiIU7.ltrans0.ltrans.o
                                          0x8 (size before relaxing)
 .ARM.exidx.text._exit
                0x00000000080139c4        0x0 /tmp/ccxSiIU7.ltrans0.ltrans.o
                                          0x8 (size before relaxing)
 .ARM.exidx.text.startup.main
                0x00000000080139c4       0x10 /tmp/ccxSiIU7.ltrans0.ltrans.o
                                          0x8 (size before relaxing)
 .ARM.exidx.text._ZL28read_encoded_value_with_basehjPKhPj
                0x00000000080139d4        0x8 /home/antodom/installations/ChibiStudio/tools/GNU Tools ARM Embedded/8.3.1 2019q3/bin/../lib/gcc/arm-none-eabi/8.3.1/../../../../arm-none-eabi/lib/thumb/v7e-m/nofp/libstdc++.a(eh_personality.o)
 .ARM.exidx.text._ZL21base_of_encoded_valuehP15_Unwind_Context
                0x00000000080139dc        0x8 /home/antodom/installations/ChibiStudio/tools/GNU Tools ARM Embedded/8.3.1 2019q3/bin/../lib/gcc/arm-none-eabi/8.3.1/../../../../arm-none-eabi/lib/thumb/v7e-m/nofp/libstdc++.a(eh_personality.o)
 .ARM.exidx.text._ZL17parse_lsda_headerP15_Unwind_ContextPKhP16lsda_header_info
                0x00000000080139e4        0x8 /home/antodom/installations/ChibiStudio/tools/GNU Tools ARM Embedded/8.3.1 2019q3/bin/../lib/gcc/arm-none-eabi/8.3.1/../../../../arm-none-eabi/lib/thumb/v7e-m/nofp/libstdc++.a(eh_personality.o)
 .ARM.exidx.text.__gxx_personality_v0
                0x00000000080139ec        0x8 /home/antodom/installations/ChibiStudio/tools/GNU Tools ARM Embedded/8.3.1 2019q3/bin/../lib/gcc/arm-none-eabi/8.3.1/../../../../arm-none-eabi/lib/thumb/v7e-m/nofp/libstdc++.a(eh_personality.o)
 .ARM.exidx.text._ZN10__cxxabiv1L24__is_gxx_exception_classEPc
                0x00000000080139f4        0x8 /home/antodom/installations/ChibiStudio/tools/GNU Tools ARM Embedded/8.3.1 2019q3/bin/../lib/gcc/arm-none-eabi/8.3.1/../../../../arm-none-eabi/lib/thumb/v7e-m/nofp/libstdc++.a(eh_call.o)
 .ARM.exidx.text.__cxa_call_terminate
                0x00000000080139fc        0x0 /home/antodom/installations/ChibiStudio/tools/GNU Tools ARM Embedded/8.3.1 2019q3/bin/../lib/gcc/arm-none-eabi/8.3.1/../../../../arm-none-eabi/lib/thumb/v7e-m/nofp/libstdc++.a(eh_call.o)
                                          0x8 (size before relaxing)
 .ARM.exidx.text.unlikely.__cxa_call_unexpected
                0x00000000080139fc        0x8 /home/antodom/installations/ChibiStudio/tools/GNU Tools ARM Embedded/8.3.1 2019q3/bin/../lib/gcc/arm-none-eabi/8.3.1/../../../../arm-none-eabi/lib/thumb/v7e-m/nofp/libstdc++.a(eh_call.o)
 .ARM.exidx.text.__cxa_begin_catch
                0x0000000008013a04        0x8 /home/antodom/installations/ChibiStudio/tools/GNU Tools ARM Embedded/8.3.1 2019q3/bin/../lib/gcc/arm-none-eabi/8.3.1/../../../../arm-none-eabi/lib/thumb/v7e-m/nofp/libstdc++.a(eh_catch.o)
 .ARM.exidx.text.__cxa_end_catch
                0x0000000008013a0c        0x8 /home/antodom/installations/ChibiStudio/tools/GNU Tools ARM Embedded/8.3.1 2019q3/bin/../lib/gcc/arm-none-eabi/8.3.1/../../../../arm-none-eabi/lib/thumb/v7e-m/nofp/libstdc++.a(eh_catch.o)
 .ARM.exidx.text.__cxa_get_globals_fast
                0x0000000008013a14        0x0 /home/antodom/installations/ChibiStudio/tools/GNU Tools ARM Embedded/8.3.1 2019q3/bin/../lib/gcc/arm-none-eabi/8.3.1/../../../../arm-none-eabi/lib/thumb/v7e-m/nofp/libstdc++.a(eh_globals.o)
                                          0x8 (size before relaxing)
 .ARM.exidx.text.__cxa_get_globals
                0x0000000008013a14        0x0 /home/antodom/installations/ChibiStudio/tools/GNU Tools ARM Embedded/8.3.1 2019q3/bin/../lib/gcc/arm-none-eabi/8.3.1/../../../../arm-none-eabi/lib/thumb/v7e-m/nofp/libstdc++.a(eh_globals.o)
                                          0x8 (size before relaxing)
 .ARM.exidx.text._ZN10__cxxabiv111__terminateEPFvvE
                0x0000000008013a14        0x8 /home/antodom/installations/ChibiStudio/tools/GNU Tools ARM Embedded/8.3.1 2019q3/bin/../lib/gcc/arm-none-eabi/8.3.1/../../../../arm-none-eabi/lib/thumb/v7e-m/nofp/libstdc++.a(eh_terminate.o)
 .ARM.exidx.text._ZSt9terminatev
                0x0000000008013a1c        0x8 /home/antodom/installations/ChibiStudio/tools/GNU Tools ARM Embedded/8.3.1 2019q3/bin/../lib/gcc/arm-none-eabi/8.3.1/../../../../arm-none-eabi/lib/thumb/v7e-m/nofp/libstdc++.a(eh_terminate.o)
 .ARM.exidx.text._ZN10__cxxabiv112__unexpectedEPFvvE
                0x0000000008013a24        0x8 /home/antodom/installations/ChibiStudio/tools/GNU Tools ARM Embedded/8.3.1 2019q3/bin/../lib/gcc/arm-none-eabi/8.3.1/../../../../arm-none-eabi/lib/thumb/v7e-m/nofp/libstdc++.a(eh_terminate.o)
 .ARM.exidx.text._ZSt10unexpectedv
                0x0000000008013a2c        0x8 /home/antodom/installations/ChibiStudio/tools/GNU Tools ARM Embedded/8.3.1 2019q3/bin/../lib/gcc/arm-none-eabi/8.3.1/../../../../arm-none-eabi/lib/thumb/v7e-m/nofp/libstdc++.a(eh_terminate.o)
 .ARM.exidx.text._ZSt13get_terminatev
                0x0000000008013a34        0x8 /home/antodom/installations/ChibiStudio/tools/GNU Tools ARM Embedded/8.3.1 2019q3/bin/../lib/gcc/arm-none-eabi/8.3.1/../../../../arm-none-eabi/lib/thumb/v7e-m/nofp/libstdc++.a(eh_terminate.o)
 .ARM.exidx.text._ZSt14get_unexpectedv
                0x0000000008013a3c        0x0 /home/antodom/installations/ChibiStudio/tools/GNU Tools ARM Embedded/8.3.1 2019q3/bin/../lib/gcc/arm-none-eabi/8.3.1/../../../../arm-none-eabi/lib/thumb/v7e-m/nofp/libstdc++.a(eh_terminate.o)
                                          0x8 (size before relaxing)
 .ARM.exidx.text.__cxa_type_match
                0x0000000008013a3c        0x8 /home/antodom/installations/ChibiStudio/tools/GNU Tools ARM Embedded/8.3.1 2019q3/bin/../lib/gcc/arm-none-eabi/8.3.1/../../../../arm-none-eabi/lib/thumb/v7e-m/nofp/libstdc++.a(eh_arm.o)
 .ARM.exidx.text.__cxa_begin_cleanup
                0x0000000008013a44        0x8 /home/antodom/installations/ChibiStudio/tools/GNU Tools ARM Embedded/8.3.1 2019q3/bin/../lib/gcc/arm-none-eabi/8.3.1/../../../../arm-none-eabi/lib/thumb/v7e-m/nofp/libstdc++.a(eh_arm.o)
 .ARM.exidx.text.__gnu_end_cleanup
                0x0000000008013a4c        0x0 /home/antodom/installations/ChibiStudio/tools/GNU Tools ARM Embedded/8.3.1 2019q3/bin/../lib/gcc/arm-none-eabi/8.3.1/../../../../arm-none-eabi/lib/thumb/v7e-m/nofp/libstdc++.a(eh_arm.o)
                                          0x8 (size before relaxing)
 .ARM.exidx.text.__aeabi_atexit
                0x0000000008013a4c        0x0 /home/antodom/installations/ChibiStudio/tools/GNU Tools ARM Embedded/8.3.1 2019q3/bin/../lib/gcc/arm-none-eabi/8.3.1/../../../../arm-none-eabi/lib/thumb/v7e-m/nofp/libstdc++.a(atexit_arm.o)
                                          0x8 (size before relaxing)
 .ARM.exidx.text._ZL23__gxx_exception_cleanup19_Unwind_Reason_CodeP21_Unwind_Control_Block
                0x0000000008013a4c        0x8 /home/antodom/installations/ChibiStudio/tools/GNU Tools ARM Embedded/8.3.1 2019q3/bin/../lib/gcc/arm-none-eabi/8.3.1/../../../../arm-none-eabi/lib/thumb/v7e-m/nofp/libstdc++.a(eh_throw.o)
 .ARM.exidx.text.__cxa_init_primary_exception
                0x0000000008013a54        0x8 /home/antodom/installations/ChibiStudio/tools/GNU Tools ARM Embedded/8.3.1 2019q3/bin/../lib/gcc/arm-none-eabi/8.3.1/../../../../arm-none-eabi/lib/thumb/v7e-m/nofp/libstdc++.a(eh_throw.o)
 .ARM.exidx.text.__cxa_throw
                0x0000000008013a5c        0x8 /home/antodom/installations/ChibiStudio/tools/GNU Tools ARM Embedded/8.3.1 2019q3/bin/../lib/gcc/arm-none-eabi/8.3.1/../../../../arm-none-eabi/lib/thumb/v7e-m/nofp/libstdc++.a(eh_throw.o)
 .ARM.exidx.text.__cxa_rethrow
                0x0000000008013a64        0x8 /home/antodom/installations/ChibiStudio/tools/GNU Tools ARM Embedded/8.3.1 2019q3/bin/../lib/gcc/arm-none-eabi/8.3.1/../../../../arm-none-eabi/lib/thumb/v7e-m/nofp/libstdc++.a(eh_throw.o)
 .ARM.exidx.text._ZNSt13bad_exceptionD2Ev
                0x0000000008013a6c        0x8 /home/antodom/installations/ChibiStudio/tools/GNU Tools ARM Embedded/8.3.1 2019q3/bin/../lib/gcc/arm-none-eabi/8.3.1/../../../../arm-none-eabi/lib/thumb/v7e-m/nofp/libstdc++.a(eh_exception.o)
 .ARM.exidx.text._ZNKSt13bad_exception4whatEv
                0x0000000008013a74        0x0 /home/antodom/installations/ChibiStudio/tools/GNU Tools ARM Embedded/8.3.1 2019q3/bin/../lib/gcc/arm-none-eabi/8.3.1/../../../../arm-none-eabi/lib/thumb/v7e-m/nofp/libstdc++.a(eh_exception.o)
                                          0x8 (size before relaxing)
 .ARM.exidx.text._ZNSt13bad_exceptionD0Ev
                0x0000000008013a74        0x0 /home/antodom/installations/ChibiStudio/tools/GNU Tools ARM Embedded/8.3.1 2019q3/bin/../lib/gcc/arm-none-eabi/8.3.1/../../../../arm-none-eabi/lib/thumb/v7e-m/nofp/libstdc++.a(eh_exception.o)
                                          0x8 (size before relaxing)
 .ARM.exidx.text._ZN12_GLOBAL__N_14pool4freeEPv.constprop.4
                0x0000000008013a74        0x0 /home/antodom/installations/ChibiStudio/tools/GNU Tools ARM Embedded/8.3.1 2019q3/bin/../lib/gcc/arm-none-eabi/8.3.1/../../../../arm-none-eabi/lib/thumb/v7e-m/nofp/libstdc++.a(eh_alloc.o)
                                          0x8 (size before relaxing)
 .ARM.exidx.text._ZN12_GLOBAL__N_14pool8allocateEj.constprop.5
                0x0000000008013a74        0x0 /home/antodom/installations/ChibiStudio/tools/GNU Tools ARM Embedded/8.3.1 2019q3/bin/../lib/gcc/arm-none-eabi/8.3.1/../../../../arm-none-eabi/lib/thumb/v7e-m/nofp/libstdc++.a(eh_alloc.o)
                                          0x8 (size before relaxing)
 .ARM.exidx.text.__cxa_allocate_exception
                0x0000000008013a74        0x0 /home/antodom/installations/ChibiStudio/tools/GNU Tools ARM Embedded/8.3.1 2019q3/bin/../lib/gcc/arm-none-eabi/8.3.1/../../../../arm-none-eabi/lib/thumb/v7e-m/nofp/libstdc++.a(eh_alloc.o)
                                          0x8 (size before relaxing)
 .ARM.exidx.text.__cxa_free_exception
                0x0000000008013a74        0x0 /home/antodom/installations/ChibiStudio/tools/GNU Tools ARM Embedded/8.3.1 2019q3/bin/../lib/gcc/arm-none-eabi/8.3.1/../../../../arm-none-eabi/lib/thumb/v7e-m/nofp/libstdc++.a(eh_alloc.o)
                                          0x8 (size before relaxing)
 .ARM.exidx.text.startup._GLOBAL__sub_I__ZN9__gnu_cxx9__freeresEv
                0x0000000008013a74        0x0 /home/antodom/installations/ChibiStudio/tools/GNU Tools ARM Embedded/8.3.1 2019q3/bin/../lib/gcc/arm-none-eabi/8.3.1/../../../../arm-none-eabi/lib/thumb/v7e-m/nofp/libstdc++.a(eh_alloc.o)
                                          0x8 (size before relaxing)
 .ARM.exidx.text._ZN9__gnu_cxx27__verbose_terminate_handlerEv
                0x0000000008013a74        0x8 /home/antodom/installations/ChibiStudio/tools/GNU Tools ARM Embedded/8.3.1 2019q3/bin/../lib/gcc/arm-none-eabi/8.3.1/../../../../arm-none-eabi/lib/thumb/v7e-m/nofp/libstdc++.a(vterminate.o)
 .ARM.exidx.text._ZdlPvj
                0x0000000008013a7c        0x8 /home/antodom/installations/ChibiStudio/tools/GNU Tools ARM Embedded/8.3.1 2019q3/bin/../lib/gcc/arm-none-eabi/8.3.1/../../../../arm-none-eabi/lib/thumb/v7e-m/nofp/libstdc++.a(del_ops.o)
 .ARM.exidx.text._ZN10__cxxabiv120__si_class_type_infoD2Ev
                0x0000000008013a84        0x0 /home/antodom/installations/ChibiStudio/tools/GNU Tools ARM Embedded/8.3.1 2019q3/bin/../lib/gcc/arm-none-eabi/8.3.1/../../../../arm-none-eabi/lib/thumb/v7e-m/nofp/libstdc++.a(si_class_type_info.o)
                                          0x8 (size before relaxing)
 .ARM.exidx.text._ZN10__cxxabiv120__si_class_type_infoD0Ev
                0x0000000008013a84        0x0 /home/antodom/installations/ChibiStudio/tools/GNU Tools ARM Embedded/8.3.1 2019q3/bin/../lib/gcc/arm-none-eabi/8.3.1/../../../../arm-none-eabi/lib/thumb/v7e-m/nofp/libstdc++.a(si_class_type_info.o)
                                          0x8 (size before relaxing)
 .ARM.exidx.text._ZNK10__cxxabiv120__si_class_type_info20__do_find_public_srcEiPKvPKNS_17__class_type_infoES2_
                0x0000000008013a84        0x0 /home/antodom/installations/ChibiStudio/tools/GNU Tools ARM Embedded/8.3.1 2019q3/bin/../lib/gcc/arm-none-eabi/8.3.1/../../../../arm-none-eabi/lib/thumb/v7e-m/nofp/libstdc++.a(si_class_type_info.o)
                                          0x8 (size before relaxing)
 .ARM.exidx.text._ZNK10__cxxabiv120__si_class_type_info12__do_dyncastEiNS_17__class_type_info10__sub_kindEPKS1_PKvS4_S6_RNS1_16__dyncast_resultE
                0x0000000008013a84        0x0 /home/antodom/installations/ChibiStudio/tools/GNU Tools ARM Embedded/8.3.1 2019q3/bin/../lib/gcc/arm-none-eabi/8.3.1/../../../../arm-none-eabi/lib/thumb/v7e-m/nofp/libstdc++.a(si_class_type_info.o)
                                          0x8 (size before relaxing)
 .ARM.exidx.text._ZNK10__cxxabiv120__si_class_type_info11__do_upcastEPKNS_17__class_type_infoEPKvRNS1_15__upcast_resultE
                0x0000000008013a84        0x8 /home/antodom/installations/ChibiStudio/tools/GNU Tools ARM Embedded/8.3.1 2019q3/bin/../lib/gcc/arm-none-eabi/8.3.1/../../../../arm-none-eabi/lib/thumb/v7e-m/nofp/libstdc++.a(si_class_type_info.o)
 .ARM.exidx.text._ZNSt9type_infoD2Ev
                0x0000000008013a8c        0x8 /home/antodom/installations/ChibiStudio/tools/GNU Tools ARM Embedded/8.3.1 2019q3/bin/../lib/gcc/arm-none-eabi/8.3.1/../../../../arm-none-eabi/lib/thumb/v7e-m/nofp/libstdc++.a(tinfo.o)
 .ARM.exidx.text._ZNKSt9type_info14__is_pointer_pEv
                0x0000000008013a94        0x0 /home/antodom/installations/ChibiStudio/tools/GNU Tools ARM Embedded/8.3.1 2019q3/bin/../lib/gcc/arm-none-eabi/8.3.1/../../../../arm-none-eabi/lib/thumb/v7e-m/nofp/libstdc++.a(tinfo.o)
                                          0x8 (size before relaxing)
 .ARM.exidx.text._ZNKSt9type_infoeqERKS_
                0x0000000008013a94        0x0 /home/antodom/installations/ChibiStudio/tools/GNU Tools ARM Embedded/8.3.1 2019q3/bin/../lib/gcc/arm-none-eabi/8.3.1/../../../../arm-none-eabi/lib/thumb/v7e-m/nofp/libstdc++.a(tinfo.o)
                                          0x8 (size before relaxing)
 .ARM.exidx.text._ZNK10__cxxabiv117__class_type_info11__do_upcastEPKS0_PPv
                0x0000000008013a94        0x8 /home/antodom/installations/ChibiStudio/tools/GNU Tools ARM Embedded/8.3.1 2019q3/bin/../lib/gcc/arm-none-eabi/8.3.1/../../../../arm-none-eabi/lib/thumb/v7e-m/nofp/libstdc++.a(class_type_info.o)
 .ARM.exidx.text._ZNK10__cxxabiv117__class_type_info20__do_find_public_srcEiPKvPKS0_S2_
                0x0000000008013a9c        0x8 /home/antodom/installations/ChibiStudio/tools/GNU Tools ARM Embedded/8.3.1 2019q3/bin/../lib/gcc/arm-none-eabi/8.3.1/../../../../arm-none-eabi/lib/thumb/v7e-m/nofp/libstdc++.a(class_type_info.o)
 .ARM.exidx.text._ZN10__cxxabiv117__class_type_infoD2Ev
                0x0000000008013aa4        0x0 /home/antodom/installations/ChibiStudio/tools/GNU Tools ARM Embedded/8.3.1 2019q3/bin/../lib/gcc/arm-none-eabi/8.3.1/../../../../arm-none-eabi/lib/thumb/v7e-m/nofp/libstdc++.a(class_type_info.o)
                                          0x8 (size before relaxing)
 .ARM.exidx.text._ZN10__cxxabiv117__class_type_infoD0Ev
                0x0000000008013aa4        0x0 /home/antodom/installations/ChibiStudio/tools/GNU Tools ARM Embedded/8.3.1 2019q3/bin/../lib/gcc/arm-none-eabi/8.3.1/../../../../arm-none-eabi/lib/thumb/v7e-m/nofp/libstdc++.a(class_type_info.o)
                                          0x8 (size before relaxing)
 .ARM.exidx.text._ZNK10__cxxabiv117__class_type_info12__do_dyncastEiNS0_10__sub_kindEPKS0_PKvS3_S5_RNS0_16__dyncast_resultE
                0x0000000008013aa4        0x0 /home/antodom/installations/ChibiStudio/tools/GNU Tools ARM Embedded/8.3.1 2019q3/bin/../lib/gcc/arm-none-eabi/8.3.1/../../../../arm-none-eabi/lib/thumb/v7e-m/nofp/libstdc++.a(class_type_info.o)
                                          0x8 (size before relaxing)
 .ARM.exidx.text._ZNK10__cxxabiv117__class_type_info11__do_upcastEPKS0_PKvRNS0_15__upcast_resultE
                0x0000000008013aa4        0x0 /home/antodom/installations/ChibiStudio/tools/GNU Tools ARM Embedded/8.3.1 2019q3/bin/../lib/gcc/arm-none-eabi/8.3.1/../../../../arm-none-eabi/lib/thumb/v7e-m/nofp/libstdc++.a(class_type_info.o)
                                          0x8 (size before relaxing)
 .ARM.exidx.text._ZNK10__cxxabiv117__class_type_info10__do_catchEPKSt9type_infoPPvj
                0x0000000008013aa4        0x0 /home/antodom/installations/ChibiStudio/tools/GNU Tools ARM Embedded/8.3.1 2019q3/bin/../lib/gcc/arm-none-eabi/8.3.1/../../../../arm-none-eabi/lib/thumb/v7e-m/nofp/libstdc++.a(class_type_info.o)
                                          0x8 (size before relaxing)
 .ARM.exidx.text.__cxa_current_exception_type
                0x0000000008013aa4        0x0 /home/antodom/installations/ChibiStudio/tools/GNU Tools ARM Embedded/8.3.1 2019q3/bin/../lib/gcc/arm-none-eabi/8.3.1/../../../../arm-none-eabi/lib/thumb/v7e-m/nofp/libstdc++.a(eh_type.o)
                                          0x8 (size before relaxing)
 .ARM.exidx.text._ZdlPv
                0x0000000008013aa4        0x0 /home/antodom/installations/ChibiStudio/tools/GNU Tools ARM Embedded/8.3.1 2019q3/bin/../lib/gcc/arm-none-eabi/8.3.1/../../../../arm-none-eabi/lib/thumb/v7e-m/nofp/libstdc++.a(del_op.o)
                                          0x8 (size before relaxing)
 .ARM.exidx     0x000000000801390c       0x80 /home/antodom/installations/ChibiStudio/tools/GNU Tools ARM Embedded/8.3.1 2019q3/bin/../lib/gcc/arm-none-eabi/8.3.1/thumb/v7e-m/nofp/libgcc.a(unwind-arm.o)
                                         0xd8 (size before relaxing)
 .ARM.exidx     0x000000000801398c       0x38 /home/antodom/installations/ChibiStudio/tools/GNU Tools ARM Embedded/8.3.1 2019q3/bin/../lib/gcc/arm-none-eabi/8.3.1/thumb/v7e-m/nofp/libgcc.a(pr-support.o)
 .ARM.exidx.text.unlikely
                0x0000000008013aa4        0x0 /home/antodom/installations/ChibiStudio/tools/GNU Tools ARM Embedded/8.3.1 2019q3/bin/../lib/gcc/arm-none-eabi/8.3.1/thumb/v7e-m/nofp/libgcc.a(pr-support.o)
                                         0x10 (size before relaxing)
 .ARM.exidx     0x00000000080139c4        0x0 /home/antodom/installations/ChibiStudio/tools/GNU Tools ARM Embedded/8.3.1 2019q3/bin/../lib/gcc/arm-none-eabi/8.3.1/thumb/v7e-m/nofp/libgcc.a(_udivmoddi4.o)
                                          0x8 (size before relaxing)
                0x0000000008013aa4                __exidx_end = .

.rel.dyn        0x0000000008013aa4        0x0
 .rel.iplt      0x0000000008013aa4        0x0 ./build/obj/crt0_v7m.o

.eh_frame_hdr
 *(.eh_frame_hdr)

.eh_frame
 *(.eh_frame)

.data           0x0000000020000800      0x9b8 load address 0x0000000008013aa4
                [!provide]                        PROVIDE (_textdata = LOADADDR (.data))
                [!provide]                        PROVIDE (_data = .)
                0x0000000008013aa4                _textdata_start = LOADADDR (.data)
                0x0000000020000800                _data_start = .
 *(.data)
 *(.data.*)
 .data._ZN10__cxxabiv119__terminate_handlerE
                0x0000000020000800        0x4 /home/antodom/installations/ChibiStudio/tools/GNU Tools ARM Embedded/8.3.1 2019q3/bin/../lib/gcc/arm-none-eabi/8.3.1/../../../../arm-none-eabi/lib/thumb/v7e-m/nofp/libstdc++.a(eh_term_handler.o)
                0x0000000020000800                __cxxabiv1::__terminate_handler
 .data._ZN10__cxxabiv120__unexpected_handlerE
                0x0000000020000804        0x4 /home/antodom/installations/ChibiStudio/tools/GNU Tools ARM Embedded/8.3.1 2019q3/bin/../lib/gcc/arm-none-eabi/8.3.1/../../../../arm-none-eabi/lib/thumb/v7e-m/nofp/libstdc++.a(eh_unex_handler.o)
                0x0000000020000804                __cxxabiv1::__unexpected_handler
 .data._impure_ptr
                0x0000000020000808        0x4 /home/antodom/installations/ChibiStudio/tools/GNU Tools ARM Embedded/8.3.1 2019q3/bin/../lib/gcc/arm-none-eabi/8.3.1/../../../../arm-none-eabi/lib/thumb/v7e-m/nofp/libg.a(lib_a-impure.o)
                0x0000000020000808                _impure_ptr
 *fill*         0x000000002000080c        0x4 
 .data.impure_data
                0x0000000020000810      0x428 /home/antodom/installations/ChibiStudio/tools/GNU Tools ARM Embedded/8.3.1 2019q3/bin/../lib/gcc/arm-none-eabi/8.3.1/../../../../arm-none-eabi/lib/thumb/v7e-m/nofp/libg.a(lib_a-impure.o)
 .data.__malloc_av_
                0x0000000020000c38      0x408 /home/antodom/installations/ChibiStudio/tools/GNU Tools ARM Embedded/8.3.1 2019q3/bin/../lib/gcc/arm-none-eabi/8.3.1/../../../../arm-none-eabi/lib/thumb/v7e-m/nofp/libg.a(lib_a-mallocr.o)
                0x0000000020000c38                __malloc_av_
 .data.__malloc_sbrk_base
                0x0000000020001040        0x4 /home/antodom/installations/ChibiStudio/tools/GNU Tools ARM Embedded/8.3.1 2019q3/bin/../lib/gcc/arm-none-eabi/8.3.1/../../../../arm-none-eabi/lib/thumb/v7e-m/nofp/libg.a(lib_a-mallocr.o)
                0x0000000020001040                __malloc_sbrk_base
 .data.__malloc_trim_threshold
                0x0000000020001044        0x4 /home/antodom/installations/ChibiStudio/tools/GNU Tools ARM Embedded/8.3.1 2019q3/bin/../lib/gcc/arm-none-eabi/8.3.1/../../../../arm-none-eabi/lib/thumb/v7e-m/nofp/libg.a(lib_a-mallocr.o)
                0x0000000020001044                __malloc_trim_threshold
 .data.__atexit_recursive_mutex
                0x0000000020001048        0x4 /home/antodom/installations/ChibiStudio/tools/GNU Tools ARM Embedded/8.3.1 2019q3/bin/../lib/gcc/arm-none-eabi/8.3.1/../../../../arm-none-eabi/lib/thumb/v7e-m/nofp/libg.a(lib_a-__call_atexit.o)
                0x0000000020001048                __atexit_recursive_mutex
 .data.__global_locale
                0x000000002000104c      0x16c /home/antodom/installations/ChibiStudio/tools/GNU Tools ARM Embedded/8.3.1 2019q3/bin/../lib/gcc/arm-none-eabi/8.3.1/../../../../arm-none-eabi/lib/thumb/v7e-m/nofp/libg.a(lib_a-locale.o)
                0x000000002000104c                __global_locale
 *(.ramtext)
                0x00000000200011b8                . = ALIGN (0x4)
                [!provide]                        PROVIDE (_edata = .)
                0x00000000200011b8                _data_end = .

.igot.plt       0x00000000200011b8        0x0 load address 0x000000000801445c
 .igot.plt      0x00000000200011b8        0x0 ./build/obj/crt0_v7m.o

.bss            0x00000000200011b8     0x1520 load address 0x000000000801445c
                0x00000000200011b8                _bss_start = .
 *(.bss)
 *(.bss.*)
 .bss.GPTD1     0x00000000200011b8       0x10 /tmp/ccxSiIU7.ltrans0.ltrans.o
 .bss.GPTD3     0x00000000200011c8       0x10 /tmp/ccxSiIU7.ltrans0.ltrans.o
 .bss.LPSD1     0x00000000200011d8       0x60 /tmp/ccxSiIU7.ltrans0.ltrans.o
 .bss.SD3       0x0000000020001238       0x60 /tmp/ccxSiIU7.ltrans0.ltrans.o
 .bss._ZGVN9soft_uart7chibios4uartIXadL_Z5GPTD1EELj256ELj256EE5_ctx_E
                0x0000000020001298        0x4 /tmp/ccxSiIU7.ltrans0.ltrans.o
 .bss._ZGVN9soft_uart7chibios4uartIXadL_Z5GPTD3EELj256ELj256EE5_ctx_E
                0x000000002000129c        0x4 /tmp/ccxSiIU7.ltrans0.ltrans.o
 .bss._ZN9soft_uart7chibios4uartIXadL_Z5GPTD1EELj256ELj256EE5_ctx_E
                0x00000000200012a0      0x898 /tmp/ccxSiIU7.ltrans0.ltrans.o
 .bss._ZN9soft_uart7chibios4uartIXadL_Z5GPTD3EELj256ELj256EE5_ctx_E
                0x0000000020001b38      0x898 /tmp/ccxSiIU7.ltrans0.ltrans.o
 .bss.__dso_handle
                0x00000000200023d0        0x4 /tmp/ccxSiIU7.ltrans0.ltrans.o
 .bss._pal_events
                0x00000000200023d4       0x80 /tmp/ccxSiIU7.ltrans0.ltrans.o
 .bss.ch        0x0000000020002454       0x78 /tmp/ccxSiIU7.ltrans0.ltrans.o
 .bss.ch_factory
                0x00000000200024cc       0x48 /tmp/ccxSiIU7.ltrans0.ltrans.o
 *fill*         0x0000000020002514        0x4 
 .bss.ch_idle_thread_wa
                0x0000000020002518       0xd8 /tmp/ccxSiIU7.ltrans0.ltrans.o
 .bss.ch_memcore
                0x00000000200025f0        0x8 /tmp/ccxSiIU7.ltrans0.ltrans.o
 .bss.default_heap
                0x00000000200025f8       0x1c /tmp/ccxSiIU7.ltrans0.ltrans.o
 .bss.my_soft_uart_1
                0x0000000020002614        0x4 /tmp/ccxSiIU7.ltrans0.ltrans.o
 .bss.my_soft_uart_2
                0x0000000020002618        0x4 /tmp/ccxSiIU7.ltrans0.ltrans.o
 .bss.sd_in_buf3
                0x000000002000261c       0x10 /tmp/ccxSiIU7.ltrans0.ltrans.o
 .bss.sd_in_buflp1
                0x000000002000262c       0x10 /tmp/ccxSiIU7.ltrans0.ltrans.o
 .bss.sd_out_buf3
                0x000000002000263c       0x10 /tmp/ccxSiIU7.ltrans0.ltrans.o
 .bss.sd_out_buflp1
                0x000000002000264c       0x10 /tmp/ccxSiIU7.ltrans0.ltrans.o
 .bss._ZL10eh_globals
                0x000000002000265c        0xc /home/antodom/installations/ChibiStudio/tools/GNU Tools ARM Embedded/8.3.1 2019q3/bin/../lib/gcc/arm-none-eabi/8.3.1/../../../../arm-none-eabi/lib/thumb/v7e-m/nofp/libstdc++.a(eh_globals.o)
 .bss._ZN12_GLOBAL__N_114emergency_poolE
                0x0000000020002668       0x10 /home/antodom/installations/ChibiStudio/tools/GNU Tools ARM Embedded/8.3.1 2019q3/bin/../lib/gcc/arm-none-eabi/8.3.1/../../../../arm-none-eabi/lib/thumb/v7e-m/nofp/libstdc++.a(eh_alloc.o)
 .bss._ZZN9__gnu_cxx27__verbose_terminate_handlerEvE11terminating
                0x0000000020002678        0x1 /home/antodom/installations/ChibiStudio/tools/GNU Tools ARM Embedded/8.3.1 2019q3/bin/../lib/gcc/arm-none-eabi/8.3.1/../../../../arm-none-eabi/lib/thumb/v7e-m/nofp/libstdc++.a(vterminate.o)
 *fill*         0x0000000020002679        0x3 
 .bss.__malloc_current_mallinfo
                0x000000002000267c       0x28 /home/antodom/installations/ChibiStudio/tools/GNU Tools ARM Embedded/8.3.1 2019q3/bin/../lib/gcc/arm-none-eabi/8.3.1/../../../../arm-none-eabi/lib/thumb/v7e-m/nofp/libg.a(lib_a-mallocr.o)
                0x000000002000267c                __malloc_current_mallinfo
 .bss.__malloc_max_sbrked_mem
                0x00000000200026a4        0x4 /home/antodom/installations/ChibiStudio/tools/GNU Tools ARM Embedded/8.3.1 2019q3/bin/../lib/gcc/arm-none-eabi/8.3.1/../../../../arm-none-eabi/lib/thumb/v7e-m/nofp/libg.a(lib_a-mallocr.o)
                0x00000000200026a4                __malloc_max_sbrked_mem
 .bss.__malloc_max_total_mem
                0x00000000200026a8        0x4 /home/antodom/installations/ChibiStudio/tools/GNU Tools ARM Embedded/8.3.1 2019q3/bin/../lib/gcc/arm-none-eabi/8.3.1/../../../../arm-none-eabi/lib/thumb/v7e-m/nofp/libg.a(lib_a-mallocr.o)
                0x00000000200026a8                __malloc_max_total_mem
 .bss.__malloc_top_pad
                0x00000000200026ac        0x4 /home/antodom/installations/ChibiStudio/tools/GNU Tools ARM Embedded/8.3.1 2019q3/bin/../lib/gcc/arm-none-eabi/8.3.1/../../../../arm-none-eabi/lib/thumb/v7e-m/nofp/libg.a(lib_a-mallocr.o)
                0x00000000200026ac                __malloc_top_pad
 *(COMMON)
 COMMON         0x00000000200026b0       0x21 /home/antodom/installations/ChibiStudio/tools/GNU Tools ARM Embedded/8.3.1 2019q3/bin/../lib/gcc/arm-none-eabi/8.3.1/../../../../arm-none-eabi/lib/thumb/v7e-m/nofp/libg.a(lib_a-lock.o)
                0x00000000200026b0                __lock___atexit_recursive_mutex
                0x00000000200026b4                __lock___arc4random_mutex
                0x00000000200026b8                __lock___env_recursive_mutex
                0x00000000200026bc                __lock___sinit_recursive_mutex
                0x00000000200026c0                __lock___malloc_recursive_mutex
                0x00000000200026c4                __lock___at_quick_exit_mutex
                0x00000000200026c8                __lock___dd_hash_mutex
                0x00000000200026cc                __lock___tz_mutex
                0x00000000200026d0                __lock___sfp_recursive_mutex
 *fill*         0x00000000200026d1        0x3 
 COMMON         0x00000000200026d4        0x4 /home/antodom/installations/ChibiStudio/tools/GNU Tools ARM Embedded/8.3.1 2019q3/bin/../lib/gcc/arm-none-eabi/8.3.1/../../../../arm-none-eabi/lib/thumb/v7e-m/nofp/libg.a(lib_a-reent.o)
                0x00000000200026d4                errno
                0x00000000200026d8                . = ALIGN (0x4)
                0x00000000200026d8                _bss_end = .
                [!provide]                        PROVIDE (end = .)
                0x0000000020000000                __ram0_start__ = ORIGIN (ram0)
                0x00000000000a0000                __ram0_size__ = LENGTH (ram0)
                0x00000000200a0000                __ram0_end__ = (__ram0_start__ + __ram0_size__)
                0x0000000020000000                __ram1_start__ = ORIGIN (ram1)
                0x0000000000030000                __ram1_size__ = LENGTH (ram1)
                0x0000000020030000                __ram1_end__ = (__ram1_start__ + __ram1_size__)
                0x0000000000000000                __ram2_start__ = ORIGIN (ram2)
                0x0000000000010000                __ram2_size__ = LENGTH (ram2)
                0x0000000000010000                __ram2_end__ = (__ram2_start__ + __ram2_size__)
                0x0000000000000000                __ram3_start__ = ORIGIN (ram3)
                0x0000000000060000                __ram3_size__ = LENGTH (ram3)
                0x0000000000060000                __ram3_end__ = (__ram3_start__ + __ram3_size__)
                0x0000000010000000                __ram4_start__ = ORIGIN (ram4)
                0x0000000000010000                __ram4_size__ = LENGTH (ram4)
                0x0000000010010000                __ram4_end__ = (__ram4_start__ + __ram4_size__)
                0x0000000000000000                __ram5_start__ = ORIGIN (ram5)
                0x0000000000000000                __ram5_size__ = LENGTH (ram5)
                0x0000000000000000                __ram5_end__ = (__ram5_start__ + __ram5_size__)
                0x0000000000000000                __ram6_start__ = ORIGIN (ram6)
                0x0000000000000000                __ram6_size__ = LENGTH (ram6)
                0x0000000000000000                __ram6_end__ = (__ram6_start__ + __ram6_size__)
                0x0000000000000000                __ram7_start__ = ORIGIN (ram7)
                0x0000000000000000                __ram7_size__ = LENGTH (ram7)
                0x0000000000000000                __ram7_end__ = (__ram7_start__ + __ram7_size__)
                0x0000000008000000                __flash0_start__ = ORIGIN (flash0)
                0x0000000000200000                __flash0_size__ = LENGTH (flash0)
                0x0000000008200000                __flash0_end__ = (__flash0_start__ + __flash0_size__)
                0x0000000000000000                __flash1_start__ = ORIGIN (flash1)
                0x0000000000000000                __flash1_size__ = LENGTH (flash1)
                0x0000000000000000                __flash1_end__ = (__flash1_start__ + __flash1_size__)
                0x0000000000000000                __flash2_start__ = ORIGIN (flash2)
                0x0000000000000000                __flash2_size__ = LENGTH (flash2)
                0x0000000000000000                __flash2_end__ = (__flash2_start__ + __flash2_size__)
                0x0000000000000000                __flash3_start__ = ORIGIN (flash3)
                0x0000000000000000                __flash3_size__ = LENGTH (flash3)
                0x0000000000000000                __flash3_end__ = (__flash3_start__ + __flash3_size__)
                0x0000000000000000                __flash4_start__ = ORIGIN (flash4)
                0x0000000000000000                __flash4_size__ = LENGTH (flash4)
                0x0000000000000000                __flash4_end__ = (__flash4_start__ + __flash4_size__)
                0x0000000000000000                __flash5_start__ = ORIGIN (flash5)
                0x0000000000000000                __flash5_size__ = LENGTH (flash5)
                0x0000000000000000                __flash5_end__ = (__flash5_start__ + __flash5_size__)
                0x0000000000000000                __flash6_start__ = ORIGIN (flash6)
                0x0000000000000000                __flash6_size__ = LENGTH (flash6)
                0x0000000000000000                __flash6_end__ = (__flash6_start__ + __flash6_size__)
                0x0000000000000000                __flash7_start__ = ORIGIN (flash7)
                0x0000000000000000                __flash7_size__ = LENGTH (flash7)
                0x0000000000000000                __flash7_end__ = (__flash7_start__ + __flash7_size__)

.ram0_init      0x00000000200026d8        0x0 load address 0x000000000801445c
                0x000000000801445c                __ram0_init_text__ = LOADADDR (.ram0_init)
                0x00000000200026d8                __ram0_init__ = .
 *(.ram0_init)
 *(.ram0_init.*)
                0x00000000200026d8                . = ALIGN (0x4)

.ram0           0x00000000200026d8        0x0 load address 0x000000000801445c
                0x00000000200026d8                __ram0_clear__ = .
 *(.ram0_clear)
 *(.ram0_clear.*)
                0x00000000200026d8                . = ALIGN (0x4)
                0x00000000200026d8                __ram0_noinit__ = .
 *(.ram0)
 *(.ram0.*)
                0x00000000200026d8                . = ALIGN (0x4)
                0x00000000200026d8                __ram0_free__ = .

.ram1_init      0x0000000020000000        0x0 load address 0x000000000801445c
                0x000000000801445c                __ram1_init_text__ = LOADADDR (.ram1_init)
                0x0000000020000000                __ram1_init__ = .
 *(.ram1_init)
 *(.ram1_init.*)
                0x0000000020000000                . = ALIGN (0x4)

.ram1           0x0000000020000000        0x0 load address 0x000000000801445c
                0x0000000020000000                __ram1_clear__ = .
 *(.ram1_clear)
 *(.ram1_clear.*)
                0x0000000020000000                . = ALIGN (0x4)
                0x0000000020000000                __ram1_noinit__ = .
 *(.ram1)
 *(.ram1.*)
                0x0000000020000000                . = ALIGN (0x4)
                0x0000000020000000                __ram1_free__ = .

.ram2_init      0x0000000000000000        0x0 load address 0x000000000801445c
                0x000000000801445c                __ram2_init_text__ = LOADADDR (.ram2_init)
                0x0000000000000000                __ram2_init__ = .
 *(.ram2_init)
 *(.ram2_init.*)
                0x0000000000000000                . = ALIGN (0x4)

.ram2           0x0000000000000000        0x0 load address 0x000000000801445c
                0x0000000000000000                __ram2_clear__ = .
 *(.ram2_clear)
 *(.ram2_clear.*)
                0x0000000000000000                . = ALIGN (0x4)
                0x0000000000000000                __ram2_noinit__ = .
 *(.ram2)
 *(.ram2.*)
                0x0000000000000000                . = ALIGN (0x4)
                0x0000000000000000                __ram2_free__ = .

.ram3_init      0x0000000000000000        0x0 load address 0x000000000801445c
                0x000000000801445c                __ram3_init_text__ = LOADADDR (.ram3_init)
                0x0000000000000000                __ram3_init__ = .
 *(.ram3_init)
 *(.ram3_init.*)
                0x0000000000000000                . = ALIGN (0x4)

.ram3           0x0000000000000000        0x0 load address 0x000000000801445c
                0x0000000000000000                __ram3_clear__ = .
 *(.ram3_clear)
 *(.ram3_clear.*)
                0x0000000000000000                . = ALIGN (0x4)
                0x0000000000000000                __ram3_noinit__ = .
 *(.ram3)
 *(.ram3.*)
                0x0000000000000000                . = ALIGN (0x4)
                0x0000000000000000                __ram3_free__ = .

.ram4_init      0x0000000010000000        0x0 load address 0x000000000801445c
                0x000000000801445c                __ram4_init_text__ = LOADADDR (.ram4_init)
                0x0000000010000000                __ram4_init__ = .
 *(.ram4_init)
 *(.ram4_init.*)
                0x0000000010000000                . = ALIGN (0x4)

.ram4           0x0000000010000000        0x0 load address 0x000000000801445c
                0x0000000010000000                __ram4_clear__ = .
 *(.ram4_clear)
 *(.ram4_clear.*)
                0x0000000010000000                . = ALIGN (0x4)
                0x0000000010000000                __ram4_noinit__ = .
 *(.ram4)
 *(.ram4.*)
                0x0000000010000000                . = ALIGN (0x4)
                0x0000000010000000                __ram4_free__ = .

.ram5_init      0x0000000000000000        0x0 load address 0x000000000801445c
                0x000000000801445c                __ram5_init_text__ = LOADADDR (.ram5_init)
                0x0000000000000000                __ram5_init__ = .
 *(.ram5_init)
 *(.ram5_init.*)
                0x0000000000000000                . = ALIGN (0x4)

.ram5           0x0000000000000000        0x0 load address 0x000000000801445c
                0x0000000000000000                __ram5_clear__ = .
 *(.ram5_clear)
 *(.ram5_clear.*)
                0x0000000000000000                . = ALIGN (0x4)
                0x0000000000000000                __ram5_noinit__ = .
 *(.ram5)
 *(.ram5.*)
                0x0000000000000000                . = ALIGN (0x4)
                0x0000000000000000                __ram5_free__ = .

.ram6_init      0x0000000000000000        0x0 load address 0x000000000801445c
                0x000000000801445c                __ram6_init_text__ = LOADADDR (.ram6_init)
                0x0000000000000000                __ram6_init__ = .
 *(.ram6_init)
 *(.ram6_init.*)
                0x0000000000000000                . = ALIGN (0x4)

.ram6           0x0000000000000000        0x0 load address 0x000000000801445c
                0x0000000000000000                __ram6_clear__ = .
 *(.ram6_clear)
 *(.ram6_clear.*)
                0x0000000000000000                . = ALIGN (0x4)
                0x0000000000000000                __ram6_noinit__ = .
 *(.ram6)
 *(.ram6.*)
                0x0000000000000000                . = ALIGN (0x4)
                0x0000000000000000                __ram6_free__ = .

.ram7_init      0x0000000000000000        0x0 load address 0x000000000801445c
                0x000000000801445c                __ram7_init_text__ = LOADADDR (.ram7_init)
                0x0000000000000000                __ram7_init__ = .
 *(.ram7_init)
 *(.ram7_init.*)
                0x0000000000000000                . = ALIGN (0x4)

.ram7           0x0000000000000000        0x0 load address 0x000000000801445c
                0x0000000000000000                __ram7_clear__ = .
 *(.ram7_clear)
 *(.ram7_clear.*)
                0x0000000000000000                . = ALIGN (0x4)
                0x0000000000000000                __ram7_noinit__ = .
 *(.ram7)
 *(.ram7.*)
                0x0000000000000000                . = ALIGN (0x4)
                0x0000000000000000                __ram7_free__ = .

.flash0         0x000000000801445c        0x0
                0x000000000801445c                __flash0_init__ = .
 *(.flash0_init)
 *(.flash0_init.*)
                0x000000000801445c                __flash0_free__ = .

.flash1         0x0000000000000000        0x0
                0x0000000000000000                __flash1_init__ = .
 *(.flash1_init)
 *(.flash1_init.*)
                0x0000000000000000                __flash1_free__ = .

.flash2         0x0000000000000000        0x0
                0x0000000000000000                __flash2_init__ = .
 *(.flash2_init)
 *(.flash2_init.*)
                0x0000000000000000                __flash2_free__ = .

.flash3         0x0000000000000000        0x0
                0x0000000000000000                __flash3_init__ = .
 *(.flash3_init)
 *(.flash3_init.*)
                0x0000000000000000                __flash3_free__ = .

.flash4         0x0000000000000000        0x0
                0x0000000000000000                __flash4_init__ = .
 *(.flash4_init)
 *(.flash4_init.*)
                0x0000000000000000                __flash4_free__ = .

.flash5         0x0000000000000000        0x0
                0x0000000000000000                __flash5_init__ = .
 *(.flash5_init)
 *(.flash5_init.*)
                0x0000000000000000                __flash5_free__ = .

.flash6         0x0000000000000000        0x0
                0x0000000000000000                __flash6_init__ = .
 *(.flash6_init)
 *(.flash6_init.*)
                0x0000000000000000                __flash6_free__ = .

.flash7         0x0000000000000000        0x0
                0x0000000000000000                __flash7_init__ = .
 *(.flash7_init)
 *(.flash7_init.*)
                0x0000000000000000                __flash7_free__ = .

.heap           0x00000000200026d8    0x9d928
                0x00000000200026d8                . = ALIGN (0x8)
                0x00000000200026d8                __heap_base__ = .
                0x00000000200a0000                . = (ORIGIN (HEAP_RAM) + LENGTH (HEAP_RAM))
 *fill*         0x00000000200026d8    0x9d928 
                0x00000000200a0000                __heap_end__ = .
                0x0000000000000400                __process_stack_size__ = 0x400
                0x0000000000000400                __main_stack_size__ = 0x400
LOAD /home/antodom/installations/ChibiStudio/tools/GNU Tools ARM Embedded/8.3.1 2019q3/bin/../lib/gcc/arm-none-eabi/8.3.1/../../../../arm-none-eabi/lib/thumb/v7e-m/nofp/libstdc++.a
LOAD /home/antodom/installations/ChibiStudio/tools/GNU Tools ARM Embedded/8.3.1 2019q3/bin/../lib/gcc/arm-none-eabi/8.3.1/../../../../arm-none-eabi/lib/thumb/v7e-m/nofp/libm.a
START GROUP
LOAD /home/antodom/installations/ChibiStudio/tools/GNU Tools ARM Embedded/8.3.1 2019q3/bin/../lib/gcc/arm-none-eabi/8.3.1/thumb/v7e-m/nofp/libgcc.a
LOAD /home/antodom/installations/ChibiStudio/tools/GNU Tools ARM Embedded/8.3.1 2019q3/bin/../lib/gcc/arm-none-eabi/8.3.1/../../../../arm-none-eabi/lib/thumb/v7e-m/nofp/libg.a
LOAD /home/antodom/installations/ChibiStudio/tools/GNU Tools ARM Embedded/8.3.1 2019q3/bin/../lib/gcc/arm-none-eabi/8.3.1/../../../../arm-none-eabi/lib/thumb/v7e-m/nofp/libc.a
END GROUP
OUTPUT(build/ch.elf elf32-littlearm)

.ARM.attributes
                0x0000000000000000       0x2f
 .ARM.attributes
                0x0000000000000000       0x21 ./build/obj/crt0_v7m.o
 .ARM.attributes
                0x0000000000000021       0x21 ./build/obj/vectors.o
 .ARM.attributes
                0x0000000000000042       0x21 ./build/obj/chcoreasm_v7m.o
 .ARM.attributes
                0x0000000000000063       0x2c /tmp/ccxSiIU7.ltrans0.ltrans.o
 .ARM.attributes
                0x000000000000008f       0x2e /home/antodom/installations/ChibiStudio/tools/GNU Tools ARM Embedded/8.3.1 2019q3/bin/../lib/gcc/arm-none-eabi/8.3.1/../../../../arm-none-eabi/lib/thumb/v7e-m/nofp/libstdc++.a(atexit_arm.o)
 .ARM.attributes
                0x00000000000000bd       0x2e /home/antodom/installations/ChibiStudio/tools/GNU Tools ARM Embedded/8.3.1 2019q3/bin/../lib/gcc/arm-none-eabi/8.3.1/../../../../arm-none-eabi/lib/thumb/v7e-m/nofp/libstdc++.a(eh_alloc.o)
 .ARM.attributes
                0x00000000000000eb       0x2e /home/antodom/installations/ChibiStudio/tools/GNU Tools ARM Embedded/8.3.1 2019q3/bin/../lib/gcc/arm-none-eabi/8.3.1/../../../../arm-none-eabi/lib/thumb/v7e-m/nofp/libg.a(lib_a-cxa_atexit.o)
 .ARM.attributes
                0x0000000000000119       0x2e /home/antodom/installations/ChibiStudio/tools/GNU Tools ARM Embedded/8.3.1 2019q3/bin/../lib/gcc/arm-none-eabi/8.3.1/../../../../arm-none-eabi/lib/thumb/v7e-m/nofp/libg.a(lib_a-impure.o)
 .ARM.attributes
                0x0000000000000147       0x2e /home/antodom/installations/ChibiStudio/tools/GNU Tools ARM Embedded/8.3.1 2019q3/bin/../lib/gcc/arm-none-eabi/8.3.1/../../../../arm-none-eabi/lib/thumb/v7e-m/nofp/libg.a(lib_a-lock.o)
 .ARM.attributes
                0x0000000000000175       0x2e /home/antodom/installations/ChibiStudio/tools/GNU Tools ARM Embedded/8.3.1 2019q3/bin/../lib/gcc/arm-none-eabi/8.3.1/../../../../arm-none-eabi/lib/thumb/v7e-m/nofp/libg.a(lib_a-malloc.o)
 .ARM.attributes
                0x00000000000001a3       0x2e /home/antodom/installations/ChibiStudio/tools/GNU Tools ARM Embedded/8.3.1 2019q3/bin/../lib/gcc/arm-none-eabi/8.3.1/../../../../arm-none-eabi/lib/thumb/v7e-m/nofp/libg.a(lib_a-mallocr.o)
 .ARM.attributes
                0x00000000000001d1       0x1c /home/antodom/installations/ChibiStudio/tools/GNU Tools ARM Embedded/8.3.1 2019q3/bin/../lib/gcc/arm-none-eabi/8.3.1/../../../../arm-none-eabi/lib/thumb/v7e-m/nofp/libg.a(lib_a-memcpy.o)
 .ARM.attributes
                0x00000000000001ed       0x2e /home/antodom/installations/ChibiStudio/tools/GNU Tools ARM Embedded/8.3.1 2019q3/bin/../lib/gcc/arm-none-eabi/8.3.1/../../../../arm-none-eabi/lib/thumb/v7e-m/nofp/libg.a(lib_a-mlock.o)
 .ARM.attributes
                0x000000000000021b       0x2e /home/antodom/installations/ChibiStudio/tools/GNU Tools ARM Embedded/8.3.1 2019q3/bin/../lib/gcc/arm-none-eabi/8.3.1/../../../../arm-none-eabi/lib/thumb/v7e-m/nofp/libg.a(lib_a-__atexit.o)
 .ARM.attributes
                0x0000000000000249       0x2e /home/antodom/installations/ChibiStudio/tools/GNU Tools ARM Embedded/8.3.1 2019q3/bin/../lib/gcc/arm-none-eabi/8.3.1/../../../../arm-none-eabi/lib/thumb/v7e-m/nofp/libg.a(lib_a-__call_atexit.o)
 .ARM.attributes
                0x0000000000000277       0x2e /home/antodom/installations/ChibiStudio/tools/GNU Tools ARM Embedded/8.3.1 2019q3/bin/../lib/gcc/arm-none-eabi/8.3.1/../../../../arm-none-eabi/lib/thumb/v7e-m/nofp/libg.a(lib_a-atexit.o)
 .ARM.attributes
                0x00000000000002a5       0x2e /home/antodom/installations/ChibiStudio/tools/GNU Tools ARM Embedded/8.3.1 2019q3/bin/../lib/gcc/arm-none-eabi/8.3.1/../../../../arm-none-eabi/lib/thumb/v7e-m/nofp/libg.a(lib_a-fini.o)
 .ARM.attributes
                0x00000000000002d3       0x2e /home/antodom/installations/ChibiStudio/tools/GNU Tools ARM Embedded/8.3.1 2019q3/bin/../lib/gcc/arm-none-eabi/8.3.1/../../../../arm-none-eabi/lib/thumb/v7e-m/nofp/libg.a(lib_a-freer.o)
 .ARM.attributes
                0x0000000000000301       0x1e /home/antodom/installations/ChibiStudio/tools/GNU Tools ARM Embedded/8.3.1 2019q3/bin/../lib/gcc/arm-none-eabi/8.3.1/thumb/v7e-m/nofp/libgcc.a(_aeabi_uldivmod.o)
 .ARM.attributes
                0x000000000000031f       0x2e /home/antodom/installations/ChibiStudio/tools/GNU Tools ARM Embedded/8.3.1 2019q3/bin/../lib/gcc/arm-none-eabi/8.3.1/thumb/v7e-m/nofp/libgcc.a(_udivmoddi4.o)
 .ARM.attributes
                0x000000000000034d       0x1e /home/antodom/installations/ChibiStudio/tools/GNU Tools ARM Embedded/8.3.1 2019q3/bin/../lib/gcc/arm-none-eabi/8.3.1/thumb/v7e-m/nofp/libgcc.a(_dvmd_tls.o)

.comment        0x0000000000000000       0x76
 .comment       0x0000000000000000       0x76 /tmp/ccxSiIU7.ltrans0.ltrans.o
                                         0x77 (size before relaxing)

.debug_line     0x0000000000000000    0x24c7f
 .debug_line    0x0000000000000000       0xfa ./build/obj/crt0_v7m.o
 .debug_line    0x00000000000000fa       0xa4 ./build/obj/vectors.o
 .debug_line    0x000000000000019e       0xb6 ./build/obj/chcoreasm_v7m.o
 .debug_line    0x0000000000000254    0x1ccdc /tmp/ccbVf9uwdebugobj
 .debug_line    0x000000000001cf30     0x7d4f /tmp/ccxSiIU7.ltrans0.ltrans.o

.debug_info     0x0000000000000000    0x645ad
 .debug_info    0x0000000000000000       0x26 ./build/obj/crt0_v7m.o
 .debug_info    0x0000000000000026       0x26 ./build/obj/vectors.o
 .debug_info    0x000000000000004c       0x26 ./build/obj/chcoreasm_v7m.o
 .debug_info    0x0000000000000072    0x589e3 /tmp/ccbVf9uwdebugobj
                0x0000000000000072                crt1.c.c867b50c
                0x00000000000003f5                hal.c.88a682c5
                0x000000000000178b                hal_st.c.8d064532
                0x0000000000002bf6                hal_buffers.c.bd4c0213
                0x0000000000004fca                hal_queues.c.129f1295
                0x00000000000071b7                hal_mmcsd.c.5a31e386
                0x000000000000853c                hal_gpt.c.0b6a672f
                0x0000000000009b7f                hal_pal.c.8b25bc98
                0x000000000000b1ec                hal_serial.c.78c469ef
                0x000000000000ca40                chprintf.c.569bf615
                0x000000000000e1a6                memstreams.c.b6b11b91
                0x000000000000ff83                nullstreams.c.9b6e36ef
                0x0000000000011450                nvic.c.80a2c01f
                0x0000000000012b52                stm32_isr.c.3c770e24
                0x00000000000142ce                hal_lld.c.25408c3d
                0x0000000000015bce                stm32_dma.c.14e7545b
                0x0000000000016f53                stm32_exti.c.47eece20
                0x00000000000182d8                hal_pal_lld.c.1c92a151
                0x0000000000019afd                hal_st_lld.c.b0a3bb7e
                0x000000000001b19f                hal_gpt_lld.c.0ec2cc32
                0x000000000001c880                hal_serial_lld.c.e47c8b6c
                0x000000000001e0fe                board.c.61054b94
                0x000000000001f93b                osal.c.6b6a1d53
                0x00000000000203a7                chsys.c.0b79c4a1
                0x0000000000021aea                chdebug.c.ab8c4cbf
                0x0000000000022556                chtrace.c.2c512586
                0x0000000000022fc2                chvt.c.0a2150f6
                0x0000000000023d21                chschd.c.53b58b18
                0x0000000000024a9e                chthreads.c.0aa44255
                0x0000000000025f02                chtm.c.7fc42934
                0x0000000000026c0f                chregistry.c.2a4b3523
                0x0000000000028074                chsem.c.e7fd9219
                0x0000000000028eac                chmtx.c.da90a4c5
                0x0000000000029c8c                chcond.c.a742d1a6
                0x000000000002aa37                chevents.c.dd019461
                0x000000000002b9ff                chmsg.c.fe806dc7
                0x000000000002c611                chdynamic.c.667f2294
                0x000000000002d348                chmboxes.c.1aad3c99
                0x000000000002e27a                chmemcore.c.1925e5a9
                0x000000000002ee30                chmemheaps.c.d169e57a
                0x000000000002fb84                chmempools.c.1e35991f
                0x000000000003098d                chpipes.c.26c2740e
                0x0000000000031ff6                chfactory.c.a8ceef44
                0x0000000000033d4f                chcore.c.74646522
                0x00000000000347bb                chcore_v7m.c.92639d2f
                0x000000000003550e                ch_test.c.61f4b904
                0x0000000000036d9a                rt_test_root.c.4b366897
                0x0000000000038415                rt_test_sequence_001.c.b0b449ef
                0x00000000000399de                rt_test_sequence_002.c.7eae4ed9
                0x000000000003b293                rt_test_sequence_003.c.d80518f0
                0x000000000003c9a7                rt_test_sequence_004.c.6204c375
                0x000000000003e061                rt_test_sequence_005.c.cf49b90f
                0x000000000003f984                rt_test_sequence_006.c.62cf57ec
                0x00000000000411e3                rt_test_sequence_007.c.7dd56147
                0x0000000000042814                rt_test_sequence_008.c.1bfd452c
                0x0000000000044143                rt_test_sequence_009.c.3304ffb1
                0x00000000000458eb                rt_test_sequence_010.c.934879b9
                0x00000000000473de                oslib_test_root.c.bb30942b
                0x00000000000488ce                oslib_test_sequence_001.c.b5f03ede
                0x000000000004a044                oslib_test_sequence_002.c.43677c17
                0x000000000004c031                oslib_test_sequence_003.c.b28e093c
                0x000000000004d69d                oslib_test_sequence_004.c.08639770
                0x000000000004ed7b                oslib_test_sequence_005.c.9ff907b7
                0x0000000000050888                syscalls.c.2dc70b7f
                0x0000000000051f88                ch.cpp.d723b77b
                0x000000000005312e                syscalls_cpp.cpp.2e30ef95
                0x000000000005457f                main.cpp.b10c2b94
 .debug_info    0x0000000000058a55     0xbb58 /tmp/ccxSiIU7.ltrans0.ltrans.o

.debug_abbrev   0x0000000000000000     0xa36a
 .debug_abbrev  0x0000000000000000       0x14 ./build/obj/crt0_v7m.o
 .debug_abbrev  0x0000000000000014       0x14 ./build/obj/vectors.o
 .debug_abbrev  0x0000000000000028       0x14 ./build/obj/chcoreasm_v7m.o
 .debug_abbrev  0x000000000000003c     0x9f6d /tmp/ccbVf9uwdebugobj
 .debug_abbrev  0x0000000000009fa9      0x3c1 /tmp/ccxSiIU7.ltrans0.ltrans.o

.debug_aranges  0x0000000000000000      0x308
 .debug_aranges
                0x0000000000000000       0x20 ./build/obj/crt0_v7m.o
 .debug_aranges
                0x0000000000000020       0x20 ./build/obj/vectors.o
 .debug_aranges
                0x0000000000000040       0x20 ./build/obj/chcoreasm_v7m.o
 .debug_aranges
                0x0000000000000060      0x2a8 /tmp/ccxSiIU7.ltrans0.ltrans.o

.debug_str      0x0000000000000000     0xafd5
 .debug_str     0x0000000000000000       0xdd ./build/obj/crt0_v7m.o
 .debug_str     0x00000000000000dd       0x6f ./build/obj/vectors.o
                                         0xdc (size before relaxing)
 .debug_str     0x000000000000014c       0x73 ./build/obj/chcoreasm_v7m.o
                                         0xe0 (size before relaxing)
 .debug_str     0x00000000000001bf     0xacb7 /tmp/ccbVf9uwdebugobj
                                      0x363e9 (size before relaxing)
 .debug_str     0x000000000000ae76      0x15f /tmp/ccxSiIU7.ltrans0.ltrans.o
                                        0x1f8 (size before relaxing)

.debug_loc      0x0000000000000000     0x8185
 .debug_loc     0x0000000000000000     0x8185 /tmp/ccxSiIU7.ltrans0.ltrans.o

.debug_ranges   0x0000000000000000     0x6168
 .debug_ranges  0x0000000000000000     0x6168 /tmp/ccxSiIU7.ltrans0.ltrans.o

.debug_frame    0x0000000000000000      0xcf4
 .debug_frame   0x0000000000000000      0x894 /tmp/ccxSiIU7.ltrans0.ltrans.o
 .debug_frame   0x0000000000000894       0x20 /home/antodom/installations/ChibiStudio/tools/GNU Tools ARM Embedded/8.3.1 2019q3/bin/../lib/gcc/arm-none-eabi/8.3.1/../../../../arm-none-eabi/lib/thumb/v7e-m/nofp/libstdc++.a(atexit_arm.o)
 .debug_frame   0x00000000000008b4       0xf8 /home/antodom/installations/ChibiStudio/tools/GNU Tools ARM Embedded/8.3.1 2019q3/bin/../lib/gcc/arm-none-eabi/8.3.1/../../../../arm-none-eabi/lib/thumb/v7e-m/nofp/libstdc++.a(eh_alloc.o)
 .debug_frame   0x00000000000009ac       0x20 /home/antodom/installations/ChibiStudio/tools/GNU Tools ARM Embedded/8.3.1 2019q3/bin/../lib/gcc/arm-none-eabi/8.3.1/../../../../arm-none-eabi/lib/thumb/v7e-m/nofp/libg.a(lib_a-cxa_atexit.o)
 .debug_frame   0x00000000000009cc       0xb0 /home/antodom/installations/ChibiStudio/tools/GNU Tools ARM Embedded/8.3.1 2019q3/bin/../lib/gcc/arm-none-eabi/8.3.1/../../../../arm-none-eabi/lib/thumb/v7e-m/nofp/libg.a(lib_a-lock.o)
 .debug_frame   0x0000000000000a7c       0x30 /home/antodom/installations/ChibiStudio/tools/GNU Tools ARM Embedded/8.3.1 2019q3/bin/../lib/gcc/arm-none-eabi/8.3.1/../../../../arm-none-eabi/lib/thumb/v7e-m/nofp/libg.a(lib_a-malloc.o)
 .debug_frame   0x0000000000000aac       0x4c /home/antodom/installations/ChibiStudio/tools/GNU Tools ARM Embedded/8.3.1 2019q3/bin/../lib/gcc/arm-none-eabi/8.3.1/../../../../arm-none-eabi/lib/thumb/v7e-m/nofp/libg.a(lib_a-mallocr.o)
 .debug_frame   0x0000000000000af8       0x30 /home/antodom/installations/ChibiStudio/tools/GNU Tools ARM Embedded/8.3.1 2019q3/bin/../lib/gcc/arm-none-eabi/8.3.1/../../../../arm-none-eabi/lib/thumb/v7e-m/nofp/libg.a(lib_a-mlock.o)
 .debug_frame   0x0000000000000b28       0x30 /home/antodom/installations/ChibiStudio/tools/GNU Tools ARM Embedded/8.3.1 2019q3/bin/../lib/gcc/arm-none-eabi/8.3.1/../../../../arm-none-eabi/lib/thumb/v7e-m/nofp/libg.a(lib_a-__atexit.o)
 .debug_frame   0x0000000000000b58       0x5c /home/antodom/installations/ChibiStudio/tools/GNU Tools ARM Embedded/8.3.1 2019q3/bin/../lib/gcc/arm-none-eabi/8.3.1/../../../../arm-none-eabi/lib/thumb/v7e-m/nofp/libg.a(lib_a-__call_atexit.o)
 .debug_frame   0x0000000000000bb4       0x20 /home/antodom/installations/ChibiStudio/tools/GNU Tools ARM Embedded/8.3.1 2019q3/bin/../lib/gcc/arm-none-eabi/8.3.1/../../../../arm-none-eabi/lib/thumb/v7e-m/nofp/libg.a(lib_a-atexit.o)
 .debug_frame   0x0000000000000bd4       0x34 /home/antodom/installations/ChibiStudio/tools/GNU Tools ARM Embedded/8.3.1 2019q3/bin/../lib/gcc/arm-none-eabi/8.3.1/../../../../arm-none-eabi/lib/thumb/v7e-m/nofp/libg.a(lib_a-fini.o)
 .debug_frame   0x0000000000000c08       0x8c /home/antodom/installations/ChibiStudio/tools/GNU Tools ARM Embedded/8.3.1 2019q3/bin/../lib/gcc/arm-none-eabi/8.3.1/../../../../arm-none-eabi/lib/thumb/v7e-m/nofp/libg.a(lib_a-freer.o)
 .debug_frame   0x0000000000000c94       0x2c /home/antodom/installations/ChibiStudio/tools/GNU Tools ARM Embedded/8.3.1 2019q3/bin/../lib/gcc/arm-none-eabi/8.3.1/thumb/v7e-m/nofp/libgcc.a(_aeabi_uldivmod.o)
 .debug_frame   0x0000000000000cc0       0x34 /home/antodom/installations/ChibiStudio/tools/GNU Tools ARM Embedded/8.3.1 2019q3/bin/../lib/gcc/arm-none-eabi/8.3.1/thumb/v7e-m/nofp/libgcc.a(_udivmoddi4.o)

Cross Reference Table

Symbol                                            File
BusFault_Handler                                  ./build/obj/vectors.o
DebugMon_Handler                                  ./build/obj/vectors.o
GPTD1                                             ./build/obj/hal_gpt_lld.o (symbol from plugin)
                                                  ./build/obj/main.o (symbol from plugin)
                                                  ./build/obj/stm32_isr.o (symbol from plugin)
GPTD3                                             ./build/obj/hal_gpt_lld.o (symbol from plugin)
                                                  ./build/obj/main.o (symbol from plugin)
HardFault_Handler                                 ./build/obj/vectors.o
LPSD1                                             ./build/obj/hal_serial_lld.o (symbol from plugin)
                                                  ./build/obj/main.o (symbol from plugin)
MemManage_Handler                                 ./build/obj/vectors.o
NMI_Handler                                       ./build/obj/vectors.o
PendSV_Handler                                    ./build/obj/vectors.o
Reset_Handler                                     ./build/obj/vectors.o
SD3                                               ./build/obj/hal_serial_lld.o (symbol from plugin)
SVC_Handler                                       /tmp/ccxSiIU7.ltrans0.ltrans.o
                                                  ./build/obj/chcore_v7m.o (symbol from plugin)
                                                  ./build/obj/vectors.o
SysTick_Handler                                   ./build/obj/vectors.o
SystemCoreClock                                   ./build/obj/hal_lld.o (symbol from plugin)
UsageFault_Handler                                ./build/obj/vectors.o
Vector100                                         ./build/obj/vectors.o
Vector104                                         ./build/obj/vectors.o
Vector108                                         ./build/obj/vectors.o
Vector10C                                         ./build/obj/vectors.o
Vector110                                         ./build/obj/vectors.o
Vector114                                         ./build/obj/vectors.o
Vector118                                         ./build/obj/vectors.o
Vector11C                                         ./build/obj/vectors.o
Vector120                                         ./build/obj/vectors.o
Vector124                                         ./build/obj/vectors.o
Vector128                                         ./build/obj/vectors.o
Vector12C                                         ./build/obj/vectors.o
Vector130                                         ./build/obj/vectors.o
Vector134                                         ./build/obj/vectors.o
Vector138                                         ./build/obj/vectors.o
Vector13C                                         ./build/obj/vectors.o
Vector140                                         ./build/obj/vectors.o
Vector144                                         ./build/obj/vectors.o
Vector148                                         ./build/obj/vectors.o
Vector14C                                         ./build/obj/vectors.o
Vector150                                         ./build/obj/vectors.o
Vector154                                         ./build/obj/vectors.o
Vector158                                         /tmp/ccxSiIU7.ltrans0.ltrans.o
                                                  ./build/obj/hal_serial_lld.o (symbol from plugin)
                                                  ./build/obj/vectors.o
Vector15C                                         ./build/obj/vectors.o
Vector160                                         ./build/obj/vectors.o
Vector164                                         ./build/obj/vectors.o
Vector168                                         ./build/obj/vectors.o
Vector16C                                         ./build/obj/vectors.o
Vector170                                         ./build/obj/vectors.o
Vector174                                         ./build/obj/vectors.o
Vector178                                         ./build/obj/vectors.o
Vector17C                                         ./build/obj/vectors.o
Vector180                                         ./build/obj/vectors.o
Vector184                                         ./build/obj/vectors.o
Vector188                                         ./build/obj/vectors.o
Vector18C                                         ./build/obj/vectors.o
Vector190                                         ./build/obj/vectors.o
Vector194                                         ./build/obj/vectors.o
Vector198                                         ./build/obj/vectors.o
Vector19C                                         ./build/obj/vectors.o
Vector1A0                                         ./build/obj/vectors.o
Vector1A4                                         ./build/obj/vectors.o
Vector1A8                                         ./build/obj/vectors.o
Vector1AC                                         ./build/obj/vectors.o
Vector1B0                                         ./build/obj/vectors.o
Vector1B4                                         ./build/obj/vectors.o
Vector1B8                                         ./build/obj/vectors.o
Vector1BC                                         ./build/obj/vectors.o
Vector1C                                          ./build/obj/vectors.o
Vector20                                          ./build/obj/vectors.o
Vector24                                          ./build/obj/vectors.o
Vector28                                          ./build/obj/vectors.o
Vector34                                          ./build/obj/vectors.o
Vector40                                          ./build/obj/vectors.o
Vector44                                          ./build/obj/vectors.o
Vector48                                          ./build/obj/vectors.o
Vector4C                                          ./build/obj/vectors.o
Vector50                                          ./build/obj/vectors.o
Vector54                                          ./build/obj/vectors.o
Vector58                                          /tmp/ccxSiIU7.ltrans0.ltrans.o
                                                  ./build/obj/stm32_isr.o (symbol from plugin)
                                                  ./build/obj/vectors.o
Vector5C                                          /tmp/ccxSiIU7.ltrans0.ltrans.o
                                                  ./build/obj/stm32_isr.o (symbol from plugin)
                                                  ./build/obj/vectors.o
Vector60                                          /tmp/ccxSiIU7.ltrans0.ltrans.o
                                                  ./build/obj/stm32_isr.o (symbol from plugin)
                                                  ./build/obj/vectors.o
Vector64                                          /tmp/ccxSiIU7.ltrans0.ltrans.o
                                                  ./build/obj/stm32_isr.o (symbol from plugin)
                                                  ./build/obj/vectors.o
Vector68                                          /tmp/ccxSiIU7.ltrans0.ltrans.o
                                                  ./build/obj/stm32_isr.o (symbol from plugin)
                                                  ./build/obj/vectors.o
Vector6C                                          ./build/obj/vectors.o
Vector70                                          ./build/obj/vectors.o
Vector74                                          ./build/obj/vectors.o
Vector78                                          ./build/obj/vectors.o
Vector7C                                          ./build/obj/vectors.o
Vector80                                          ./build/obj/vectors.o
Vector84                                          ./build/obj/vectors.o
Vector88                                          ./build/obj/vectors.o
Vector8C                                          ./build/obj/vectors.o
Vector90                                          ./build/obj/vectors.o
Vector94                                          ./build/obj/vectors.o
Vector98                                          ./build/obj/vectors.o
Vector9C                                          /tmp/ccxSiIU7.ltrans0.ltrans.o
                                                  ./build/obj/stm32_isr.o (symbol from plugin)
                                                  ./build/obj/vectors.o
VectorA0                                          /tmp/ccxSiIU7.ltrans0.ltrans.o
                                                  ./build/obj/stm32_isr.o (symbol from plugin)
                                                  ./build/obj/vectors.o
VectorA4                                          /tmp/ccxSiIU7.ltrans0.ltrans.o
                                                  ./build/obj/stm32_isr.o (symbol from plugin)
                                                  ./build/obj/vectors.o
VectorA8                                          /tmp/ccxSiIU7.ltrans0.ltrans.o
                                                  ./build/obj/stm32_isr.o (symbol from plugin)
                                                  ./build/obj/vectors.o
VectorAC                                          /tmp/ccxSiIU7.ltrans0.ltrans.o
                                                  ./build/obj/stm32_isr.o (symbol from plugin)
                                                  ./build/obj/vectors.o
VectorB0                                          /tmp/ccxSiIU7.ltrans0.ltrans.o
                                                  ./build/obj/hal_st_lld.o (symbol from plugin)
                                                  ./build/obj/vectors.o
VectorB4                                          /tmp/ccxSiIU7.ltrans0.ltrans.o
                                                  ./build/obj/hal_gpt_lld.o (symbol from plugin)
                                                  ./build/obj/vectors.o
VectorB8                                          ./build/obj/vectors.o
VectorBC                                          ./build/obj/vectors.o
VectorC0                                          ./build/obj/vectors.o
VectorC4                                          ./build/obj/vectors.o
VectorC8                                          ./build/obj/vectors.o
VectorCC                                          ./build/obj/vectors.o
VectorD0                                          ./build/obj/vectors.o
VectorD4                                          ./build/obj/vectors.o
VectorD8                                          ./build/obj/vectors.o
VectorDC                                          /tmp/ccxSiIU7.ltrans0.ltrans.o
                                                  ./build/obj/hal_serial_lld.o (symbol from plugin)
                                                  ./build/obj/vectors.o
VectorE0                                          /tmp/ccxSiIU7.ltrans0.ltrans.o
                                                  ./build/obj/stm32_isr.o (symbol from plugin)
                                                  ./build/obj/vectors.o
VectorE4                                          ./build/obj/vectors.o
VectorE8                                          ./build/obj/vectors.o
VectorEC                                          ./build/obj/vectors.o
VectorF0                                          ./build/obj/vectors.o
VectorF4                                          ./build/obj/vectors.o
VectorF8                                          ./build/obj/vectors.o
VectorFC                                          ./build/obj/vectors.o
_Balloc                                           /home/antodom/installations/ChibiStudio/tools/GNU Tools ARM Embedded/8.3.1 2019q3/bin/../lib/gcc/arm-none-eabi/8.3.1/../../../../arm-none-eabi/lib/thumb/v7e-m/nofp/libg.a(lib_a-mprec.o)
                                                  /home/antodom/installations/ChibiStudio/tools/GNU Tools ARM Embedded/8.3.1 2019q3/bin/../lib/gcc/arm-none-eabi/8.3.1/../../../../arm-none-eabi/lib/thumb/v7e-m/nofp/libg.a(lib_a-dtoa.o)
_Bfree                                            /home/antodom/installations/ChibiStudio/tools/GNU Tools ARM Embedded/8.3.1 2019q3/bin/../lib/gcc/arm-none-eabi/8.3.1/../../../../arm-none-eabi/lib/thumb/v7e-m/nofp/libg.a(lib_a-mprec.o)
                                                  /home/antodom/installations/ChibiStudio/tools/GNU Tools ARM Embedded/8.3.1 2019q3/bin/../lib/gcc/arm-none-eabi/8.3.1/../../../../arm-none-eabi/lib/thumb/v7e-m/nofp/libg.a(lib_a-dtoa.o)
_PathLocale                                       /home/antodom/installations/ChibiStudio/tools/GNU Tools ARM Embedded/8.3.1 2019q3/bin/../lib/gcc/arm-none-eabi/8.3.1/../../../../arm-none-eabi/lib/thumb/v7e-m/nofp/libg.a(lib_a-locale.o)
_Unwind_Backtrace                                 /home/antodom/installations/ChibiStudio/tools/GNU Tools ARM Embedded/8.3.1 2019q3/bin/../lib/gcc/arm-none-eabi/8.3.1/thumb/v7e-m/nofp/libgcc.a(libunwind.o)
_Unwind_Complete                                  /home/antodom/installations/ChibiStudio/tools/GNU Tools ARM Embedded/8.3.1 2019q3/bin/../lib/gcc/arm-none-eabi/8.3.1/thumb/v7e-m/nofp/libgcc.a(unwind-arm.o)
                                                  /home/antodom/installations/ChibiStudio/tools/GNU Tools ARM Embedded/8.3.1 2019q3/bin/../lib/gcc/arm-none-eabi/8.3.1/../../../../arm-none-eabi/lib/thumb/v7e-m/nofp/libstdc++.a(eh_catch.o)
_Unwind_DeleteException                           /home/antodom/installations/ChibiStudio/tools/GNU Tools ARM Embedded/8.3.1 2019q3/bin/../lib/gcc/arm-none-eabi/8.3.1/thumb/v7e-m/nofp/libgcc.a(unwind-arm.o)
                                                  /home/antodom/installations/ChibiStudio/tools/GNU Tools ARM Embedded/8.3.1 2019q3/bin/../lib/gcc/arm-none-eabi/8.3.1/../../../../arm-none-eabi/lib/thumb/v7e-m/nofp/libstdc++.a(eh_catch.o)
_Unwind_ForcedUnwind                              /home/antodom/installations/ChibiStudio/tools/GNU Tools ARM Embedded/8.3.1 2019q3/bin/../lib/gcc/arm-none-eabi/8.3.1/thumb/v7e-m/nofp/libgcc.a(libunwind.o)
_Unwind_GetCFA                                    /home/antodom/installations/ChibiStudio/tools/GNU Tools ARM Embedded/8.3.1 2019q3/bin/../lib/gcc/arm-none-eabi/8.3.1/thumb/v7e-m/nofp/libgcc.a(unwind-arm.o)
_Unwind_GetDataRelBase                            /home/antodom/installations/ChibiStudio/tools/GNU Tools ARM Embedded/8.3.1 2019q3/bin/../lib/gcc/arm-none-eabi/8.3.1/thumb/v7e-m/nofp/libgcc.a(pr-support.o)
                                                  /home/antodom/installations/ChibiStudio/tools/GNU Tools ARM Embedded/8.3.1 2019q3/bin/../lib/gcc/arm-none-eabi/8.3.1/../../../../arm-none-eabi/lib/thumb/v7e-m/nofp/libstdc++.a(eh_personality.o)
_Unwind_GetLanguageSpecificData                   /home/antodom/installations/ChibiStudio/tools/GNU Tools ARM Embedded/8.3.1 2019q3/bin/../lib/gcc/arm-none-eabi/8.3.1/thumb/v7e-m/nofp/libgcc.a(pr-support.o)
                                                  /home/antodom/installations/ChibiStudio/tools/GNU Tools ARM Embedded/8.3.1 2019q3/bin/../lib/gcc/arm-none-eabi/8.3.1/../../../../arm-none-eabi/lib/thumb/v7e-m/nofp/libstdc++.a(eh_personality.o)
_Unwind_GetRegionStart                            /home/antodom/installations/ChibiStudio/tools/GNU Tools ARM Embedded/8.3.1 2019q3/bin/../lib/gcc/arm-none-eabi/8.3.1/thumb/v7e-m/nofp/libgcc.a(pr-support.o)
                                                  /home/antodom/installations/ChibiStudio/tools/GNU Tools ARM Embedded/8.3.1 2019q3/bin/../lib/gcc/arm-none-eabi/8.3.1/../../../../arm-none-eabi/lib/thumb/v7e-m/nofp/libstdc++.a(eh_personality.o)
_Unwind_GetTextRelBase                            /home/antodom/installations/ChibiStudio/tools/GNU Tools ARM Embedded/8.3.1 2019q3/bin/../lib/gcc/arm-none-eabi/8.3.1/thumb/v7e-m/nofp/libgcc.a(pr-support.o)
                                                  /home/antodom/installations/ChibiStudio/tools/GNU Tools ARM Embedded/8.3.1 2019q3/bin/../lib/gcc/arm-none-eabi/8.3.1/../../../../arm-none-eabi/lib/thumb/v7e-m/nofp/libstdc++.a(eh_personality.o)
_Unwind_RaiseException                            /home/antodom/installations/ChibiStudio/tools/GNU Tools ARM Embedded/8.3.1 2019q3/bin/../lib/gcc/arm-none-eabi/8.3.1/thumb/v7e-m/nofp/libgcc.a(libunwind.o)
                                                  /home/antodom/installations/ChibiStudio/tools/GNU Tools ARM Embedded/8.3.1 2019q3/bin/../lib/gcc/arm-none-eabi/8.3.1/../../../../arm-none-eabi/lib/thumb/v7e-m/nofp/libstdc++.a(eh_throw.o)
_Unwind_Resume                                    /home/antodom/installations/ChibiStudio/tools/GNU Tools ARM Embedded/8.3.1 2019q3/bin/../lib/gcc/arm-none-eabi/8.3.1/thumb/v7e-m/nofp/libgcc.a(libunwind.o)
                                                  /home/antodom/installations/ChibiStudio/tools/GNU Tools ARM Embedded/8.3.1 2019q3/bin/../lib/gcc/arm-none-eabi/8.3.1/../../../../arm-none-eabi/lib/thumb/v7e-m/nofp/libstdc++.a(eh_arm.o)
_Unwind_Resume_or_Rethrow                         /home/antodom/installations/ChibiStudio/tools/GNU Tools ARM Embedded/8.3.1 2019q3/bin/../lib/gcc/arm-none-eabi/8.3.1/thumb/v7e-m/nofp/libgcc.a(libunwind.o)
                                                  /home/antodom/installations/ChibiStudio/tools/GNU Tools ARM Embedded/8.3.1 2019q3/bin/../lib/gcc/arm-none-eabi/8.3.1/../../../../arm-none-eabi/lib/thumb/v7e-m/nofp/libstdc++.a(eh_throw.o)
_Unwind_VRS_Get                                   /home/antodom/installations/ChibiStudio/tools/GNU Tools ARM Embedded/8.3.1 2019q3/bin/../lib/gcc/arm-none-eabi/8.3.1/thumb/v7e-m/nofp/libgcc.a(unwind-arm.o)
                                                  /home/antodom/installations/ChibiStudio/tools/GNU Tools ARM Embedded/8.3.1 2019q3/bin/../lib/gcc/arm-none-eabi/8.3.1/thumb/v7e-m/nofp/libgcc.a(pr-support.o)
                                                  /home/antodom/installations/ChibiStudio/tools/GNU Tools ARM Embedded/8.3.1 2019q3/bin/../lib/gcc/arm-none-eabi/8.3.1/../../../../arm-none-eabi/lib/thumb/v7e-m/nofp/libstdc++.a(eh_personality.o)
_Unwind_VRS_Pop                                   /home/antodom/installations/ChibiStudio/tools/GNU Tools ARM Embedded/8.3.1 2019q3/bin/../lib/gcc/arm-none-eabi/8.3.1/thumb/v7e-m/nofp/libgcc.a(unwind-arm.o)
                                                  /home/antodom/installations/ChibiStudio/tools/GNU Tools ARM Embedded/8.3.1 2019q3/bin/../lib/gcc/arm-none-eabi/8.3.1/thumb/v7e-m/nofp/libgcc.a(pr-support.o)
_Unwind_VRS_Set                                   /home/antodom/installations/ChibiStudio/tools/GNU Tools ARM Embedded/8.3.1 2019q3/bin/../lib/gcc/arm-none-eabi/8.3.1/thumb/v7e-m/nofp/libgcc.a(unwind-arm.o)
                                                  /home/antodom/installations/ChibiStudio/tools/GNU Tools ARM Embedded/8.3.1 2019q3/bin/../lib/gcc/arm-none-eabi/8.3.1/thumb/v7e-m/nofp/libgcc.a(pr-support.o)
                                                  /home/antodom/installations/ChibiStudio/tools/GNU Tools ARM Embedded/8.3.1 2019q3/bin/../lib/gcc/arm-none-eabi/8.3.1/../../../../arm-none-eabi/lib/thumb/v7e-m/nofp/libstdc++.a(eh_personality.o)
___Unwind_Backtrace                               /home/antodom/installations/ChibiStudio/tools/GNU Tools ARM Embedded/8.3.1 2019q3/bin/../lib/gcc/arm-none-eabi/8.3.1/thumb/v7e-m/nofp/libgcc.a(libunwind.o)
___Unwind_ForcedUnwind                            /home/antodom/installations/ChibiStudio/tools/GNU Tools ARM Embedded/8.3.1 2019q3/bin/../lib/gcc/arm-none-eabi/8.3.1/thumb/v7e-m/nofp/libgcc.a(libunwind.o)
___Unwind_RaiseException                          /home/antodom/installations/ChibiStudio/tools/GNU Tools ARM Embedded/8.3.1 2019q3/bin/../lib/gcc/arm-none-eabi/8.3.1/thumb/v7e-m/nofp/libgcc.a(libunwind.o)
___Unwind_Resume                                  /home/antodom/installations/ChibiStudio/tools/GNU Tools ARM Embedded/8.3.1 2019q3/bin/../lib/gcc/arm-none-eabi/8.3.1/thumb/v7e-m/nofp/libgcc.a(libunwind.o)
___Unwind_Resume_or_Rethrow                       /home/antodom/installations/ChibiStudio/tools/GNU Tools ARM Embedded/8.3.1 2019q3/bin/../lib/gcc/arm-none-eabi/8.3.1/thumb/v7e-m/nofp/libgcc.a(libunwind.o)
__adddf3                                          /home/antodom/installations/ChibiStudio/tools/GNU Tools ARM Embedded/8.3.1 2019q3/bin/../lib/gcc/arm-none-eabi/8.3.1/thumb/v7e-m/nofp/libgcc.a(_arm_addsubdf3.o)
__aeabi_atexit                                    /home/antodom/installations/ChibiStudio/tools/GNU Tools ARM Embedded/8.3.1 2019q3/bin/../lib/gcc/arm-none-eabi/8.3.1/../../../../arm-none-eabi/lib/thumb/v7e-m/nofp/libstdc++.a(atexit_arm.o)
                                                  /tmp/ccxSiIU7.ltrans0.ltrans.o
                                                  ./build/obj/main.o (symbol from plugin)
__aeabi_cdcmpeq                                   /home/antodom/installations/ChibiStudio/tools/GNU Tools ARM Embedded/8.3.1 2019q3/bin/../lib/gcc/arm-none-eabi/8.3.1/thumb/v7e-m/nofp/libgcc.a(_arm_cmpdf2.o)
__aeabi_cdcmple                                   /home/antodom/installations/ChibiStudio/tools/GNU Tools ARM Embedded/8.3.1 2019q3/bin/../lib/gcc/arm-none-eabi/8.3.1/thumb/v7e-m/nofp/libgcc.a(_arm_cmpdf2.o)
__aeabi_cdrcmple                                  /home/antodom/installations/ChibiStudio/tools/GNU Tools ARM Embedded/8.3.1 2019q3/bin/../lib/gcc/arm-none-eabi/8.3.1/thumb/v7e-m/nofp/libgcc.a(_arm_cmpdf2.o)
__aeabi_d2iz                                      /home/antodom/installations/ChibiStudio/tools/GNU Tools ARM Embedded/8.3.1 2019q3/bin/../lib/gcc/arm-none-eabi/8.3.1/thumb/v7e-m/nofp/libgcc.a(_arm_fixdfsi.o)
                                                  /home/antodom/installations/ChibiStudio/tools/GNU Tools ARM Embedded/8.3.1 2019q3/bin/../lib/gcc/arm-none-eabi/8.3.1/../../../../arm-none-eabi/lib/thumb/v7e-m/nofp/libg.a(lib_a-dtoa.o)
                                                  /home/antodom/installations/ChibiStudio/tools/GNU Tools ARM Embedded/8.3.1 2019q3/bin/../lib/gcc/arm-none-eabi/8.3.1/../../../../arm-none-eabi/lib/thumb/v7e-m/nofp/libg.a(lib_a-svfprintf.o)
__aeabi_dadd                                      /home/antodom/installations/ChibiStudio/tools/GNU Tools ARM Embedded/8.3.1 2019q3/bin/../lib/gcc/arm-none-eabi/8.3.1/thumb/v7e-m/nofp/libgcc.a(_arm_addsubdf3.o)
                                                  /home/antodom/installations/ChibiStudio/tools/GNU Tools ARM Embedded/8.3.1 2019q3/bin/../lib/gcc/arm-none-eabi/8.3.1/../../../../arm-none-eabi/lib/thumb/v7e-m/nofp/libg.a(lib_a-dtoa.o)
__aeabi_dcmpeq                                    /home/antodom/installations/ChibiStudio/tools/GNU Tools ARM Embedded/8.3.1 2019q3/bin/../lib/gcc/arm-none-eabi/8.3.1/thumb/v7e-m/nofp/libgcc.a(_arm_cmpdf2.o)
                                                  /home/antodom/installations/ChibiStudio/tools/GNU Tools ARM Embedded/8.3.1 2019q3/bin/../lib/gcc/arm-none-eabi/8.3.1/../../../../arm-none-eabi/lib/thumb/v7e-m/nofp/libg.a(lib_a-dtoa.o)
                                                  /home/antodom/installations/ChibiStudio/tools/GNU Tools ARM Embedded/8.3.1 2019q3/bin/../lib/gcc/arm-none-eabi/8.3.1/../../../../arm-none-eabi/lib/thumb/v7e-m/nofp/libg.a(lib_a-svfprintf.o)
__aeabi_dcmpge                                    /home/antodom/installations/ChibiStudio/tools/GNU Tools ARM Embedded/8.3.1 2019q3/bin/../lib/gcc/arm-none-eabi/8.3.1/thumb/v7e-m/nofp/libgcc.a(_arm_cmpdf2.o)
                                                  /home/antodom/installations/ChibiStudio/tools/GNU Tools ARM Embedded/8.3.1 2019q3/bin/../lib/gcc/arm-none-eabi/8.3.1/../../../../arm-none-eabi/lib/thumb/v7e-m/nofp/libg.a(lib_a-dtoa.o)
__aeabi_dcmpgt                                    /home/antodom/installations/ChibiStudio/tools/GNU Tools ARM Embedded/8.3.1 2019q3/bin/../lib/gcc/arm-none-eabi/8.3.1/thumb/v7e-m/nofp/libgcc.a(_arm_cmpdf2.o)
                                                  /home/antodom/installations/ChibiStudio/tools/GNU Tools ARM Embedded/8.3.1 2019q3/bin/../lib/gcc/arm-none-eabi/8.3.1/../../../../arm-none-eabi/lib/thumb/v7e-m/nofp/libg.a(lib_a-dtoa.o)
                                                  /home/antodom/installations/ChibiStudio/tools/GNU Tools ARM Embedded/8.3.1 2019q3/bin/../lib/gcc/arm-none-eabi/8.3.1/../../../../arm-none-eabi/lib/thumb/v7e-m/nofp/libg.a(lib_a-svfprintf.o)
__aeabi_dcmple                                    /home/antodom/installations/ChibiStudio/tools/GNU Tools ARM Embedded/8.3.1 2019q3/bin/../lib/gcc/arm-none-eabi/8.3.1/thumb/v7e-m/nofp/libgcc.a(_arm_cmpdf2.o)
                                                  /home/antodom/installations/ChibiStudio/tools/GNU Tools ARM Embedded/8.3.1 2019q3/bin/../lib/gcc/arm-none-eabi/8.3.1/../../../../arm-none-eabi/lib/thumb/v7e-m/nofp/libg.a(lib_a-svfprintf.o)
__aeabi_dcmplt                                    /home/antodom/installations/ChibiStudio/tools/GNU Tools ARM Embedded/8.3.1 2019q3/bin/../lib/gcc/arm-none-eabi/8.3.1/thumb/v7e-m/nofp/libgcc.a(_arm_cmpdf2.o)
                                                  /home/antodom/installations/ChibiStudio/tools/GNU Tools ARM Embedded/8.3.1 2019q3/bin/../lib/gcc/arm-none-eabi/8.3.1/../../../../arm-none-eabi/lib/thumb/v7e-m/nofp/libg.a(lib_a-dtoa.o)
                                                  /home/antodom/installations/ChibiStudio/tools/GNU Tools ARM Embedded/8.3.1 2019q3/bin/../lib/gcc/arm-none-eabi/8.3.1/../../../../arm-none-eabi/lib/thumb/v7e-m/nofp/libg.a(lib_a-svfprintf.o)
__aeabi_dcmpun                                    /home/antodom/installations/ChibiStudio/tools/GNU Tools ARM Embedded/8.3.1 2019q3/bin/../lib/gcc/arm-none-eabi/8.3.1/thumb/v7e-m/nofp/libgcc.a(_arm_unorddf2.o)
                                                  /home/antodom/installations/ChibiStudio/tools/GNU Tools ARM Embedded/8.3.1 2019q3/bin/../lib/gcc/arm-none-eabi/8.3.1/../../../../arm-none-eabi/lib/thumb/v7e-m/nofp/libg.a(lib_a-svfprintf.o)
__aeabi_ddiv                                      /home/antodom/installations/ChibiStudio/tools/GNU Tools ARM Embedded/8.3.1 2019q3/bin/../lib/gcc/arm-none-eabi/8.3.1/thumb/v7e-m/nofp/libgcc.a(_arm_muldivdf3.o)
                                                  /home/antodom/installations/ChibiStudio/tools/GNU Tools ARM Embedded/8.3.1 2019q3/bin/../lib/gcc/arm-none-eabi/8.3.1/../../../../arm-none-eabi/lib/thumb/v7e-m/nofp/libg.a(lib_a-mprec.o)
                                                  /home/antodom/installations/ChibiStudio/tools/GNU Tools ARM Embedded/8.3.1 2019q3/bin/../lib/gcc/arm-none-eabi/8.3.1/../../../../arm-none-eabi/lib/thumb/v7e-m/nofp/libg.a(lib_a-dtoa.o)
__aeabi_dmul                                      /home/antodom/installations/ChibiStudio/tools/GNU Tools ARM Embedded/8.3.1 2019q3/bin/../lib/gcc/arm-none-eabi/8.3.1/thumb/v7e-m/nofp/libgcc.a(_arm_muldivdf3.o)
                                                  /home/antodom/installations/ChibiStudio/tools/GNU Tools ARM Embedded/8.3.1 2019q3/bin/../lib/gcc/arm-none-eabi/8.3.1/../../../../arm-none-eabi/lib/thumb/v7e-m/nofp/libg.a(lib_a-s_frexp.o)
                                                  /home/antodom/installations/ChibiStudio/tools/GNU Tools ARM Embedded/8.3.1 2019q3/bin/../lib/gcc/arm-none-eabi/8.3.1/../../../../arm-none-eabi/lib/thumb/v7e-m/nofp/libg.a(lib_a-mprec.o)
                                                  /home/antodom/installations/ChibiStudio/tools/GNU Tools ARM Embedded/8.3.1 2019q3/bin/../lib/gcc/arm-none-eabi/8.3.1/../../../../arm-none-eabi/lib/thumb/v7e-m/nofp/libg.a(lib_a-dtoa.o)
                                                  /home/antodom/installations/ChibiStudio/tools/GNU Tools ARM Embedded/8.3.1 2019q3/bin/../lib/gcc/arm-none-eabi/8.3.1/../../../../arm-none-eabi/lib/thumb/v7e-m/nofp/libg.a(lib_a-svfprintf.o)
__aeabi_drsub                                     /home/antodom/installations/ChibiStudio/tools/GNU Tools ARM Embedded/8.3.1 2019q3/bin/../lib/gcc/arm-none-eabi/8.3.1/thumb/v7e-m/nofp/libgcc.a(_arm_addsubdf3.o)
__aeabi_dsub                                      /home/antodom/installations/ChibiStudio/tools/GNU Tools ARM Embedded/8.3.1 2019q3/bin/../lib/gcc/arm-none-eabi/8.3.1/thumb/v7e-m/nofp/libgcc.a(_arm_addsubdf3.o)
                                                  /home/antodom/installations/ChibiStudio/tools/GNU Tools ARM Embedded/8.3.1 2019q3/bin/../lib/gcc/arm-none-eabi/8.3.1/../../../../arm-none-eabi/lib/thumb/v7e-m/nofp/libg.a(lib_a-dtoa.o)
                                                  /home/antodom/installations/ChibiStudio/tools/GNU Tools ARM Embedded/8.3.1 2019q3/bin/../lib/gcc/arm-none-eabi/8.3.1/../../../../arm-none-eabi/lib/thumb/v7e-m/nofp/libg.a(lib_a-svfprintf.o)
__aeabi_f2d                                       /home/antodom/installations/ChibiStudio/tools/GNU Tools ARM Embedded/8.3.1 2019q3/bin/../lib/gcc/arm-none-eabi/8.3.1/thumb/v7e-m/nofp/libgcc.a(_arm_addsubdf3.o)
__aeabi_i2d                                       /home/antodom/installations/ChibiStudio/tools/GNU Tools ARM Embedded/8.3.1 2019q3/bin/../lib/gcc/arm-none-eabi/8.3.1/thumb/v7e-m/nofp/libgcc.a(_arm_addsubdf3.o)
                                                  /home/antodom/installations/ChibiStudio/tools/GNU Tools ARM Embedded/8.3.1 2019q3/bin/../lib/gcc/arm-none-eabi/8.3.1/../../../../arm-none-eabi/lib/thumb/v7e-m/nofp/libg.a(lib_a-dtoa.o)
                                                  /home/antodom/installations/ChibiStudio/tools/GNU Tools ARM Embedded/8.3.1 2019q3/bin/../lib/gcc/arm-none-eabi/8.3.1/../../../../arm-none-eabi/lib/thumb/v7e-m/nofp/libg.a(lib_a-svfprintf.o)
__aeabi_idiv0                                     /home/antodom/installations/ChibiStudio/tools/GNU Tools ARM Embedded/8.3.1 2019q3/bin/../lib/gcc/arm-none-eabi/8.3.1/thumb/v7e-m/nofp/libgcc.a(_dvmd_tls.o)
__aeabi_l2d                                       /home/antodom/installations/ChibiStudio/tools/GNU Tools ARM Embedded/8.3.1 2019q3/bin/../lib/gcc/arm-none-eabi/8.3.1/thumb/v7e-m/nofp/libgcc.a(_arm_addsubdf3.o)
__aeabi_ldiv0                                     /home/antodom/installations/ChibiStudio/tools/GNU Tools ARM Embedded/8.3.1 2019q3/bin/../lib/gcc/arm-none-eabi/8.3.1/thumb/v7e-m/nofp/libgcc.a(_dvmd_tls.o)
                                                  /home/antodom/installations/ChibiStudio/tools/GNU Tools ARM Embedded/8.3.1 2019q3/bin/../lib/gcc/arm-none-eabi/8.3.1/thumb/v7e-m/nofp/libgcc.a(_aeabi_ldivmod.o)
                                                  /home/antodom/installations/ChibiStudio/tools/GNU Tools ARM Embedded/8.3.1 2019q3/bin/../lib/gcc/arm-none-eabi/8.3.1/thumb/v7e-m/nofp/libgcc.a(_aeabi_uldivmod.o)
__aeabi_ldivmod                                   /home/antodom/installations/ChibiStudio/tools/GNU Tools ARM Embedded/8.3.1 2019q3/bin/../lib/gcc/arm-none-eabi/8.3.1/thumb/v7e-m/nofp/libgcc.a(_aeabi_ldivmod.o)
                                                  /tmp/ccxSiIU7.ltrans0.ltrans.o
__aeabi_ui2d                                      /home/antodom/installations/ChibiStudio/tools/GNU Tools ARM Embedded/8.3.1 2019q3/bin/../lib/gcc/arm-none-eabi/8.3.1/thumb/v7e-m/nofp/libgcc.a(_arm_addsubdf3.o)
                                                  /home/antodom/installations/ChibiStudio/tools/GNU Tools ARM Embedded/8.3.1 2019q3/bin/../lib/gcc/arm-none-eabi/8.3.1/../../../../arm-none-eabi/lib/thumb/v7e-m/nofp/libg.a(lib_a-dtoa.o)
__aeabi_ul2d                                      /home/antodom/installations/ChibiStudio/tools/GNU Tools ARM Embedded/8.3.1 2019q3/bin/../lib/gcc/arm-none-eabi/8.3.1/thumb/v7e-m/nofp/libgcc.a(_arm_addsubdf3.o)
__aeabi_uldivmod                                  /home/antodom/installations/ChibiStudio/tools/GNU Tools ARM Embedded/8.3.1 2019q3/bin/../lib/gcc/arm-none-eabi/8.3.1/thumb/v7e-m/nofp/libgcc.a(_aeabi_uldivmod.o)
                                                  /tmp/ccxSiIU7.ltrans0.ltrans.o
                                                  /home/antodom/installations/ChibiStudio/tools/GNU Tools ARM Embedded/8.3.1 2019q3/bin/../lib/gcc/arm-none-eabi/8.3.1/../../../../arm-none-eabi/lib/thumb/v7e-m/nofp/libg.a(lib_a-svfiprintf.o)
                                                  /home/antodom/installations/ChibiStudio/tools/GNU Tools ARM Embedded/8.3.1 2019q3/bin/../lib/gcc/arm-none-eabi/8.3.1/../../../../arm-none-eabi/lib/thumb/v7e-m/nofp/libg.a(lib_a-svfprintf.o)
__aeabi_unwind_cpp_pr0                            /home/antodom/installations/ChibiStudio/tools/GNU Tools ARM Embedded/8.3.1 2019q3/bin/../lib/gcc/arm-none-eabi/8.3.1/thumb/v7e-m/nofp/libgcc.a(unwind-arm.o)
                                                  /tmp/ccxSiIU7.ltrans0.ltrans.o
                                                  /home/antodom/installations/ChibiStudio/tools/GNU Tools ARM Embedded/8.3.1 2019q3/bin/../lib/gcc/arm-none-eabi/8.3.1/thumb/v7e-m/nofp/libgcc.a(pr-support.o)
                                                  /home/antodom/installations/ChibiStudio/tools/GNU Tools ARM Embedded/8.3.1 2019q3/bin/../lib/gcc/arm-none-eabi/8.3.1/../../../../arm-none-eabi/lib/thumb/v7e-m/nofp/libstdc++.a(class_type_info.o)
                                                  /home/antodom/installations/ChibiStudio/tools/GNU Tools ARM Embedded/8.3.1 2019q3/bin/../lib/gcc/arm-none-eabi/8.3.1/../../../../arm-none-eabi/lib/thumb/v7e-m/nofp/libstdc++.a(si_class_type_info.o)
                                                  /home/antodom/installations/ChibiStudio/tools/GNU Tools ARM Embedded/8.3.1 2019q3/bin/../lib/gcc/arm-none-eabi/8.3.1/../../../../arm-none-eabi/lib/thumb/v7e-m/nofp/libstdc++.a(eh_throw.o)
                                                  /home/antodom/installations/ChibiStudio/tools/GNU Tools ARM Embedded/8.3.1 2019q3/bin/../lib/gcc/arm-none-eabi/8.3.1/../../../../arm-none-eabi/lib/thumb/v7e-m/nofp/libstdc++.a(eh_arm.o)
                                                  /home/antodom/installations/ChibiStudio/tools/GNU Tools ARM Embedded/8.3.1 2019q3/bin/../lib/gcc/arm-none-eabi/8.3.1/../../../../arm-none-eabi/lib/thumb/v7e-m/nofp/libstdc++.a(eh_personality.o)
__aeabi_unwind_cpp_pr1                            /home/antodom/installations/ChibiStudio/tools/GNU Tools ARM Embedded/8.3.1 2019q3/bin/../lib/gcc/arm-none-eabi/8.3.1/thumb/v7e-m/nofp/libgcc.a(unwind-arm.o)
                                                  /home/antodom/installations/ChibiStudio/tools/GNU Tools ARM Embedded/8.3.1 2019q3/bin/../lib/gcc/arm-none-eabi/8.3.1/thumb/v7e-m/nofp/libgcc.a(pr-support.o)
                                                  /home/antodom/installations/ChibiStudio/tools/GNU Tools ARM Embedded/8.3.1 2019q3/bin/../lib/gcc/arm-none-eabi/8.3.1/../../../../arm-none-eabi/lib/thumb/v7e-m/nofp/libstdc++.a(eh_terminate.o)
                                                  /home/antodom/installations/ChibiStudio/tools/GNU Tools ARM Embedded/8.3.1 2019q3/bin/../lib/gcc/arm-none-eabi/8.3.1/../../../../arm-none-eabi/lib/thumb/v7e-m/nofp/libstdc++.a(eh_personality.o)
__aeabi_unwind_cpp_pr2                            /home/antodom/installations/ChibiStudio/tools/GNU Tools ARM Embedded/8.3.1 2019q3/bin/../lib/gcc/arm-none-eabi/8.3.1/thumb/v7e-m/nofp/libgcc.a(unwind-arm.o)
__any_on                                          /home/antodom/installations/ChibiStudio/tools/GNU Tools ARM Embedded/8.3.1 2019q3/bin/../lib/gcc/arm-none-eabi/8.3.1/../../../../arm-none-eabi/lib/thumb/v7e-m/nofp/libg.a(lib_a-mprec.o)
__ascii_mbtowc                                    /home/antodom/installations/ChibiStudio/tools/GNU Tools ARM Embedded/8.3.1 2019q3/bin/../lib/gcc/arm-none-eabi/8.3.1/../../../../arm-none-eabi/lib/thumb/v7e-m/nofp/libg.a(lib_a-mbtowc_r.o)
                                                  /home/antodom/installations/ChibiStudio/tools/GNU Tools ARM Embedded/8.3.1 2019q3/bin/../lib/gcc/arm-none-eabi/8.3.1/../../../../arm-none-eabi/lib/thumb/v7e-m/nofp/libg.a(lib_a-locale.o)
__ascii_wctomb                                    /home/antodom/installations/ChibiStudio/tools/GNU Tools ARM Embedded/8.3.1 2019q3/bin/../lib/gcc/arm-none-eabi/8.3.1/../../../../arm-none-eabi/lib/thumb/v7e-m/nofp/libg.a(lib_a-wctomb_r.o)
                                                  /home/antodom/installations/ChibiStudio/tools/GNU Tools ARM Embedded/8.3.1 2019q3/bin/../lib/gcc/arm-none-eabi/8.3.1/../../../../arm-none-eabi/lib/thumb/v7e-m/nofp/libg.a(lib_a-locale.o)
__atexit_recursive_mutex                          /home/antodom/installations/ChibiStudio/tools/GNU Tools ARM Embedded/8.3.1 2019q3/bin/../lib/gcc/arm-none-eabi/8.3.1/../../../../arm-none-eabi/lib/thumb/v7e-m/nofp/libg.a(lib_a-__call_atexit.o)
                                                  /home/antodom/installations/ChibiStudio/tools/GNU Tools ARM Embedded/8.3.1 2019q3/bin/../lib/gcc/arm-none-eabi/8.3.1/../../../../arm-none-eabi/lib/thumb/v7e-m/nofp/libg.a(lib_a-__atexit.o)
__b2d                                             /home/antodom/installations/ChibiStudio/tools/GNU Tools ARM Embedded/8.3.1 2019q3/bin/../lib/gcc/arm-none-eabi/8.3.1/../../../../arm-none-eabi/lib/thumb/v7e-m/nofp/libg.a(lib_a-mprec.o)
__call_exitprocs                                  /home/antodom/installations/ChibiStudio/tools/GNU Tools ARM Embedded/8.3.1 2019q3/bin/../lib/gcc/arm-none-eabi/8.3.1/../../../../arm-none-eabi/lib/thumb/v7e-m/nofp/libg.a(lib_a-__call_atexit.o)
__cmpdf2                                          /home/antodom/installations/ChibiStudio/tools/GNU Tools ARM Embedded/8.3.1 2019q3/bin/../lib/gcc/arm-none-eabi/8.3.1/thumb/v7e-m/nofp/libgcc.a(_arm_cmpdf2.o)
__copybits                                        /home/antodom/installations/ChibiStudio/tools/GNU Tools ARM Embedded/8.3.1 2019q3/bin/../lib/gcc/arm-none-eabi/8.3.1/../../../../arm-none-eabi/lib/thumb/v7e-m/nofp/libg.a(lib_a-mprec.o)
__core_init                                       /tmp/ccxSiIU7.ltrans0.ltrans.o
                                                  ./build/obj/crt1.o (symbol from plugin)
                                                  ./build/obj/crt0_v7m.o
__cxa_allocate_dependent_exception                /home/antodom/installations/ChibiStudio/tools/GNU Tools ARM Embedded/8.3.1 2019q3/bin/../lib/gcc/arm-none-eabi/8.3.1/../../../../arm-none-eabi/lib/thumb/v7e-m/nofp/libstdc++.a(eh_alloc.o)
__cxa_allocate_exception                          /home/antodom/installations/ChibiStudio/tools/GNU Tools ARM Embedded/8.3.1 2019q3/bin/../lib/gcc/arm-none-eabi/8.3.1/../../../../arm-none-eabi/lib/thumb/v7e-m/nofp/libstdc++.a(eh_alloc.o)
                                                  /home/antodom/installations/ChibiStudio/tools/GNU Tools ARM Embedded/8.3.1 2019q3/bin/../lib/gcc/arm-none-eabi/8.3.1/../../../../arm-none-eabi/lib/thumb/v7e-m/nofp/libstdc++.a(eh_call.o)
__cxa_atexit                                      /home/antodom/installations/ChibiStudio/tools/GNU Tools ARM Embedded/8.3.1 2019q3/bin/../lib/gcc/arm-none-eabi/8.3.1/../../../../arm-none-eabi/lib/thumb/v7e-m/nofp/libg.a(lib_a-cxa_atexit.o)
                                                  /home/antodom/installations/ChibiStudio/tools/GNU Tools ARM Embedded/8.3.1 2019q3/bin/../lib/gcc/arm-none-eabi/8.3.1/../../../../arm-none-eabi/lib/thumb/v7e-m/nofp/libstdc++.a(atexit_arm.o)
__cxa_begin_catch                                 /home/antodom/installations/ChibiStudio/tools/GNU Tools ARM Embedded/8.3.1 2019q3/bin/../lib/gcc/arm-none-eabi/8.3.1/../../../../arm-none-eabi/lib/thumb/v7e-m/nofp/libstdc++.a(eh_catch.o)
                                                  /home/antodom/installations/ChibiStudio/tools/GNU Tools ARM Embedded/8.3.1 2019q3/bin/../lib/gcc/arm-none-eabi/8.3.1/../../../../arm-none-eabi/lib/thumb/v7e-m/nofp/libstdc++.a(vterminate.o)
                                                  /home/antodom/installations/ChibiStudio/tools/GNU Tools ARM Embedded/8.3.1 2019q3/bin/../lib/gcc/arm-none-eabi/8.3.1/../../../../arm-none-eabi/lib/thumb/v7e-m/nofp/libstdc++.a(eh_throw.o)
                                                  /home/antodom/installations/ChibiStudio/tools/GNU Tools ARM Embedded/8.3.1 2019q3/bin/../lib/gcc/arm-none-eabi/8.3.1/../../../../arm-none-eabi/lib/thumb/v7e-m/nofp/libstdc++.a(eh_terminate.o)
                                                  /home/antodom/installations/ChibiStudio/tools/GNU Tools ARM Embedded/8.3.1 2019q3/bin/../lib/gcc/arm-none-eabi/8.3.1/../../../../arm-none-eabi/lib/thumb/v7e-m/nofp/libstdc++.a(eh_call.o)
                                                  /home/antodom/installations/ChibiStudio/tools/GNU Tools ARM Embedded/8.3.1 2019q3/bin/../lib/gcc/arm-none-eabi/8.3.1/../../../../arm-none-eabi/lib/thumb/v7e-m/nofp/libstdc++.a(eh_personality.o)
__cxa_begin_cleanup                               /home/antodom/installations/ChibiStudio/tools/GNU Tools ARM Embedded/8.3.1 2019q3/bin/../lib/gcc/arm-none-eabi/8.3.1/../../../../arm-none-eabi/lib/thumb/v7e-m/nofp/libstdc++.a(eh_arm.o)
                                                  /home/antodom/installations/ChibiStudio/tools/GNU Tools ARM Embedded/8.3.1 2019q3/bin/../lib/gcc/arm-none-eabi/8.3.1/thumb/v7e-m/nofp/libgcc.a(unwind-arm.o)
                                                  /home/antodom/installations/ChibiStudio/tools/GNU Tools ARM Embedded/8.3.1 2019q3/bin/../lib/gcc/arm-none-eabi/8.3.1/../../../../arm-none-eabi/lib/thumb/v7e-m/nofp/libstdc++.a(eh_personality.o)
__cxa_call_terminate                              /home/antodom/installations/ChibiStudio/tools/GNU Tools ARM Embedded/8.3.1 2019q3/bin/../lib/gcc/arm-none-eabi/8.3.1/../../../../arm-none-eabi/lib/thumb/v7e-m/nofp/libstdc++.a(eh_call.o)
                                                  /home/antodom/installations/ChibiStudio/tools/GNU Tools ARM Embedded/8.3.1 2019q3/bin/../lib/gcc/arm-none-eabi/8.3.1/../../../../arm-none-eabi/lib/thumb/v7e-m/nofp/libstdc++.a(eh_personality.o)
__cxa_call_unexpected                             /home/antodom/installations/ChibiStudio/tools/GNU Tools ARM Embedded/8.3.1 2019q3/bin/../lib/gcc/arm-none-eabi/8.3.1/../../../../arm-none-eabi/lib/thumb/v7e-m/nofp/libstdc++.a(eh_call.o)
                                                  /home/antodom/installations/ChibiStudio/tools/GNU Tools ARM Embedded/8.3.1 2019q3/bin/../lib/gcc/arm-none-eabi/8.3.1/thumb/v7e-m/nofp/libgcc.a(unwind-arm.o)
                                                  /home/antodom/installations/ChibiStudio/tools/GNU Tools ARM Embedded/8.3.1 2019q3/bin/../lib/gcc/arm-none-eabi/8.3.1/../../../../arm-none-eabi/lib/thumb/v7e-m/nofp/libstdc++.a(eh_terminate.o)
__cxa_current_exception_type                      /home/antodom/installations/ChibiStudio/tools/GNU Tools ARM Embedded/8.3.1 2019q3/bin/../lib/gcc/arm-none-eabi/8.3.1/../../../../arm-none-eabi/lib/thumb/v7e-m/nofp/libstdc++.a(eh_type.o)
                                                  /home/antodom/installations/ChibiStudio/tools/GNU Tools ARM Embedded/8.3.1 2019q3/bin/../lib/gcc/arm-none-eabi/8.3.1/../../../../arm-none-eabi/lib/thumb/v7e-m/nofp/libstdc++.a(vterminate.o)
__cxa_demangle                                    /home/antodom/installations/ChibiStudio/tools/GNU Tools ARM Embedded/8.3.1 2019q3/bin/../lib/gcc/arm-none-eabi/8.3.1/../../../../arm-none-eabi/lib/thumb/v7e-m/nofp/libstdc++.a(cp-demangle.o)
                                                  /home/antodom/installations/ChibiStudio/tools/GNU Tools ARM Embedded/8.3.1 2019q3/bin/../lib/gcc/arm-none-eabi/8.3.1/../../../../arm-none-eabi/lib/thumb/v7e-m/nofp/libstdc++.a(vterminate.o)
__cxa_end_catch                                   /home/antodom/installations/ChibiStudio/tools/GNU Tools ARM Embedded/8.3.1 2019q3/bin/../lib/gcc/arm-none-eabi/8.3.1/../../../../arm-none-eabi/lib/thumb/v7e-m/nofp/libstdc++.a(eh_catch.o)
                                                  /home/antodom/installations/ChibiStudio/tools/GNU Tools ARM Embedded/8.3.1 2019q3/bin/../lib/gcc/arm-none-eabi/8.3.1/../../../../arm-none-eabi/lib/thumb/v7e-m/nofp/libstdc++.a(vterminate.o)
                                                  /home/antodom/installations/ChibiStudio/tools/GNU Tools ARM Embedded/8.3.1 2019q3/bin/../lib/gcc/arm-none-eabi/8.3.1/../../../../arm-none-eabi/lib/thumb/v7e-m/nofp/libstdc++.a(eh_terminate.o)
                                                  /home/antodom/installations/ChibiStudio/tools/GNU Tools ARM Embedded/8.3.1 2019q3/bin/../lib/gcc/arm-none-eabi/8.3.1/../../../../arm-none-eabi/lib/thumb/v7e-m/nofp/libstdc++.a(eh_call.o)
__cxa_end_cleanup                                 /home/antodom/installations/ChibiStudio/tools/GNU Tools ARM Embedded/8.3.1 2019q3/bin/../lib/gcc/arm-none-eabi/8.3.1/../../../../arm-none-eabi/lib/thumb/v7e-m/nofp/libstdc++.a(eh_arm.o)
                                                  /home/antodom/installations/ChibiStudio/tools/GNU Tools ARM Embedded/8.3.1 2019q3/bin/../lib/gcc/arm-none-eabi/8.3.1/../../../../arm-none-eabi/lib/thumb/v7e-m/nofp/libstdc++.a(vterminate.o)
                                                  /home/antodom/installations/ChibiStudio/tools/GNU Tools ARM Embedded/8.3.1 2019q3/bin/../lib/gcc/arm-none-eabi/8.3.1/../../../../arm-none-eabi/lib/thumb/v7e-m/nofp/libstdc++.a(eh_terminate.o)
                                                  /home/antodom/installations/ChibiStudio/tools/GNU Tools ARM Embedded/8.3.1 2019q3/bin/../lib/gcc/arm-none-eabi/8.3.1/../../../../arm-none-eabi/lib/thumb/v7e-m/nofp/libstdc++.a(eh_call.o)
__cxa_free_dependent_exception                    /home/antodom/installations/ChibiStudio/tools/GNU Tools ARM Embedded/8.3.1 2019q3/bin/../lib/gcc/arm-none-eabi/8.3.1/../../../../arm-none-eabi/lib/thumb/v7e-m/nofp/libstdc++.a(eh_alloc.o)
__cxa_free_exception                              /home/antodom/installations/ChibiStudio/tools/GNU Tools ARM Embedded/8.3.1 2019q3/bin/../lib/gcc/arm-none-eabi/8.3.1/../../../../arm-none-eabi/lib/thumb/v7e-m/nofp/libstdc++.a(eh_alloc.o)
                                                  /home/antodom/installations/ChibiStudio/tools/GNU Tools ARM Embedded/8.3.1 2019q3/bin/../lib/gcc/arm-none-eabi/8.3.1/../../../../arm-none-eabi/lib/thumb/v7e-m/nofp/libstdc++.a(eh_throw.o)
__cxa_get_exception_ptr                           /home/antodom/installations/ChibiStudio/tools/GNU Tools ARM Embedded/8.3.1 2019q3/bin/../lib/gcc/arm-none-eabi/8.3.1/../../../../arm-none-eabi/lib/thumb/v7e-m/nofp/libstdc++.a(eh_catch.o)
__cxa_get_globals                                 /home/antodom/installations/ChibiStudio/tools/GNU Tools ARM Embedded/8.3.1 2019q3/bin/../lib/gcc/arm-none-eabi/8.3.1/../../../../arm-none-eabi/lib/thumb/v7e-m/nofp/libstdc++.a(eh_globals.o)
                                                  /home/antodom/installations/ChibiStudio/tools/GNU Tools ARM Embedded/8.3.1 2019q3/bin/../lib/gcc/arm-none-eabi/8.3.1/../../../../arm-none-eabi/lib/thumb/v7e-m/nofp/libstdc++.a(eh_type.o)
                                                  /home/antodom/installations/ChibiStudio/tools/GNU Tools ARM Embedded/8.3.1 2019q3/bin/../lib/gcc/arm-none-eabi/8.3.1/../../../../arm-none-eabi/lib/thumb/v7e-m/nofp/libstdc++.a(eh_throw.o)
                                                  /home/antodom/installations/ChibiStudio/tools/GNU Tools ARM Embedded/8.3.1 2019q3/bin/../lib/gcc/arm-none-eabi/8.3.1/../../../../arm-none-eabi/lib/thumb/v7e-m/nofp/libstdc++.a(eh_arm.o)
                                                  /home/antodom/installations/ChibiStudio/tools/GNU Tools ARM Embedded/8.3.1 2019q3/bin/../lib/gcc/arm-none-eabi/8.3.1/../../../../arm-none-eabi/lib/thumb/v7e-m/nofp/libstdc++.a(eh_catch.o)
__cxa_get_globals_fast                            /home/antodom/installations/ChibiStudio/tools/GNU Tools ARM Embedded/8.3.1 2019q3/bin/../lib/gcc/arm-none-eabi/8.3.1/../../../../arm-none-eabi/lib/thumb/v7e-m/nofp/libstdc++.a(eh_globals.o)
                                                  /home/antodom/installations/ChibiStudio/tools/GNU Tools ARM Embedded/8.3.1 2019q3/bin/../lib/gcc/arm-none-eabi/8.3.1/../../../../arm-none-eabi/lib/thumb/v7e-m/nofp/libstdc++.a(eh_catch.o)
                                                  /home/antodom/installations/ChibiStudio/tools/GNU Tools ARM Embedded/8.3.1 2019q3/bin/../lib/gcc/arm-none-eabi/8.3.1/../../../../arm-none-eabi/lib/thumb/v7e-m/nofp/libstdc++.a(eh_call.o)
__cxa_init_primary_exception                      /home/antodom/installations/ChibiStudio/tools/GNU Tools ARM Embedded/8.3.1 2019q3/bin/../lib/gcc/arm-none-eabi/8.3.1/../../../../arm-none-eabi/lib/thumb/v7e-m/nofp/libstdc++.a(eh_throw.o)
__cxa_pure_virtual                                /tmp/ccxSiIU7.ltrans0.ltrans.o
                                                  ./build/obj/syscalls_cpp.o (symbol from plugin)
                                                  /home/antodom/installations/ChibiStudio/tools/GNU Tools ARM Embedded/8.3.1 2019q3/bin/../lib/gcc/arm-none-eabi/8.3.1/../../../../arm-none-eabi/lib/thumb/v7e-m/nofp/libstdc++.a(eh_exception.o)
__cxa_rethrow                                     /home/antodom/installations/ChibiStudio/tools/GNU Tools ARM Embedded/8.3.1 2019q3/bin/../lib/gcc/arm-none-eabi/8.3.1/../../../../arm-none-eabi/lib/thumb/v7e-m/nofp/libstdc++.a(eh_throw.o)
                                                  /home/antodom/installations/ChibiStudio/tools/GNU Tools ARM Embedded/8.3.1 2019q3/bin/../lib/gcc/arm-none-eabi/8.3.1/../../../../arm-none-eabi/lib/thumb/v7e-m/nofp/libstdc++.a(vterminate.o)
                                                  /home/antodom/installations/ChibiStudio/tools/GNU Tools ARM Embedded/8.3.1 2019q3/bin/../lib/gcc/arm-none-eabi/8.3.1/../../../../arm-none-eabi/lib/thumb/v7e-m/nofp/libstdc++.a(eh_call.o)
__cxa_throw                                       /home/antodom/installations/ChibiStudio/tools/GNU Tools ARM Embedded/8.3.1 2019q3/bin/../lib/gcc/arm-none-eabi/8.3.1/../../../../arm-none-eabi/lib/thumb/v7e-m/nofp/libstdc++.a(eh_throw.o)
                                                  /home/antodom/installations/ChibiStudio/tools/GNU Tools ARM Embedded/8.3.1 2019q3/bin/../lib/gcc/arm-none-eabi/8.3.1/../../../../arm-none-eabi/lib/thumb/v7e-m/nofp/libstdc++.a(eh_call.o)
__cxa_type_match                                  /home/antodom/installations/ChibiStudio/tools/GNU Tools ARM Embedded/8.3.1 2019q3/bin/../lib/gcc/arm-none-eabi/8.3.1/../../../../arm-none-eabi/lib/thumb/v7e-m/nofp/libstdc++.a(eh_arm.o)
                                                  /home/antodom/installations/ChibiStudio/tools/GNU Tools ARM Embedded/8.3.1 2019q3/bin/../lib/gcc/arm-none-eabi/8.3.1/thumb/v7e-m/nofp/libgcc.a(unwind-arm.o)
                                                  /home/antodom/installations/ChibiStudio/tools/GNU Tools ARM Embedded/8.3.1 2019q3/bin/../lib/gcc/arm-none-eabi/8.3.1/../../../../arm-none-eabi/lib/thumb/v7e-m/nofp/libstdc++.a(eh_call.o)
                                                  /home/antodom/installations/ChibiStudio/tools/GNU Tools ARM Embedded/8.3.1 2019q3/bin/../lib/gcc/arm-none-eabi/8.3.1/../../../../arm-none-eabi/lib/thumb/v7e-m/nofp/libstdc++.a(eh_personality.o)
__cxxabiv1::__class_type_info::__do_catch(std::type_info const*, void**, unsigned int) const /home/antodom/installations/ChibiStudio/tools/GNU Tools ARM Embedded/8.3.1 2019q3/bin/../lib/gcc/arm-none-eabi/8.3.1/../../../../arm-none-eabi/lib/thumb/v7e-m/nofp/libstdc++.a(class_type_info.o)
                                                  /home/antodom/installations/ChibiStudio/tools/GNU Tools ARM Embedded/8.3.1 2019q3/bin/../lib/gcc/arm-none-eabi/8.3.1/../../../../arm-none-eabi/lib/thumb/v7e-m/nofp/libstdc++.a(si_class_type_info.o)
__cxxabiv1::__class_type_info::__do_dyncast(int, __cxxabiv1::__class_type_info::__sub_kind, __cxxabiv1::__class_type_info const*, void const*, __cxxabiv1::__class_type_info const*, void const*, __cxxabiv1::__class_type_info::__dyncast_result&) const /home/antodom/installations/ChibiStudio/tools/GNU Tools ARM Embedded/8.3.1 2019q3/bin/../lib/gcc/arm-none-eabi/8.3.1/../../../../arm-none-eabi/lib/thumb/v7e-m/nofp/libstdc++.a(class_type_info.o)
__cxxabiv1::__class_type_info::__do_find_public_src(int, void const*, __cxxabiv1::__class_type_info const*, void const*) const /home/antodom/installations/ChibiStudio/tools/GNU Tools ARM Embedded/8.3.1 2019q3/bin/../lib/gcc/arm-none-eabi/8.3.1/../../../../arm-none-eabi/lib/thumb/v7e-m/nofp/libstdc++.a(class_type_info.o)
__cxxabiv1::__class_type_info::__do_upcast(__cxxabiv1::__class_type_info const*, void const*, __cxxabiv1::__class_type_info::__upcast_result&) const /home/antodom/installations/ChibiStudio/tools/GNU Tools ARM Embedded/8.3.1 2019q3/bin/../lib/gcc/arm-none-eabi/8.3.1/../../../../arm-none-eabi/lib/thumb/v7e-m/nofp/libstdc++.a(class_type_info.o)
                                                  /home/antodom/installations/ChibiStudio/tools/GNU Tools ARM Embedded/8.3.1 2019q3/bin/../lib/gcc/arm-none-eabi/8.3.1/../../../../arm-none-eabi/lib/thumb/v7e-m/nofp/libstdc++.a(si_class_type_info.o)
__cxxabiv1::__class_type_info::__do_upcast(__cxxabiv1::__class_type_info const*, void**) const /home/antodom/installations/ChibiStudio/tools/GNU Tools ARM Embedded/8.3.1 2019q3/bin/../lib/gcc/arm-none-eabi/8.3.1/../../../../arm-none-eabi/lib/thumb/v7e-m/nofp/libstdc++.a(class_type_info.o)
                                                  /home/antodom/installations/ChibiStudio/tools/GNU Tools ARM Embedded/8.3.1 2019q3/bin/../lib/gcc/arm-none-eabi/8.3.1/../../../../arm-none-eabi/lib/thumb/v7e-m/nofp/libstdc++.a(si_class_type_info.o)
__cxxabiv1::__class_type_info::~__class_type_info() /home/antodom/installations/ChibiStudio/tools/GNU Tools ARM Embedded/8.3.1 2019q3/bin/../lib/gcc/arm-none-eabi/8.3.1/../../../../arm-none-eabi/lib/thumb/v7e-m/nofp/libstdc++.a(class_type_info.o)
__cxxabiv1::__class_type_info::~__class_type_info() /home/antodom/installations/ChibiStudio/tools/GNU Tools ARM Embedded/8.3.1 2019q3/bin/../lib/gcc/arm-none-eabi/8.3.1/../../../../arm-none-eabi/lib/thumb/v7e-m/nofp/libstdc++.a(class_type_info.o)
                                                  /home/antodom/installations/ChibiStudio/tools/GNU Tools ARM Embedded/8.3.1 2019q3/bin/../lib/gcc/arm-none-eabi/8.3.1/../../../../arm-none-eabi/lib/thumb/v7e-m/nofp/libstdc++.a(si_class_type_info.o)
__cxxabiv1::__class_type_info::~__class_type_info() /home/antodom/installations/ChibiStudio/tools/GNU Tools ARM Embedded/8.3.1 2019q3/bin/../lib/gcc/arm-none-eabi/8.3.1/../../../../arm-none-eabi/lib/thumb/v7e-m/nofp/libstdc++.a(class_type_info.o)
__cxxabiv1::__forced_unwind::~__forced_unwind()   /home/antodom/installations/ChibiStudio/tools/GNU Tools ARM Embedded/8.3.1 2019q3/bin/../lib/gcc/arm-none-eabi/8.3.1/../../../../arm-none-eabi/lib/thumb/v7e-m/nofp/libstdc++.a(eh_exception.o)
__cxxabiv1::__forced_unwind::~__forced_unwind()   /home/antodom/installations/ChibiStudio/tools/GNU Tools ARM Embedded/8.3.1 2019q3/bin/../lib/gcc/arm-none-eabi/8.3.1/../../../../arm-none-eabi/lib/thumb/v7e-m/nofp/libstdc++.a(eh_exception.o)
__cxxabiv1::__forced_unwind::~__forced_unwind()   /home/antodom/installations/ChibiStudio/tools/GNU Tools ARM Embedded/8.3.1 2019q3/bin/../lib/gcc/arm-none-eabi/8.3.1/../../../../arm-none-eabi/lib/thumb/v7e-m/nofp/libstdc++.a(eh_exception.o)
__cxxabiv1::__foreign_exception::~__foreign_exception() /home/antodom/installations/ChibiStudio/tools/GNU Tools ARM Embedded/8.3.1 2019q3/bin/../lib/gcc/arm-none-eabi/8.3.1/../../../../arm-none-eabi/lib/thumb/v7e-m/nofp/libstdc++.a(eh_exception.o)
__cxxabiv1::__foreign_exception::~__foreign_exception() /home/antodom/installations/ChibiStudio/tools/GNU Tools ARM Embedded/8.3.1 2019q3/bin/../lib/gcc/arm-none-eabi/8.3.1/../../../../arm-none-eabi/lib/thumb/v7e-m/nofp/libstdc++.a(eh_exception.o)
__cxxabiv1::__foreign_exception::~__foreign_exception() /home/antodom/installations/ChibiStudio/tools/GNU Tools ARM Embedded/8.3.1 2019q3/bin/../lib/gcc/arm-none-eabi/8.3.1/../../../../arm-none-eabi/lib/thumb/v7e-m/nofp/libstdc++.a(eh_exception.o)
__cxxabiv1::__si_class_type_info::__do_dyncast(int, __cxxabiv1::__class_type_info::__sub_kind, __cxxabiv1::__class_type_info const*, void const*, __cxxabiv1::__class_type_info const*, void const*, __cxxabiv1::__class_type_info::__dyncast_result&) const /home/antodom/installations/ChibiStudio/tools/GNU Tools ARM Embedded/8.3.1 2019q3/bin/../lib/gcc/arm-none-eabi/8.3.1/../../../../arm-none-eabi/lib/thumb/v7e-m/nofp/libstdc++.a(si_class_type_info.o)
__cxxabiv1::__si_class_type_info::__do_find_public_src(int, void const*, __cxxabiv1::__class_type_info const*, void const*) const /home/antodom/installations/ChibiStudio/tools/GNU Tools ARM Embedded/8.3.1 2019q3/bin/../lib/gcc/arm-none-eabi/8.3.1/../../../../arm-none-eabi/lib/thumb/v7e-m/nofp/libstdc++.a(si_class_type_info.o)
__cxxabiv1::__si_class_type_info::__do_upcast(__cxxabiv1::__class_type_info const*, void const*, __cxxabiv1::__class_type_info::__upcast_result&) const /home/antodom/installations/ChibiStudio/tools/GNU Tools ARM Embedded/8.3.1 2019q3/bin/../lib/gcc/arm-none-eabi/8.3.1/../../../../arm-none-eabi/lib/thumb/v7e-m/nofp/libstdc++.a(si_class_type_info.o)
__cxxabiv1::__si_class_type_info::~__si_class_type_info() /home/antodom/installations/ChibiStudio/tools/GNU Tools ARM Embedded/8.3.1 2019q3/bin/../lib/gcc/arm-none-eabi/8.3.1/../../../../arm-none-eabi/lib/thumb/v7e-m/nofp/libstdc++.a(si_class_type_info.o)
__cxxabiv1::__si_class_type_info::~__si_class_type_info() /home/antodom/installations/ChibiStudio/tools/GNU Tools ARM Embedded/8.3.1 2019q3/bin/../lib/gcc/arm-none-eabi/8.3.1/../../../../arm-none-eabi/lib/thumb/v7e-m/nofp/libstdc++.a(si_class_type_info.o)
__cxxabiv1::__si_class_type_info::~__si_class_type_info() /home/antodom/installations/ChibiStudio/tools/GNU Tools ARM Embedded/8.3.1 2019q3/bin/../lib/gcc/arm-none-eabi/8.3.1/../../../../arm-none-eabi/lib/thumb/v7e-m/nofp/libstdc++.a(si_class_type_info.o)
__cxxabiv1::__terminate(void (*)())               /home/antodom/installations/ChibiStudio/tools/GNU Tools ARM Embedded/8.3.1 2019q3/bin/../lib/gcc/arm-none-eabi/8.3.1/../../../../arm-none-eabi/lib/thumb/v7e-m/nofp/libstdc++.a(eh_terminate.o)
                                                  /home/antodom/installations/ChibiStudio/tools/GNU Tools ARM Embedded/8.3.1 2019q3/bin/../lib/gcc/arm-none-eabi/8.3.1/../../../../arm-none-eabi/lib/thumb/v7e-m/nofp/libstdc++.a(eh_throw.o)
                                                  /home/antodom/installations/ChibiStudio/tools/GNU Tools ARM Embedded/8.3.1 2019q3/bin/../lib/gcc/arm-none-eabi/8.3.1/../../../../arm-none-eabi/lib/thumb/v7e-m/nofp/libstdc++.a(eh_call.o)
__cxxabiv1::__terminate_handler                   /home/antodom/installations/ChibiStudio/tools/GNU Tools ARM Embedded/8.3.1 2019q3/bin/../lib/gcc/arm-none-eabi/8.3.1/../../../../arm-none-eabi/lib/thumb/v7e-m/nofp/libstdc++.a(eh_term_handler.o)
                                                  /home/antodom/installations/ChibiStudio/tools/GNU Tools ARM Embedded/8.3.1 2019q3/bin/../lib/gcc/arm-none-eabi/8.3.1/../../../../arm-none-eabi/lib/thumb/v7e-m/nofp/libstdc++.a(eh_terminate.o)
__cxxabiv1::__unexpected(void (*)())              /home/antodom/installations/ChibiStudio/tools/GNU Tools ARM Embedded/8.3.1 2019q3/bin/../lib/gcc/arm-none-eabi/8.3.1/../../../../arm-none-eabi/lib/thumb/v7e-m/nofp/libstdc++.a(eh_terminate.o)
                                                  /home/antodom/installations/ChibiStudio/tools/GNU Tools ARM Embedded/8.3.1 2019q3/bin/../lib/gcc/arm-none-eabi/8.3.1/../../../../arm-none-eabi/lib/thumb/v7e-m/nofp/libstdc++.a(eh_call.o)
__cxxabiv1::__unexpected_handler                  /home/antodom/installations/ChibiStudio/tools/GNU Tools ARM Embedded/8.3.1 2019q3/bin/../lib/gcc/arm-none-eabi/8.3.1/../../../../arm-none-eabi/lib/thumb/v7e-m/nofp/libstdc++.a(eh_unex_handler.o)
                                                  /home/antodom/installations/ChibiStudio/tools/GNU Tools ARM Embedded/8.3.1 2019q3/bin/../lib/gcc/arm-none-eabi/8.3.1/../../../../arm-none-eabi/lib/thumb/v7e-m/nofp/libstdc++.a(eh_terminate.o)
__d2b                                             /home/antodom/installations/ChibiStudio/tools/GNU Tools ARM Embedded/8.3.1 2019q3/bin/../lib/gcc/arm-none-eabi/8.3.1/../../../../arm-none-eabi/lib/thumb/v7e-m/nofp/libg.a(lib_a-mprec.o)
                                                  /home/antodom/installations/ChibiStudio/tools/GNU Tools ARM Embedded/8.3.1 2019q3/bin/../lib/gcc/arm-none-eabi/8.3.1/../../../../arm-none-eabi/lib/thumb/v7e-m/nofp/libg.a(lib_a-dtoa.o)
__default_exit                                    /tmp/ccxSiIU7.ltrans0.ltrans.o
                                                  ./build/obj/crt1.o (symbol from plugin)
                                                  ./build/obj/crt0_v7m.o
__divdf3                                          /home/antodom/installations/ChibiStudio/tools/GNU Tools ARM Embedded/8.3.1 2019q3/bin/../lib/gcc/arm-none-eabi/8.3.1/thumb/v7e-m/nofp/libgcc.a(_arm_muldivdf3.o)
__dso_handle                                      ./build/obj/syscalls_cpp.o (symbol from plugin)
                                                  ./build/obj/main.o (symbol from plugin)
__early_init                                      /tmp/ccxSiIU7.ltrans0.ltrans.o
                                                  ./build/obj/board.o (symbol from plugin)
                                                  ./build/obj/crt1.o (symbol from plugin)
                                                  ./build/obj/crt0_v7m.o
__eqdf2                                           /home/antodom/installations/ChibiStudio/tools/GNU Tools ARM Embedded/8.3.1 2019q3/bin/../lib/gcc/arm-none-eabi/8.3.1/thumb/v7e-m/nofp/libgcc.a(_arm_cmpdf2.o)
__exidx_end                                       /home/antodom/installations/ChibiStudio/tools/GNU Tools ARM Embedded/8.3.1 2019q3/bin/../lib/gcc/arm-none-eabi/8.3.1/thumb/v7e-m/nofp/libgcc.a(unwind-arm.o)
__exidx_start                                     /home/antodom/installations/ChibiStudio/tools/GNU Tools ARM Embedded/8.3.1 2019q3/bin/../lib/gcc/arm-none-eabi/8.3.1/thumb/v7e-m/nofp/libgcc.a(unwind-arm.o)
__extendsfdf2                                     /home/antodom/installations/ChibiStudio/tools/GNU Tools ARM Embedded/8.3.1 2019q3/bin/../lib/gcc/arm-none-eabi/8.3.1/thumb/v7e-m/nofp/libgcc.a(_arm_addsubdf3.o)
__fini_array_end                                  /home/antodom/installations/ChibiStudio/tools/GNU Tools ARM Embedded/8.3.1 2019q3/bin/../lib/gcc/arm-none-eabi/8.3.1/../../../../arm-none-eabi/lib/thumb/v7e-m/nofp/libg.a(lib_a-fini.o)
                                                  ./build/obj/crt0_v7m.o
__fini_array_start                                /home/antodom/installations/ChibiStudio/tools/GNU Tools ARM Embedded/8.3.1 2019q3/bin/../lib/gcc/arm-none-eabi/8.3.1/../../../../arm-none-eabi/lib/thumb/v7e-m/nofp/libg.a(lib_a-fini.o)
                                                  ./build/obj/crt0_v7m.o
__fixdfsi                                         /home/antodom/installations/ChibiStudio/tools/GNU Tools ARM Embedded/8.3.1 2019q3/bin/../lib/gcc/arm-none-eabi/8.3.1/thumb/v7e-m/nofp/libgcc.a(_arm_fixdfsi.o)
__floatdidf                                       /home/antodom/installations/ChibiStudio/tools/GNU Tools ARM Embedded/8.3.1 2019q3/bin/../lib/gcc/arm-none-eabi/8.3.1/thumb/v7e-m/nofp/libgcc.a(_arm_addsubdf3.o)
__floatsidf                                       /home/antodom/installations/ChibiStudio/tools/GNU Tools ARM Embedded/8.3.1 2019q3/bin/../lib/gcc/arm-none-eabi/8.3.1/thumb/v7e-m/nofp/libgcc.a(_arm_addsubdf3.o)
__floatundidf                                     /home/antodom/installations/ChibiStudio/tools/GNU Tools ARM Embedded/8.3.1 2019q3/bin/../lib/gcc/arm-none-eabi/8.3.1/thumb/v7e-m/nofp/libgcc.a(_arm_addsubdf3.o)
__floatunsidf                                     /home/antodom/installations/ChibiStudio/tools/GNU Tools ARM Embedded/8.3.1 2019q3/bin/../lib/gcc/arm-none-eabi/8.3.1/thumb/v7e-m/nofp/libgcc.a(_arm_addsubdf3.o)
__fp_lock_all                                     /home/antodom/installations/ChibiStudio/tools/GNU Tools ARM Embedded/8.3.1 2019q3/bin/../lib/gcc/arm-none-eabi/8.3.1/../../../../arm-none-eabi/lib/thumb/v7e-m/nofp/libg.a(lib_a-findfp.o)
__fp_unlock_all                                   /home/antodom/installations/ChibiStudio/tools/GNU Tools ARM Embedded/8.3.1 2019q3/bin/../lib/gcc/arm-none-eabi/8.3.1/../../../../arm-none-eabi/lib/thumb/v7e-m/nofp/libg.a(lib_a-findfp.o)
__gcclibcxx_demangle_callback                     /home/antodom/installations/ChibiStudio/tools/GNU Tools ARM Embedded/8.3.1 2019q3/bin/../lib/gcc/arm-none-eabi/8.3.1/../../../../arm-none-eabi/lib/thumb/v7e-m/nofp/libstdc++.a(cp-demangle.o)
__gedf2                                           /home/antodom/installations/ChibiStudio/tools/GNU Tools ARM Embedded/8.3.1 2019q3/bin/../lib/gcc/arm-none-eabi/8.3.1/thumb/v7e-m/nofp/libgcc.a(_arm_cmpdf2.o)
__global_locale                                   /home/antodom/installations/ChibiStudio/tools/GNU Tools ARM Embedded/8.3.1 2019q3/bin/../lib/gcc/arm-none-eabi/8.3.1/../../../../arm-none-eabi/lib/thumb/v7e-m/nofp/libg.a(lib_a-locale.o)
                                                  /home/antodom/installations/ChibiStudio/tools/GNU Tools ARM Embedded/8.3.1 2019q3/bin/../lib/gcc/arm-none-eabi/8.3.1/../../../../arm-none-eabi/lib/thumb/v7e-m/nofp/libg.a(lib_a-wctomb_r.o)
                                                  /home/antodom/installations/ChibiStudio/tools/GNU Tools ARM Embedded/8.3.1 2019q3/bin/../lib/gcc/arm-none-eabi/8.3.1/../../../../arm-none-eabi/lib/thumb/v7e-m/nofp/libg.a(lib_a-mbtowc_r.o)
                                                  /home/antodom/installations/ChibiStudio/tools/GNU Tools ARM Embedded/8.3.1 2019q3/bin/../lib/gcc/arm-none-eabi/8.3.1/../../../../arm-none-eabi/lib/thumb/v7e-m/nofp/libg.a(lib_a-localeconv.o)
__gnu_Unwind_Backtrace                            /home/antodom/installations/ChibiStudio/tools/GNU Tools ARM Embedded/8.3.1 2019q3/bin/../lib/gcc/arm-none-eabi/8.3.1/thumb/v7e-m/nofp/libgcc.a(unwind-arm.o)
                                                  /home/antodom/installations/ChibiStudio/tools/GNU Tools ARM Embedded/8.3.1 2019q3/bin/../lib/gcc/arm-none-eabi/8.3.1/thumb/v7e-m/nofp/libgcc.a(libunwind.o)
__gnu_Unwind_Find_exidx                           /home/antodom/installations/ChibiStudio/tools/GNU Tools ARM Embedded/8.3.1 2019q3/bin/../lib/gcc/arm-none-eabi/8.3.1/thumb/v7e-m/nofp/libgcc.a(unwind-arm.o)
__gnu_Unwind_ForcedUnwind                         /home/antodom/installations/ChibiStudio/tools/GNU Tools ARM Embedded/8.3.1 2019q3/bin/../lib/gcc/arm-none-eabi/8.3.1/thumb/v7e-m/nofp/libgcc.a(unwind-arm.o)
                                                  /home/antodom/installations/ChibiStudio/tools/GNU Tools ARM Embedded/8.3.1 2019q3/bin/../lib/gcc/arm-none-eabi/8.3.1/thumb/v7e-m/nofp/libgcc.a(libunwind.o)
__gnu_Unwind_RaiseException                       /home/antodom/installations/ChibiStudio/tools/GNU Tools ARM Embedded/8.3.1 2019q3/bin/../lib/gcc/arm-none-eabi/8.3.1/thumb/v7e-m/nofp/libgcc.a(unwind-arm.o)
                                                  /home/antodom/installations/ChibiStudio/tools/GNU Tools ARM Embedded/8.3.1 2019q3/bin/../lib/gcc/arm-none-eabi/8.3.1/thumb/v7e-m/nofp/libgcc.a(libunwind.o)
__gnu_Unwind_Restore_VFP                          /home/antodom/installations/ChibiStudio/tools/GNU Tools ARM Embedded/8.3.1 2019q3/bin/../lib/gcc/arm-none-eabi/8.3.1/thumb/v7e-m/nofp/libgcc.a(libunwind.o)
                                                  /home/antodom/installations/ChibiStudio/tools/GNU Tools ARM Embedded/8.3.1 2019q3/bin/../lib/gcc/arm-none-eabi/8.3.1/thumb/v7e-m/nofp/libgcc.a(unwind-arm.o)
__gnu_Unwind_Restore_VFP_D                        /home/antodom/installations/ChibiStudio/tools/GNU Tools ARM Embedded/8.3.1 2019q3/bin/../lib/gcc/arm-none-eabi/8.3.1/thumb/v7e-m/nofp/libgcc.a(libunwind.o)
                                                  /home/antodom/installations/ChibiStudio/tools/GNU Tools ARM Embedded/8.3.1 2019q3/bin/../lib/gcc/arm-none-eabi/8.3.1/thumb/v7e-m/nofp/libgcc.a(unwind-arm.o)
__gnu_Unwind_Restore_VFP_D_16_to_31               /home/antodom/installations/ChibiStudio/tools/GNU Tools ARM Embedded/8.3.1 2019q3/bin/../lib/gcc/arm-none-eabi/8.3.1/thumb/v7e-m/nofp/libgcc.a(libunwind.o)
                                                  /home/antodom/installations/ChibiStudio/tools/GNU Tools ARM Embedded/8.3.1 2019q3/bin/../lib/gcc/arm-none-eabi/8.3.1/thumb/v7e-m/nofp/libgcc.a(unwind-arm.o)
__gnu_Unwind_Restore_WMMXC                        /home/antodom/installations/ChibiStudio/tools/GNU Tools ARM Embedded/8.3.1 2019q3/bin/../lib/gcc/arm-none-eabi/8.3.1/thumb/v7e-m/nofp/libgcc.a(libunwind.o)
                                                  /home/antodom/installations/ChibiStudio/tools/GNU Tools ARM Embedded/8.3.1 2019q3/bin/../lib/gcc/arm-none-eabi/8.3.1/thumb/v7e-m/nofp/libgcc.a(unwind-arm.o)
__gnu_Unwind_Restore_WMMXD                        /home/antodom/installations/ChibiStudio/tools/GNU Tools ARM Embedded/8.3.1 2019q3/bin/../lib/gcc/arm-none-eabi/8.3.1/thumb/v7e-m/nofp/libgcc.a(libunwind.o)
                                                  /home/antodom/installations/ChibiStudio/tools/GNU Tools ARM Embedded/8.3.1 2019q3/bin/../lib/gcc/arm-none-eabi/8.3.1/thumb/v7e-m/nofp/libgcc.a(unwind-arm.o)
__gnu_Unwind_Resume                               /home/antodom/installations/ChibiStudio/tools/GNU Tools ARM Embedded/8.3.1 2019q3/bin/../lib/gcc/arm-none-eabi/8.3.1/thumb/v7e-m/nofp/libgcc.a(unwind-arm.o)
                                                  /home/antodom/installations/ChibiStudio/tools/GNU Tools ARM Embedded/8.3.1 2019q3/bin/../lib/gcc/arm-none-eabi/8.3.1/thumb/v7e-m/nofp/libgcc.a(libunwind.o)
__gnu_Unwind_Resume_or_Rethrow                    /home/antodom/installations/ChibiStudio/tools/GNU Tools ARM Embedded/8.3.1 2019q3/bin/../lib/gcc/arm-none-eabi/8.3.1/thumb/v7e-m/nofp/libgcc.a(unwind-arm.o)
                                                  /home/antodom/installations/ChibiStudio/tools/GNU Tools ARM Embedded/8.3.1 2019q3/bin/../lib/gcc/arm-none-eabi/8.3.1/thumb/v7e-m/nofp/libgcc.a(libunwind.o)
__gnu_Unwind_Save_VFP                             /home/antodom/installations/ChibiStudio/tools/GNU Tools ARM Embedded/8.3.1 2019q3/bin/../lib/gcc/arm-none-eabi/8.3.1/thumb/v7e-m/nofp/libgcc.a(libunwind.o)
                                                  /home/antodom/installations/ChibiStudio/tools/GNU Tools ARM Embedded/8.3.1 2019q3/bin/../lib/gcc/arm-none-eabi/8.3.1/thumb/v7e-m/nofp/libgcc.a(unwind-arm.o)
__gnu_Unwind_Save_VFP_D                           /home/antodom/installations/ChibiStudio/tools/GNU Tools ARM Embedded/8.3.1 2019q3/bin/../lib/gcc/arm-none-eabi/8.3.1/thumb/v7e-m/nofp/libgcc.a(libunwind.o)
                                                  /home/antodom/installations/ChibiStudio/tools/GNU Tools ARM Embedded/8.3.1 2019q3/bin/../lib/gcc/arm-none-eabi/8.3.1/thumb/v7e-m/nofp/libgcc.a(unwind-arm.o)
__gnu_Unwind_Save_VFP_D_16_to_31                  /home/antodom/installations/ChibiStudio/tools/GNU Tools ARM Embedded/8.3.1 2019q3/bin/../lib/gcc/arm-none-eabi/8.3.1/thumb/v7e-m/nofp/libgcc.a(libunwind.o)
                                                  /home/antodom/installations/ChibiStudio/tools/GNU Tools ARM Embedded/8.3.1 2019q3/bin/../lib/gcc/arm-none-eabi/8.3.1/thumb/v7e-m/nofp/libgcc.a(unwind-arm.o)
__gnu_Unwind_Save_WMMXC                           /home/antodom/installations/ChibiStudio/tools/GNU Tools ARM Embedded/8.3.1 2019q3/bin/../lib/gcc/arm-none-eabi/8.3.1/thumb/v7e-m/nofp/libgcc.a(libunwind.o)
                                                  /home/antodom/installations/ChibiStudio/tools/GNU Tools ARM Embedded/8.3.1 2019q3/bin/../lib/gcc/arm-none-eabi/8.3.1/thumb/v7e-m/nofp/libgcc.a(unwind-arm.o)
__gnu_Unwind_Save_WMMXD                           /home/antodom/installations/ChibiStudio/tools/GNU Tools ARM Embedded/8.3.1 2019q3/bin/../lib/gcc/arm-none-eabi/8.3.1/thumb/v7e-m/nofp/libgcc.a(libunwind.o)
                                                  /home/antodom/installations/ChibiStudio/tools/GNU Tools ARM Embedded/8.3.1 2019q3/bin/../lib/gcc/arm-none-eabi/8.3.1/thumb/v7e-m/nofp/libgcc.a(unwind-arm.o)
__gnu_cxx::__freeres()                            /home/antodom/installations/ChibiStudio/tools/GNU Tools ARM Embedded/8.3.1 2019q3/bin/../lib/gcc/arm-none-eabi/8.3.1/../../../../arm-none-eabi/lib/thumb/v7e-m/nofp/libstdc++.a(eh_alloc.o)
__gnu_cxx::__verbose_terminate_handler()          /home/antodom/installations/ChibiStudio/tools/GNU Tools ARM Embedded/8.3.1 2019q3/bin/../lib/gcc/arm-none-eabi/8.3.1/../../../../arm-none-eabi/lib/thumb/v7e-m/nofp/libstdc++.a(vterminate.o)
                                                  /home/antodom/installations/ChibiStudio/tools/GNU Tools ARM Embedded/8.3.1 2019q3/bin/../lib/gcc/arm-none-eabi/8.3.1/../../../../arm-none-eabi/lib/thumb/v7e-m/nofp/libstdc++.a(eh_term_handler.o)
__gnu_end_cleanup                                 /home/antodom/installations/ChibiStudio/tools/GNU Tools ARM Embedded/8.3.1 2019q3/bin/../lib/gcc/arm-none-eabi/8.3.1/../../../../arm-none-eabi/lib/thumb/v7e-m/nofp/libstdc++.a(eh_arm.o)
__gnu_unwind_execute                              /home/antodom/installations/ChibiStudio/tools/GNU Tools ARM Embedded/8.3.1 2019q3/bin/../lib/gcc/arm-none-eabi/8.3.1/thumb/v7e-m/nofp/libgcc.a(pr-support.o)
                                                  /home/antodom/installations/ChibiStudio/tools/GNU Tools ARM Embedded/8.3.1 2019q3/bin/../lib/gcc/arm-none-eabi/8.3.1/thumb/v7e-m/nofp/libgcc.a(unwind-arm.o)
__gnu_unwind_frame                                /home/antodom/installations/ChibiStudio/tools/GNU Tools ARM Embedded/8.3.1 2019q3/bin/../lib/gcc/arm-none-eabi/8.3.1/thumb/v7e-m/nofp/libgcc.a(pr-support.o)
                                                  /home/antodom/installations/ChibiStudio/tools/GNU Tools ARM Embedded/8.3.1 2019q3/bin/../lib/gcc/arm-none-eabi/8.3.1/../../../../arm-none-eabi/lib/thumb/v7e-m/nofp/libstdc++.a(eh_personality.o)
__gtdf2                                           /home/antodom/installations/ChibiStudio/tools/GNU Tools ARM Embedded/8.3.1 2019q3/bin/../lib/gcc/arm-none-eabi/8.3.1/thumb/v7e-m/nofp/libgcc.a(_arm_cmpdf2.o)
__gxx_personality_v0                              /home/antodom/installations/ChibiStudio/tools/GNU Tools ARM Embedded/8.3.1 2019q3/bin/../lib/gcc/arm-none-eabi/8.3.1/../../../../arm-none-eabi/lib/thumb/v7e-m/nofp/libstdc++.a(eh_personality.o)
                                                  /home/antodom/installations/ChibiStudio/tools/GNU Tools ARM Embedded/8.3.1 2019q3/bin/../lib/gcc/arm-none-eabi/8.3.1/../../../../arm-none-eabi/lib/thumb/v7e-m/nofp/libstdc++.a(vterminate.o)
                                                  /home/antodom/installations/ChibiStudio/tools/GNU Tools ARM Embedded/8.3.1 2019q3/bin/../lib/gcc/arm-none-eabi/8.3.1/../../../../arm-none-eabi/lib/thumb/v7e-m/nofp/libstdc++.a(eh_terminate.o)
                                                  /home/antodom/installations/ChibiStudio/tools/GNU Tools ARM Embedded/8.3.1 2019q3/bin/../lib/gcc/arm-none-eabi/8.3.1/../../../../arm-none-eabi/lib/thumb/v7e-m/nofp/libstdc++.a(eh_catch.o)
                                                  /home/antodom/installations/ChibiStudio/tools/GNU Tools ARM Embedded/8.3.1 2019q3/bin/../lib/gcc/arm-none-eabi/8.3.1/../../../../arm-none-eabi/lib/thumb/v7e-m/nofp/libstdc++.a(eh_call.o)
                                                  ./build/obj/main.o (symbol from plugin)
__heap_base__                                     /tmp/ccxSiIU7.ltrans0.ltrans.o
                                                  ./build/obj/chmemcore.o (symbol from plugin)
__heap_end__                                      /tmp/ccxSiIU7.ltrans0.ltrans.o
                                                  ./build/obj/chmemcore.o (symbol from plugin)
__hi0bits                                         /home/antodom/installations/ChibiStudio/tools/GNU Tools ARM Embedded/8.3.1 2019q3/bin/../lib/gcc/arm-none-eabi/8.3.1/../../../../arm-none-eabi/lib/thumb/v7e-m/nofp/libg.a(lib_a-mprec.o)
                                                  /home/antodom/installations/ChibiStudio/tools/GNU Tools ARM Embedded/8.3.1 2019q3/bin/../lib/gcc/arm-none-eabi/8.3.1/../../../../arm-none-eabi/lib/thumb/v7e-m/nofp/libg.a(lib_a-dtoa.o)
__i2b                                             /home/antodom/installations/ChibiStudio/tools/GNU Tools ARM Embedded/8.3.1 2019q3/bin/../lib/gcc/arm-none-eabi/8.3.1/../../../../arm-none-eabi/lib/thumb/v7e-m/nofp/libg.a(lib_a-mprec.o)
                                                  /home/antodom/installations/ChibiStudio/tools/GNU Tools ARM Embedded/8.3.1 2019q3/bin/../lib/gcc/arm-none-eabi/8.3.1/../../../../arm-none-eabi/lib/thumb/v7e-m/nofp/libg.a(lib_a-dtoa.o)
__init_array_end                                  ./build/obj/crt0_v7m.o
__init_array_start                                ./build/obj/crt0_v7m.o
__init_ram_areas                                  /tmp/ccxSiIU7.ltrans0.ltrans.o
                                                  ./build/obj/crt1.o (symbol from plugin)
                                                  ./build/obj/crt0_v7m.o
__late_init                                       /tmp/ccxSiIU7.ltrans0.ltrans.o
                                                  ./build/obj/crt1.o (symbol from plugin)
                                                  ./build/obj/crt0_v7m.o
__ledf2                                           /home/antodom/installations/ChibiStudio/tools/GNU Tools ARM Embedded/8.3.1 2019q3/bin/../lib/gcc/arm-none-eabi/8.3.1/thumb/v7e-m/nofp/libgcc.a(_arm_cmpdf2.o)
__libc_fini                                       /home/antodom/installations/ChibiStudio/tools/GNU Tools ARM Embedded/8.3.1 2019q3/bin/../lib/gcc/arm-none-eabi/8.3.1/../../../../arm-none-eabi/lib/thumb/v7e-m/nofp/libg.a(lib_a-__call_atexit.o)
__libc_fini_array                                 /home/antodom/installations/ChibiStudio/tools/GNU Tools ARM Embedded/8.3.1 2019q3/bin/../lib/gcc/arm-none-eabi/8.3.1/../../../../arm-none-eabi/lib/thumb/v7e-m/nofp/libg.a(lib_a-fini.o)
                                                  /home/antodom/installations/ChibiStudio/tools/GNU Tools ARM Embedded/8.3.1 2019q3/bin/../lib/gcc/arm-none-eabi/8.3.1/../../../../arm-none-eabi/lib/thumb/v7e-m/nofp/libg.a(lib_a-__call_atexit.o)
__lo0bits                                         /home/antodom/installations/ChibiStudio/tools/GNU Tools ARM Embedded/8.3.1 2019q3/bin/../lib/gcc/arm-none-eabi/8.3.1/../../../../arm-none-eabi/lib/thumb/v7e-m/nofp/libg.a(lib_a-mprec.o)
__locale_mb_cur_max                               /home/antodom/installations/ChibiStudio/tools/GNU Tools ARM Embedded/8.3.1 2019q3/bin/../lib/gcc/arm-none-eabi/8.3.1/../../../../arm-none-eabi/lib/thumb/v7e-m/nofp/libg.a(lib_a-locale.o)
__localeconv_l                                    /home/antodom/installations/ChibiStudio/tools/GNU Tools ARM Embedded/8.3.1 2019q3/bin/../lib/gcc/arm-none-eabi/8.3.1/../../../../arm-none-eabi/lib/thumb/v7e-m/nofp/libg.a(lib_a-localeconv.o)
__lock___arc4random_mutex                         /home/antodom/installations/ChibiStudio/tools/GNU Tools ARM Embedded/8.3.1 2019q3/bin/../lib/gcc/arm-none-eabi/8.3.1/../../../../arm-none-eabi/lib/thumb/v7e-m/nofp/libg.a(lib_a-lock.o)
__lock___at_quick_exit_mutex                      /home/antodom/installations/ChibiStudio/tools/GNU Tools ARM Embedded/8.3.1 2019q3/bin/../lib/gcc/arm-none-eabi/8.3.1/../../../../arm-none-eabi/lib/thumb/v7e-m/nofp/libg.a(lib_a-lock.o)
__lock___atexit_recursive_mutex                   /home/antodom/installations/ChibiStudio/tools/GNU Tools ARM Embedded/8.3.1 2019q3/bin/../lib/gcc/arm-none-eabi/8.3.1/../../../../arm-none-eabi/lib/thumb/v7e-m/nofp/libg.a(lib_a-lock.o)
                                                  /home/antodom/installations/ChibiStudio/tools/GNU Tools ARM Embedded/8.3.1 2019q3/bin/../lib/gcc/arm-none-eabi/8.3.1/../../../../arm-none-eabi/lib/thumb/v7e-m/nofp/libg.a(lib_a-__call_atexit.o)
__lock___dd_hash_mutex                            /home/antodom/installations/ChibiStudio/tools/GNU Tools ARM Embedded/8.3.1 2019q3/bin/../lib/gcc/arm-none-eabi/8.3.1/../../../../arm-none-eabi/lib/thumb/v7e-m/nofp/libg.a(lib_a-lock.o)
__lock___env_recursive_mutex                      /home/antodom/installations/ChibiStudio/tools/GNU Tools ARM Embedded/8.3.1 2019q3/bin/../lib/gcc/arm-none-eabi/8.3.1/../../../../arm-none-eabi/lib/thumb/v7e-m/nofp/libg.a(lib_a-lock.o)
__lock___malloc_recursive_mutex                   /home/antodom/installations/ChibiStudio/tools/GNU Tools ARM Embedded/8.3.1 2019q3/bin/../lib/gcc/arm-none-eabi/8.3.1/../../../../arm-none-eabi/lib/thumb/v7e-m/nofp/libg.a(lib_a-lock.o)
                                                  /home/antodom/installations/ChibiStudio/tools/GNU Tools ARM Embedded/8.3.1 2019q3/bin/../lib/gcc/arm-none-eabi/8.3.1/../../../../arm-none-eabi/lib/thumb/v7e-m/nofp/libg.a(lib_a-mlock.o)
__lock___sfp_recursive_mutex                      /home/antodom/installations/ChibiStudio/tools/GNU Tools ARM Embedded/8.3.1 2019q3/bin/../lib/gcc/arm-none-eabi/8.3.1/../../../../arm-none-eabi/lib/thumb/v7e-m/nofp/libg.a(lib_a-lock.o)
                                                  /home/antodom/installations/ChibiStudio/tools/GNU Tools ARM Embedded/8.3.1 2019q3/bin/../lib/gcc/arm-none-eabi/8.3.1/../../../../arm-none-eabi/lib/thumb/v7e-m/nofp/libg.a(lib_a-findfp.o)
__lock___sinit_recursive_mutex                    /home/antodom/installations/ChibiStudio/tools/GNU Tools ARM Embedded/8.3.1 2019q3/bin/../lib/gcc/arm-none-eabi/8.3.1/../../../../arm-none-eabi/lib/thumb/v7e-m/nofp/libg.a(lib_a-lock.o)
                                                  /home/antodom/installations/ChibiStudio/tools/GNU Tools ARM Embedded/8.3.1 2019q3/bin/../lib/gcc/arm-none-eabi/8.3.1/../../../../arm-none-eabi/lib/thumb/v7e-m/nofp/libg.a(lib_a-findfp.o)
__lock___tz_mutex                                 /home/antodom/installations/ChibiStudio/tools/GNU Tools ARM Embedded/8.3.1 2019q3/bin/../lib/gcc/arm-none-eabi/8.3.1/../../../../arm-none-eabi/lib/thumb/v7e-m/nofp/libg.a(lib_a-lock.o)
__lshift                                          /home/antodom/installations/ChibiStudio/tools/GNU Tools ARM Embedded/8.3.1 2019q3/bin/../lib/gcc/arm-none-eabi/8.3.1/../../../../arm-none-eabi/lib/thumb/v7e-m/nofp/libg.a(lib_a-mprec.o)
                                                  /home/antodom/installations/ChibiStudio/tools/GNU Tools ARM Embedded/8.3.1 2019q3/bin/../lib/gcc/arm-none-eabi/8.3.1/../../../../arm-none-eabi/lib/thumb/v7e-m/nofp/libg.a(lib_a-dtoa.o)
__ltdf2                                           /home/antodom/installations/ChibiStudio/tools/GNU Tools ARM Embedded/8.3.1 2019q3/bin/../lib/gcc/arm-none-eabi/8.3.1/thumb/v7e-m/nofp/libgcc.a(_arm_cmpdf2.o)
__main_stack_base__                               ./build/obj/crt0_v7m.o
__main_stack_end__                                ./build/obj/vectors.o
                                                  ./build/obj/crt0_v7m.o
__malloc_av_                                      /home/antodom/installations/ChibiStudio/tools/GNU Tools ARM Embedded/8.3.1 2019q3/bin/../lib/gcc/arm-none-eabi/8.3.1/../../../../arm-none-eabi/lib/thumb/v7e-m/nofp/libg.a(lib_a-mallocr.o)
                                                  /home/antodom/installations/ChibiStudio/tools/GNU Tools ARM Embedded/8.3.1 2019q3/bin/../lib/gcc/arm-none-eabi/8.3.1/../../../../arm-none-eabi/lib/thumb/v7e-m/nofp/libg.a(lib_a-freer.o)
                                                  /home/antodom/installations/ChibiStudio/tools/GNU Tools ARM Embedded/8.3.1 2019q3/bin/../lib/gcc/arm-none-eabi/8.3.1/../../../../arm-none-eabi/lib/thumb/v7e-m/nofp/libg.a(lib_a-reallocr.o)
__malloc_current_mallinfo                         /home/antodom/installations/ChibiStudio/tools/GNU Tools ARM Embedded/8.3.1 2019q3/bin/../lib/gcc/arm-none-eabi/8.3.1/../../../../arm-none-eabi/lib/thumb/v7e-m/nofp/libg.a(lib_a-mallocr.o)
                                                  /home/antodom/installations/ChibiStudio/tools/GNU Tools ARM Embedded/8.3.1 2019q3/bin/../lib/gcc/arm-none-eabi/8.3.1/../../../../arm-none-eabi/lib/thumb/v7e-m/nofp/libg.a(lib_a-freer.o)
__malloc_lock                                     /home/antodom/installations/ChibiStudio/tools/GNU Tools ARM Embedded/8.3.1 2019q3/bin/../lib/gcc/arm-none-eabi/8.3.1/../../../../arm-none-eabi/lib/thumb/v7e-m/nofp/libg.a(lib_a-mlock.o)
                                                  /home/antodom/installations/ChibiStudio/tools/GNU Tools ARM Embedded/8.3.1 2019q3/bin/../lib/gcc/arm-none-eabi/8.3.1/../../../../arm-none-eabi/lib/thumb/v7e-m/nofp/libg.a(lib_a-freer.o)
                                                  /home/antodom/installations/ChibiStudio/tools/GNU Tools ARM Embedded/8.3.1 2019q3/bin/../lib/gcc/arm-none-eabi/8.3.1/../../../../arm-none-eabi/lib/thumb/v7e-m/nofp/libg.a(lib_a-reallocr.o)
                                                  /home/antodom/installations/ChibiStudio/tools/GNU Tools ARM Embedded/8.3.1 2019q3/bin/../lib/gcc/arm-none-eabi/8.3.1/../../../../arm-none-eabi/lib/thumb/v7e-m/nofp/libg.a(lib_a-mallocr.o)
__malloc_max_sbrked_mem                           /home/antodom/installations/ChibiStudio/tools/GNU Tools ARM Embedded/8.3.1 2019q3/bin/../lib/gcc/arm-none-eabi/8.3.1/../../../../arm-none-eabi/lib/thumb/v7e-m/nofp/libg.a(lib_a-mallocr.o)
__malloc_max_total_mem                            /home/antodom/installations/ChibiStudio/tools/GNU Tools ARM Embedded/8.3.1 2019q3/bin/../lib/gcc/arm-none-eabi/8.3.1/../../../../arm-none-eabi/lib/thumb/v7e-m/nofp/libg.a(lib_a-mallocr.o)
__malloc_sbrk_base                                /home/antodom/installations/ChibiStudio/tools/GNU Tools ARM Embedded/8.3.1 2019q3/bin/../lib/gcc/arm-none-eabi/8.3.1/../../../../arm-none-eabi/lib/thumb/v7e-m/nofp/libg.a(lib_a-mallocr.o)
                                                  /home/antodom/installations/ChibiStudio/tools/GNU Tools ARM Embedded/8.3.1 2019q3/bin/../lib/gcc/arm-none-eabi/8.3.1/../../../../arm-none-eabi/lib/thumb/v7e-m/nofp/libg.a(lib_a-freer.o)
__malloc_top_pad                                  /home/antodom/installations/ChibiStudio/tools/GNU Tools ARM Embedded/8.3.1 2019q3/bin/../lib/gcc/arm-none-eabi/8.3.1/../../../../arm-none-eabi/lib/thumb/v7e-m/nofp/libg.a(lib_a-mallocr.o)
                                                  /home/antodom/installations/ChibiStudio/tools/GNU Tools ARM Embedded/8.3.1 2019q3/bin/../lib/gcc/arm-none-eabi/8.3.1/../../../../arm-none-eabi/lib/thumb/v7e-m/nofp/libg.a(lib_a-freer.o)
__malloc_trim_threshold                           /home/antodom/installations/ChibiStudio/tools/GNU Tools ARM Embedded/8.3.1 2019q3/bin/../lib/gcc/arm-none-eabi/8.3.1/../../../../arm-none-eabi/lib/thumb/v7e-m/nofp/libg.a(lib_a-mallocr.o)
                                                  /home/antodom/installations/ChibiStudio/tools/GNU Tools ARM Embedded/8.3.1 2019q3/bin/../lib/gcc/arm-none-eabi/8.3.1/../../../../arm-none-eabi/lib/thumb/v7e-m/nofp/libg.a(lib_a-freer.o)
__malloc_unlock                                   /home/antodom/installations/ChibiStudio/tools/GNU Tools ARM Embedded/8.3.1 2019q3/bin/../lib/gcc/arm-none-eabi/8.3.1/../../../../arm-none-eabi/lib/thumb/v7e-m/nofp/libg.a(lib_a-mlock.o)
                                                  /home/antodom/installations/ChibiStudio/tools/GNU Tools ARM Embedded/8.3.1 2019q3/bin/../lib/gcc/arm-none-eabi/8.3.1/../../../../arm-none-eabi/lib/thumb/v7e-m/nofp/libg.a(lib_a-freer.o)
                                                  /home/antodom/installations/ChibiStudio/tools/GNU Tools ARM Embedded/8.3.1 2019q3/bin/../lib/gcc/arm-none-eabi/8.3.1/../../../../arm-none-eabi/lib/thumb/v7e-m/nofp/libg.a(lib_a-reallocr.o)
                                                  /home/antodom/installations/ChibiStudio/tools/GNU Tools ARM Embedded/8.3.1 2019q3/bin/../lib/gcc/arm-none-eabi/8.3.1/../../../../arm-none-eabi/lib/thumb/v7e-m/nofp/libg.a(lib_a-mallocr.o)
__mcmp                                            /home/antodom/installations/ChibiStudio/tools/GNU Tools ARM Embedded/8.3.1 2019q3/bin/../lib/gcc/arm-none-eabi/8.3.1/../../../../arm-none-eabi/lib/thumb/v7e-m/nofp/libg.a(lib_a-mprec.o)
                                                  /home/antodom/installations/ChibiStudio/tools/GNU Tools ARM Embedded/8.3.1 2019q3/bin/../lib/gcc/arm-none-eabi/8.3.1/../../../../arm-none-eabi/lib/thumb/v7e-m/nofp/libg.a(lib_a-dtoa.o)
__mdiff                                           /home/antodom/installations/ChibiStudio/tools/GNU Tools ARM Embedded/8.3.1 2019q3/bin/../lib/gcc/arm-none-eabi/8.3.1/../../../../arm-none-eabi/lib/thumb/v7e-m/nofp/libg.a(lib_a-mprec.o)
                                                  /home/antodom/installations/ChibiStudio/tools/GNU Tools ARM Embedded/8.3.1 2019q3/bin/../lib/gcc/arm-none-eabi/8.3.1/../../../../arm-none-eabi/lib/thumb/v7e-m/nofp/libg.a(lib_a-dtoa.o)
__mprec_bigtens                                   /home/antodom/installations/ChibiStudio/tools/GNU Tools ARM Embedded/8.3.1 2019q3/bin/../lib/gcc/arm-none-eabi/8.3.1/../../../../arm-none-eabi/lib/thumb/v7e-m/nofp/libg.a(lib_a-mprec.o)
                                                  /home/antodom/installations/ChibiStudio/tools/GNU Tools ARM Embedded/8.3.1 2019q3/bin/../lib/gcc/arm-none-eabi/8.3.1/../../../../arm-none-eabi/lib/thumb/v7e-m/nofp/libg.a(lib_a-dtoa.o)
__mprec_tens                                      /home/antodom/installations/ChibiStudio/tools/GNU Tools ARM Embedded/8.3.1 2019q3/bin/../lib/gcc/arm-none-eabi/8.3.1/../../../../arm-none-eabi/lib/thumb/v7e-m/nofp/libg.a(lib_a-mprec.o)
                                                  /home/antodom/installations/ChibiStudio/tools/GNU Tools ARM Embedded/8.3.1 2019q3/bin/../lib/gcc/arm-none-eabi/8.3.1/../../../../arm-none-eabi/lib/thumb/v7e-m/nofp/libg.a(lib_a-dtoa.o)
__mprec_tinytens                                  /home/antodom/installations/ChibiStudio/tools/GNU Tools ARM Embedded/8.3.1 2019q3/bin/../lib/gcc/arm-none-eabi/8.3.1/../../../../arm-none-eabi/lib/thumb/v7e-m/nofp/libg.a(lib_a-mprec.o)
__muldf3                                          /home/antodom/installations/ChibiStudio/tools/GNU Tools ARM Embedded/8.3.1 2019q3/bin/../lib/gcc/arm-none-eabi/8.3.1/thumb/v7e-m/nofp/libgcc.a(_arm_muldivdf3.o)
__multadd                                         /home/antodom/installations/ChibiStudio/tools/GNU Tools ARM Embedded/8.3.1 2019q3/bin/../lib/gcc/arm-none-eabi/8.3.1/../../../../arm-none-eabi/lib/thumb/v7e-m/nofp/libg.a(lib_a-mprec.o)
                                                  /home/antodom/installations/ChibiStudio/tools/GNU Tools ARM Embedded/8.3.1 2019q3/bin/../lib/gcc/arm-none-eabi/8.3.1/../../../../arm-none-eabi/lib/thumb/v7e-m/nofp/libg.a(lib_a-dtoa.o)
__multiply                                        /home/antodom/installations/ChibiStudio/tools/GNU Tools ARM Embedded/8.3.1 2019q3/bin/../lib/gcc/arm-none-eabi/8.3.1/../../../../arm-none-eabi/lib/thumb/v7e-m/nofp/libg.a(lib_a-mprec.o)
                                                  /home/antodom/installations/ChibiStudio/tools/GNU Tools ARM Embedded/8.3.1 2019q3/bin/../lib/gcc/arm-none-eabi/8.3.1/../../../../arm-none-eabi/lib/thumb/v7e-m/nofp/libg.a(lib_a-dtoa.o)
__nedf2                                           /home/antodom/installations/ChibiStudio/tools/GNU Tools ARM Embedded/8.3.1 2019q3/bin/../lib/gcc/arm-none-eabi/8.3.1/thumb/v7e-m/nofp/libgcc.a(_arm_cmpdf2.o)
__pow5mult                                        /home/antodom/installations/ChibiStudio/tools/GNU Tools ARM Embedded/8.3.1 2019q3/bin/../lib/gcc/arm-none-eabi/8.3.1/../../../../arm-none-eabi/lib/thumb/v7e-m/nofp/libg.a(lib_a-mprec.o)
                                                  /home/antodom/installations/ChibiStudio/tools/GNU Tools ARM Embedded/8.3.1 2019q3/bin/../lib/gcc/arm-none-eabi/8.3.1/../../../../arm-none-eabi/lib/thumb/v7e-m/nofp/libg.a(lib_a-dtoa.o)
__process_stack_base__                            ./build/obj/crt0_v7m.o
__process_stack_end__                             ./build/obj/crt0_v7m.o
__ram0_clear__                                    /tmp/ccxSiIU7.ltrans0.ltrans.o
                                                  ./build/obj/crt1.o (symbol from plugin)
__ram0_init__                                     /tmp/ccxSiIU7.ltrans0.ltrans.o
                                                  ./build/obj/crt1.o (symbol from plugin)
__ram0_init_text__                                /tmp/ccxSiIU7.ltrans0.ltrans.o
                                                  ./build/obj/crt1.o (symbol from plugin)
__ram0_noinit__                                   /tmp/ccxSiIU7.ltrans0.ltrans.o
                                                  ./build/obj/crt1.o (symbol from plugin)
__ram1_clear__                                    /tmp/ccxSiIU7.ltrans0.ltrans.o
                                                  ./build/obj/crt1.o (symbol from plugin)
__ram1_init__                                     /tmp/ccxSiIU7.ltrans0.ltrans.o
                                                  ./build/obj/crt1.o (symbol from plugin)
__ram1_init_text__                                /tmp/ccxSiIU7.ltrans0.ltrans.o
                                                  ./build/obj/crt1.o (symbol from plugin)
__ram1_noinit__                                   /tmp/ccxSiIU7.ltrans0.ltrans.o
                                                  ./build/obj/crt1.o (symbol from plugin)
__ram2_clear__                                    /tmp/ccxSiIU7.ltrans0.ltrans.o
                                                  ./build/obj/crt1.o (symbol from plugin)
__ram2_init__                                     /tmp/ccxSiIU7.ltrans0.ltrans.o
                                                  ./build/obj/crt1.o (symbol from plugin)
__ram2_init_text__                                /tmp/ccxSiIU7.ltrans0.ltrans.o
                                                  ./build/obj/crt1.o (symbol from plugin)
__ram2_noinit__                                   /tmp/ccxSiIU7.ltrans0.ltrans.o
                                                  ./build/obj/crt1.o (symbol from plugin)
__ram3_clear__                                    /tmp/ccxSiIU7.ltrans0.ltrans.o
                                                  ./build/obj/crt1.o (symbol from plugin)
__ram3_init__                                     /tmp/ccxSiIU7.ltrans0.ltrans.o
                                                  ./build/obj/crt1.o (symbol from plugin)
__ram3_init_text__                                /tmp/ccxSiIU7.ltrans0.ltrans.o
                                                  ./build/obj/crt1.o (symbol from plugin)
__ram3_noinit__                                   /tmp/ccxSiIU7.ltrans0.ltrans.o
                                                  ./build/obj/crt1.o (symbol from plugin)
__ram4_clear__                                    /tmp/ccxSiIU7.ltrans0.ltrans.o
                                                  ./build/obj/crt1.o (symbol from plugin)
__ram4_init__                                     /tmp/ccxSiIU7.ltrans0.ltrans.o
                                                  ./build/obj/crt1.o (symbol from plugin)
__ram4_init_text__                                /tmp/ccxSiIU7.ltrans0.ltrans.o
                                                  ./build/obj/crt1.o (symbol from plugin)
__ram4_noinit__                                   /tmp/ccxSiIU7.ltrans0.ltrans.o
                                                  ./build/obj/crt1.o (symbol from plugin)
__ram5_clear__                                    /tmp/ccxSiIU7.ltrans0.ltrans.o
                                                  ./build/obj/crt1.o (symbol from plugin)
__ram5_init__                                     /tmp/ccxSiIU7.ltrans0.ltrans.o
                                                  ./build/obj/crt1.o (symbol from plugin)
__ram5_init_text__                                /tmp/ccxSiIU7.ltrans0.ltrans.o
                                                  ./build/obj/crt1.o (symbol from plugin)
__ram5_noinit__                                   /tmp/ccxSiIU7.ltrans0.ltrans.o
                                                  ./build/obj/crt1.o (symbol from plugin)
__ram6_clear__                                    /tmp/ccxSiIU7.ltrans0.ltrans.o
                                                  ./build/obj/crt1.o (symbol from plugin)
__ram6_init__                                     /tmp/ccxSiIU7.ltrans0.ltrans.o
                                                  ./build/obj/crt1.o (symbol from plugin)
__ram6_init_text__                                /tmp/ccxSiIU7.ltrans0.ltrans.o
                                                  ./build/obj/crt1.o (symbol from plugin)
__ram6_noinit__                                   /tmp/ccxSiIU7.ltrans0.ltrans.o
                                                  ./build/obj/crt1.o (symbol from plugin)
__ram7_clear__                                    /tmp/ccxSiIU7.ltrans0.ltrans.o
                                                  ./build/obj/crt1.o (symbol from plugin)
__ram7_init__                                     /tmp/ccxSiIU7.ltrans0.ltrans.o
                                                  ./build/obj/crt1.o (symbol from plugin)
__ram7_init_text__                                /tmp/ccxSiIU7.ltrans0.ltrans.o
                                                  ./build/obj/crt1.o (symbol from plugin)
__ram7_noinit__                                   /tmp/ccxSiIU7.ltrans0.ltrans.o
                                                  ./build/obj/crt1.o (symbol from plugin)
__ratio                                           /home/antodom/installations/ChibiStudio/tools/GNU Tools ARM Embedded/8.3.1 2019q3/bin/../lib/gcc/arm-none-eabi/8.3.1/../../../../arm-none-eabi/lib/thumb/v7e-m/nofp/libg.a(lib_a-mprec.o)
__register_exitproc                               /home/antodom/installations/ChibiStudio/tools/GNU Tools ARM Embedded/8.3.1 2019q3/bin/../lib/gcc/arm-none-eabi/8.3.1/../../../../arm-none-eabi/lib/thumb/v7e-m/nofp/libg.a(lib_a-__atexit.o)
                                                  /home/antodom/installations/ChibiStudio/tools/GNU Tools ARM Embedded/8.3.1 2019q3/bin/../lib/gcc/arm-none-eabi/8.3.1/../../../../arm-none-eabi/lib/thumb/v7e-m/nofp/libg.a(lib_a-atexit.o)
                                                  /home/antodom/installations/ChibiStudio/tools/GNU Tools ARM Embedded/8.3.1 2019q3/bin/../lib/gcc/arm-none-eabi/8.3.1/../../../../arm-none-eabi/lib/thumb/v7e-m/nofp/libg.a(lib_a-cxa_atexit.o)
__restore_core_regs                               /home/antodom/installations/ChibiStudio/tools/GNU Tools ARM Embedded/8.3.1 2019q3/bin/../lib/gcc/arm-none-eabi/8.3.1/thumb/v7e-m/nofp/libgcc.a(libunwind.o)
__retarget_lock_acquire                           /home/antodom/installations/ChibiStudio/tools/GNU Tools ARM Embedded/8.3.1 2019q3/bin/../lib/gcc/arm-none-eabi/8.3.1/../../../../arm-none-eabi/lib/thumb/v7e-m/nofp/libg.a(lib_a-lock.o)
__retarget_lock_acquire_recursive                 /home/antodom/installations/ChibiStudio/tools/GNU Tools ARM Embedded/8.3.1 2019q3/bin/../lib/gcc/arm-none-eabi/8.3.1/../../../../arm-none-eabi/lib/thumb/v7e-m/nofp/libg.a(lib_a-lock.o)
                                                  /home/antodom/installations/ChibiStudio/tools/GNU Tools ARM Embedded/8.3.1 2019q3/bin/../lib/gcc/arm-none-eabi/8.3.1/../../../../arm-none-eabi/lib/thumb/v7e-m/nofp/libg.a(lib_a-fclose.o)
                                                  /home/antodom/installations/ChibiStudio/tools/GNU Tools ARM Embedded/8.3.1 2019q3/bin/../lib/gcc/arm-none-eabi/8.3.1/../../../../arm-none-eabi/lib/thumb/v7e-m/nofp/libg.a(lib_a-findfp.o)
                                                  /home/antodom/installations/ChibiStudio/tools/GNU Tools ARM Embedded/8.3.1 2019q3/bin/../lib/gcc/arm-none-eabi/8.3.1/../../../../arm-none-eabi/lib/thumb/v7e-m/nofp/libg.a(lib_a-fflush.o)
                                                  /home/antodom/installations/ChibiStudio/tools/GNU Tools ARM Embedded/8.3.1 2019q3/bin/../lib/gcc/arm-none-eabi/8.3.1/../../../../arm-none-eabi/lib/thumb/v7e-m/nofp/libg.a(lib_a-__call_atexit.o)
                                                  /home/antodom/installations/ChibiStudio/tools/GNU Tools ARM Embedded/8.3.1 2019q3/bin/../lib/gcc/arm-none-eabi/8.3.1/../../../../arm-none-eabi/lib/thumb/v7e-m/nofp/libg.a(lib_a-__atexit.o)
                                                  /home/antodom/installations/ChibiStudio/tools/GNU Tools ARM Embedded/8.3.1 2019q3/bin/../lib/gcc/arm-none-eabi/8.3.1/../../../../arm-none-eabi/lib/thumb/v7e-m/nofp/libg.a(lib_a-putc.o)
                                                  /home/antodom/installations/ChibiStudio/tools/GNU Tools ARM Embedded/8.3.1 2019q3/bin/../lib/gcc/arm-none-eabi/8.3.1/../../../../arm-none-eabi/lib/thumb/v7e-m/nofp/libg.a(lib_a-mlock.o)
                                                  /home/antodom/installations/ChibiStudio/tools/GNU Tools ARM Embedded/8.3.1 2019q3/bin/../lib/gcc/arm-none-eabi/8.3.1/../../../../arm-none-eabi/lib/thumb/v7e-m/nofp/libg.a(lib_a-fwrite.o)
                                                  /home/antodom/installations/ChibiStudio/tools/GNU Tools ARM Embedded/8.3.1 2019q3/bin/../lib/gcc/arm-none-eabi/8.3.1/../../../../arm-none-eabi/lib/thumb/v7e-m/nofp/libg.a(lib_a-fputs.o)
                                                  /home/antodom/installations/ChibiStudio/tools/GNU Tools ARM Embedded/8.3.1 2019q3/bin/../lib/gcc/arm-none-eabi/8.3.1/../../../../arm-none-eabi/lib/thumb/v7e-m/nofp/libg.a(lib_a-fputc.o)
__retarget_lock_close                             /home/antodom/installations/ChibiStudio/tools/GNU Tools ARM Embedded/8.3.1 2019q3/bin/../lib/gcc/arm-none-eabi/8.3.1/../../../../arm-none-eabi/lib/thumb/v7e-m/nofp/libg.a(lib_a-lock.o)
__retarget_lock_close_recursive                   /home/antodom/installations/ChibiStudio/tools/GNU Tools ARM Embedded/8.3.1 2019q3/bin/../lib/gcc/arm-none-eabi/8.3.1/../../../../arm-none-eabi/lib/thumb/v7e-m/nofp/libg.a(lib_a-lock.o)
                                                  /home/antodom/installations/ChibiStudio/tools/GNU Tools ARM Embedded/8.3.1 2019q3/bin/../lib/gcc/arm-none-eabi/8.3.1/../../../../arm-none-eabi/lib/thumb/v7e-m/nofp/libg.a(lib_a-fclose.o)
__retarget_lock_init                              /home/antodom/installations/ChibiStudio/tools/GNU Tools ARM Embedded/8.3.1 2019q3/bin/../lib/gcc/arm-none-eabi/8.3.1/../../../../arm-none-eabi/lib/thumb/v7e-m/nofp/libg.a(lib_a-lock.o)
__retarget_lock_init_recursive                    /home/antodom/installations/ChibiStudio/tools/GNU Tools ARM Embedded/8.3.1 2019q3/bin/../lib/gcc/arm-none-eabi/8.3.1/../../../../arm-none-eabi/lib/thumb/v7e-m/nofp/libg.a(lib_a-lock.o)
                                                  /home/antodom/installations/ChibiStudio/tools/GNU Tools ARM Embedded/8.3.1 2019q3/bin/../lib/gcc/arm-none-eabi/8.3.1/../../../../arm-none-eabi/lib/thumb/v7e-m/nofp/libg.a(lib_a-findfp.o)
__retarget_lock_release                           /home/antodom/installations/ChibiStudio/tools/GNU Tools ARM Embedded/8.3.1 2019q3/bin/../lib/gcc/arm-none-eabi/8.3.1/../../../../arm-none-eabi/lib/thumb/v7e-m/nofp/libg.a(lib_a-lock.o)
__retarget_lock_release_recursive                 /home/antodom/installations/ChibiStudio/tools/GNU Tools ARM Embedded/8.3.1 2019q3/bin/../lib/gcc/arm-none-eabi/8.3.1/../../../../arm-none-eabi/lib/thumb/v7e-m/nofp/libg.a(lib_a-lock.o)
                                                  /home/antodom/installations/ChibiStudio/tools/GNU Tools ARM Embedded/8.3.1 2019q3/bin/../lib/gcc/arm-none-eabi/8.3.1/../../../../arm-none-eabi/lib/thumb/v7e-m/nofp/libg.a(lib_a-fclose.o)
                                                  /home/antodom/installations/ChibiStudio/tools/GNU Tools ARM Embedded/8.3.1 2019q3/bin/../lib/gcc/arm-none-eabi/8.3.1/../../../../arm-none-eabi/lib/thumb/v7e-m/nofp/libg.a(lib_a-findfp.o)
                                                  /home/antodom/installations/ChibiStudio/tools/GNU Tools ARM Embedded/8.3.1 2019q3/bin/../lib/gcc/arm-none-eabi/8.3.1/../../../../arm-none-eabi/lib/thumb/v7e-m/nofp/libg.a(lib_a-fflush.o)
                                                  /home/antodom/installations/ChibiStudio/tools/GNU Tools ARM Embedded/8.3.1 2019q3/bin/../lib/gcc/arm-none-eabi/8.3.1/../../../../arm-none-eabi/lib/thumb/v7e-m/nofp/libg.a(lib_a-__call_atexit.o)
                                                  /home/antodom/installations/ChibiStudio/tools/GNU Tools ARM Embedded/8.3.1 2019q3/bin/../lib/gcc/arm-none-eabi/8.3.1/../../../../arm-none-eabi/lib/thumb/v7e-m/nofp/libg.a(lib_a-__atexit.o)
                                                  /home/antodom/installations/ChibiStudio/tools/GNU Tools ARM Embedded/8.3.1 2019q3/bin/../lib/gcc/arm-none-eabi/8.3.1/../../../../arm-none-eabi/lib/thumb/v7e-m/nofp/libg.a(lib_a-putc.o)
                                                  /home/antodom/installations/ChibiStudio/tools/GNU Tools ARM Embedded/8.3.1 2019q3/bin/../lib/gcc/arm-none-eabi/8.3.1/../../../../arm-none-eabi/lib/thumb/v7e-m/nofp/libg.a(lib_a-mlock.o)
                                                  /home/antodom/installations/ChibiStudio/tools/GNU Tools ARM Embedded/8.3.1 2019q3/bin/../lib/gcc/arm-none-eabi/8.3.1/../../../../arm-none-eabi/lib/thumb/v7e-m/nofp/libg.a(lib_a-fwrite.o)
                                                  /home/antodom/installations/ChibiStudio/tools/GNU Tools ARM Embedded/8.3.1 2019q3/bin/../lib/gcc/arm-none-eabi/8.3.1/../../../../arm-none-eabi/lib/thumb/v7e-m/nofp/libg.a(lib_a-fputs.o)
                                                  /home/antodom/installations/ChibiStudio/tools/GNU Tools ARM Embedded/8.3.1 2019q3/bin/../lib/gcc/arm-none-eabi/8.3.1/../../../../arm-none-eabi/lib/thumb/v7e-m/nofp/libg.a(lib_a-fputc.o)
__retarget_lock_try_acquire                       /home/antodom/installations/ChibiStudio/tools/GNU Tools ARM Embedded/8.3.1 2019q3/bin/../lib/gcc/arm-none-eabi/8.3.1/../../../../arm-none-eabi/lib/thumb/v7e-m/nofp/libg.a(lib_a-lock.o)
__retarget_lock_try_acquire_recursive             /home/antodom/installations/ChibiStudio/tools/GNU Tools ARM Embedded/8.3.1 2019q3/bin/../lib/gcc/arm-none-eabi/8.3.1/../../../../arm-none-eabi/lib/thumb/v7e-m/nofp/libg.a(lib_a-lock.o)
__s2b                                             /home/antodom/installations/ChibiStudio/tools/GNU Tools ARM Embedded/8.3.1 2019q3/bin/../lib/gcc/arm-none-eabi/8.3.1/../../../../arm-none-eabi/lib/thumb/v7e-m/nofp/libg.a(lib_a-mprec.o)
__sclose                                          /home/antodom/installations/ChibiStudio/tools/GNU Tools ARM Embedded/8.3.1 2019q3/bin/../lib/gcc/arm-none-eabi/8.3.1/../../../../arm-none-eabi/lib/thumb/v7e-m/nofp/libg.a(lib_a-stdio.o)
                                                  /home/antodom/installations/ChibiStudio/tools/GNU Tools ARM Embedded/8.3.1 2019q3/bin/../lib/gcc/arm-none-eabi/8.3.1/../../../../arm-none-eabi/lib/thumb/v7e-m/nofp/libg.a(lib_a-findfp.o)
__seofread                                        /home/antodom/installations/ChibiStudio/tools/GNU Tools ARM Embedded/8.3.1 2019q3/bin/../lib/gcc/arm-none-eabi/8.3.1/../../../../arm-none-eabi/lib/thumb/v7e-m/nofp/libg.a(lib_a-stdio.o)
__sflush_r                                        /home/antodom/installations/ChibiStudio/tools/GNU Tools ARM Embedded/8.3.1 2019q3/bin/../lib/gcc/arm-none-eabi/8.3.1/../../../../arm-none-eabi/lib/thumb/v7e-m/nofp/libg.a(lib_a-fflush.o)
                                                  /home/antodom/installations/ChibiStudio/tools/GNU Tools ARM Embedded/8.3.1 2019q3/bin/../lib/gcc/arm-none-eabi/8.3.1/../../../../arm-none-eabi/lib/thumb/v7e-m/nofp/libg.a(lib_a-fclose.o)
__sfmoreglue                                      /home/antodom/installations/ChibiStudio/tools/GNU Tools ARM Embedded/8.3.1 2019q3/bin/../lib/gcc/arm-none-eabi/8.3.1/../../../../arm-none-eabi/lib/thumb/v7e-m/nofp/libg.a(lib_a-findfp.o)
__sfp                                             /home/antodom/installations/ChibiStudio/tools/GNU Tools ARM Embedded/8.3.1 2019q3/bin/../lib/gcc/arm-none-eabi/8.3.1/../../../../arm-none-eabi/lib/thumb/v7e-m/nofp/libg.a(lib_a-findfp.o)
__sfp_lock_acquire                                /home/antodom/installations/ChibiStudio/tools/GNU Tools ARM Embedded/8.3.1 2019q3/bin/../lib/gcc/arm-none-eabi/8.3.1/../../../../arm-none-eabi/lib/thumb/v7e-m/nofp/libg.a(lib_a-findfp.o)
                                                  /home/antodom/installations/ChibiStudio/tools/GNU Tools ARM Embedded/8.3.1 2019q3/bin/../lib/gcc/arm-none-eabi/8.3.1/../../../../arm-none-eabi/lib/thumb/v7e-m/nofp/libg.a(lib_a-fclose.o)
__sfp_lock_release                                /home/antodom/installations/ChibiStudio/tools/GNU Tools ARM Embedded/8.3.1 2019q3/bin/../lib/gcc/arm-none-eabi/8.3.1/../../../../arm-none-eabi/lib/thumb/v7e-m/nofp/libg.a(lib_a-findfp.o)
                                                  /home/antodom/installations/ChibiStudio/tools/GNU Tools ARM Embedded/8.3.1 2019q3/bin/../lib/gcc/arm-none-eabi/8.3.1/../../../../arm-none-eabi/lib/thumb/v7e-m/nofp/libg.a(lib_a-fclose.o)
__sfvwrite_r                                      /home/antodom/installations/ChibiStudio/tools/GNU Tools ARM Embedded/8.3.1 2019q3/bin/../lib/gcc/arm-none-eabi/8.3.1/../../../../arm-none-eabi/lib/thumb/v7e-m/nofp/libg.a(lib_a-fvwrite.o)
                                                  /home/antodom/installations/ChibiStudio/tools/GNU Tools ARM Embedded/8.3.1 2019q3/bin/../lib/gcc/arm-none-eabi/8.3.1/../../../../arm-none-eabi/lib/thumb/v7e-m/nofp/libg.a(lib_a-fwrite.o)
                                                  /home/antodom/installations/ChibiStudio/tools/GNU Tools ARM Embedded/8.3.1 2019q3/bin/../lib/gcc/arm-none-eabi/8.3.1/../../../../arm-none-eabi/lib/thumb/v7e-m/nofp/libg.a(lib_a-fputs.o)
__sigtramp                                        /home/antodom/installations/ChibiStudio/tools/GNU Tools ARM Embedded/8.3.1 2019q3/bin/../lib/gcc/arm-none-eabi/8.3.1/../../../../arm-none-eabi/lib/thumb/v7e-m/nofp/libg.a(lib_a-signal.o)
__sigtramp_r                                      /home/antodom/installations/ChibiStudio/tools/GNU Tools ARM Embedded/8.3.1 2019q3/bin/../lib/gcc/arm-none-eabi/8.3.1/../../../../arm-none-eabi/lib/thumb/v7e-m/nofp/libg.a(lib_a-signal.o)
__sinit                                           /home/antodom/installations/ChibiStudio/tools/GNU Tools ARM Embedded/8.3.1 2019q3/bin/../lib/gcc/arm-none-eabi/8.3.1/../../../../arm-none-eabi/lib/thumb/v7e-m/nofp/libg.a(lib_a-findfp.o)
                                                  /home/antodom/installations/ChibiStudio/tools/GNU Tools ARM Embedded/8.3.1 2019q3/bin/../lib/gcc/arm-none-eabi/8.3.1/../../../../arm-none-eabi/lib/thumb/v7e-m/nofp/libg.a(lib_a-fclose.o)
                                                  /home/antodom/installations/ChibiStudio/tools/GNU Tools ARM Embedded/8.3.1 2019q3/bin/../lib/gcc/arm-none-eabi/8.3.1/../../../../arm-none-eabi/lib/thumb/v7e-m/nofp/libg.a(lib_a-fflush.o)
                                                  /home/antodom/installations/ChibiStudio/tools/GNU Tools ARM Embedded/8.3.1 2019q3/bin/../lib/gcc/arm-none-eabi/8.3.1/../../../../arm-none-eabi/lib/thumb/v7e-m/nofp/libg.a(lib_a-wsetup.o)
                                                  /home/antodom/installations/ChibiStudio/tools/GNU Tools ARM Embedded/8.3.1 2019q3/bin/../lib/gcc/arm-none-eabi/8.3.1/../../../../arm-none-eabi/lib/thumb/v7e-m/nofp/libg.a(lib_a-wbuf.o)
                                                  /home/antodom/installations/ChibiStudio/tools/GNU Tools ARM Embedded/8.3.1 2019q3/bin/../lib/gcc/arm-none-eabi/8.3.1/../../../../arm-none-eabi/lib/thumb/v7e-m/nofp/libg.a(lib_a-putc.o)
                                                  /home/antodom/installations/ChibiStudio/tools/GNU Tools ARM Embedded/8.3.1 2019q3/bin/../lib/gcc/arm-none-eabi/8.3.1/../../../../arm-none-eabi/lib/thumb/v7e-m/nofp/libg.a(lib_a-fwrite.o)
                                                  /home/antodom/installations/ChibiStudio/tools/GNU Tools ARM Embedded/8.3.1 2019q3/bin/../lib/gcc/arm-none-eabi/8.3.1/../../../../arm-none-eabi/lib/thumb/v7e-m/nofp/libg.a(lib_a-fputs.o)
                                                  /home/antodom/installations/ChibiStudio/tools/GNU Tools ARM Embedded/8.3.1 2019q3/bin/../lib/gcc/arm-none-eabi/8.3.1/../../../../arm-none-eabi/lib/thumb/v7e-m/nofp/libg.a(lib_a-fputc.o)
__sinit_lock_acquire                              /home/antodom/installations/ChibiStudio/tools/GNU Tools ARM Embedded/8.3.1 2019q3/bin/../lib/gcc/arm-none-eabi/8.3.1/../../../../arm-none-eabi/lib/thumb/v7e-m/nofp/libg.a(lib_a-findfp.o)
__sinit_lock_release                              /home/antodom/installations/ChibiStudio/tools/GNU Tools ARM Embedded/8.3.1 2019q3/bin/../lib/gcc/arm-none-eabi/8.3.1/../../../../arm-none-eabi/lib/thumb/v7e-m/nofp/libg.a(lib_a-findfp.o)
__smakebuf_r                                      /home/antodom/installations/ChibiStudio/tools/GNU Tools ARM Embedded/8.3.1 2019q3/bin/../lib/gcc/arm-none-eabi/8.3.1/../../../../arm-none-eabi/lib/thumb/v7e-m/nofp/libg.a(lib_a-makebuf.o)
                                                  /home/antodom/installations/ChibiStudio/tools/GNU Tools ARM Embedded/8.3.1 2019q3/bin/../lib/gcc/arm-none-eabi/8.3.1/../../../../arm-none-eabi/lib/thumb/v7e-m/nofp/libg.a(lib_a-wsetup.o)
__sread                                           /home/antodom/installations/ChibiStudio/tools/GNU Tools ARM Embedded/8.3.1 2019q3/bin/../lib/gcc/arm-none-eabi/8.3.1/../../../../arm-none-eabi/lib/thumb/v7e-m/nofp/libg.a(lib_a-stdio.o)
                                                  /home/antodom/installations/ChibiStudio/tools/GNU Tools ARM Embedded/8.3.1 2019q3/bin/../lib/gcc/arm-none-eabi/8.3.1/../../../../arm-none-eabi/lib/thumb/v7e-m/nofp/libg.a(lib_a-findfp.o)
__sseek                                           /home/antodom/installations/ChibiStudio/tools/GNU Tools ARM Embedded/8.3.1 2019q3/bin/../lib/gcc/arm-none-eabi/8.3.1/../../../../arm-none-eabi/lib/thumb/v7e-m/nofp/libg.a(lib_a-stdio.o)
                                                  /home/antodom/installations/ChibiStudio/tools/GNU Tools ARM Embedded/8.3.1 2019q3/bin/../lib/gcc/arm-none-eabi/8.3.1/../../../../arm-none-eabi/lib/thumb/v7e-m/nofp/libg.a(lib_a-findfp.o)
__ssprint_r                                       /home/antodom/installations/ChibiStudio/tools/GNU Tools ARM Embedded/8.3.1 2019q3/bin/../lib/gcc/arm-none-eabi/8.3.1/../../../../arm-none-eabi/lib/thumb/v7e-m/nofp/libg.a(lib_a-svfiprintf.o)
                                                  /home/antodom/installations/ChibiStudio/tools/GNU Tools ARM Embedded/8.3.1 2019q3/bin/../lib/gcc/arm-none-eabi/8.3.1/../../../../arm-none-eabi/lib/thumb/v7e-m/nofp/libg.a(lib_a-svfprintf.o)
__subdf3                                          /home/antodom/installations/ChibiStudio/tools/GNU Tools ARM Embedded/8.3.1 2019q3/bin/../lib/gcc/arm-none-eabi/8.3.1/thumb/v7e-m/nofp/libgcc.a(_arm_addsubdf3.o)
__swbuf                                           /home/antodom/installations/ChibiStudio/tools/GNU Tools ARM Embedded/8.3.1 2019q3/bin/../lib/gcc/arm-none-eabi/8.3.1/../../../../arm-none-eabi/lib/thumb/v7e-m/nofp/libg.a(lib_a-wbuf.o)
__swbuf_r                                         /home/antodom/installations/ChibiStudio/tools/GNU Tools ARM Embedded/8.3.1 2019q3/bin/../lib/gcc/arm-none-eabi/8.3.1/../../../../arm-none-eabi/lib/thumb/v7e-m/nofp/libg.a(lib_a-wbuf.o)
                                                  /home/antodom/installations/ChibiStudio/tools/GNU Tools ARM Embedded/8.3.1 2019q3/bin/../lib/gcc/arm-none-eabi/8.3.1/../../../../arm-none-eabi/lib/thumb/v7e-m/nofp/libg.a(lib_a-putc.o)
__swhatbuf_r                                      /home/antodom/installations/ChibiStudio/tools/GNU Tools ARM Embedded/8.3.1 2019q3/bin/../lib/gcc/arm-none-eabi/8.3.1/../../../../arm-none-eabi/lib/thumb/v7e-m/nofp/libg.a(lib_a-makebuf.o)
__swrite                                          /home/antodom/installations/ChibiStudio/tools/GNU Tools ARM Embedded/8.3.1 2019q3/bin/../lib/gcc/arm-none-eabi/8.3.1/../../../../arm-none-eabi/lib/thumb/v7e-m/nofp/libg.a(lib_a-stdio.o)
                                                  /home/antodom/installations/ChibiStudio/tools/GNU Tools ARM Embedded/8.3.1 2019q3/bin/../lib/gcc/arm-none-eabi/8.3.1/../../../../arm-none-eabi/lib/thumb/v7e-m/nofp/libg.a(lib_a-findfp.o)
__swsetup_r                                       /home/antodom/installations/ChibiStudio/tools/GNU Tools ARM Embedded/8.3.1 2019q3/bin/../lib/gcc/arm-none-eabi/8.3.1/../../../../arm-none-eabi/lib/thumb/v7e-m/nofp/libg.a(lib_a-wsetup.o)
                                                  /home/antodom/installations/ChibiStudio/tools/GNU Tools ARM Embedded/8.3.1 2019q3/bin/../lib/gcc/arm-none-eabi/8.3.1/../../../../arm-none-eabi/lib/thumb/v7e-m/nofp/libg.a(lib_a-wbuf.o)
                                                  /home/antodom/installations/ChibiStudio/tools/GNU Tools ARM Embedded/8.3.1 2019q3/bin/../lib/gcc/arm-none-eabi/8.3.1/../../../../arm-none-eabi/lib/thumb/v7e-m/nofp/libg.a(lib_a-fvwrite.o)
__udivmoddi4                                      /home/antodom/installations/ChibiStudio/tools/GNU Tools ARM Embedded/8.3.1 2019q3/bin/../lib/gcc/arm-none-eabi/8.3.1/thumb/v7e-m/nofp/libgcc.a(_udivmoddi4.o)
                                                  /home/antodom/installations/ChibiStudio/tools/GNU Tools ARM Embedded/8.3.1 2019q3/bin/../lib/gcc/arm-none-eabi/8.3.1/thumb/v7e-m/nofp/libgcc.a(_aeabi_ldivmod.o)
                                                  /home/antodom/installations/ChibiStudio/tools/GNU Tools ARM Embedded/8.3.1 2019q3/bin/../lib/gcc/arm-none-eabi/8.3.1/thumb/v7e-m/nofp/libgcc.a(_aeabi_uldivmod.o)
__ulp                                             /home/antodom/installations/ChibiStudio/tools/GNU Tools ARM Embedded/8.3.1 2019q3/bin/../lib/gcc/arm-none-eabi/8.3.1/../../../../arm-none-eabi/lib/thumb/v7e-m/nofp/libg.a(lib_a-mprec.o)
__unorddf2                                        /home/antodom/installations/ChibiStudio/tools/GNU Tools ARM Embedded/8.3.1 2019q3/bin/../lib/gcc/arm-none-eabi/8.3.1/thumb/v7e-m/nofp/libgcc.a(_arm_unorddf2.o)
_bss_end                                          ./build/obj/crt0_v7m.o
_bss_start                                        ./build/obj/crt0_v7m.o
_calloc_r                                         /home/antodom/installations/ChibiStudio/tools/GNU Tools ARM Embedded/8.3.1 2019q3/bin/../lib/gcc/arm-none-eabi/8.3.1/../../../../arm-none-eabi/lib/thumb/v7e-m/nofp/libg.a(lib_a-callocr.o)
                                                  /home/antodom/installations/ChibiStudio/tools/GNU Tools ARM Embedded/8.3.1 2019q3/bin/../lib/gcc/arm-none-eabi/8.3.1/../../../../arm-none-eabi/lib/thumb/v7e-m/nofp/libg.a(lib_a-mprec.o)
_cleanup                                          /home/antodom/installations/ChibiStudio/tools/GNU Tools ARM Embedded/8.3.1 2019q3/bin/../lib/gcc/arm-none-eabi/8.3.1/../../../../arm-none-eabi/lib/thumb/v7e-m/nofp/libg.a(lib_a-findfp.o)
_cleanup_r                                        /home/antodom/installations/ChibiStudio/tools/GNU Tools ARM Embedded/8.3.1 2019q3/bin/../lib/gcc/arm-none-eabi/8.3.1/../../../../arm-none-eabi/lib/thumb/v7e-m/nofp/libg.a(lib_a-findfp.o)
                                                  /home/antodom/installations/ChibiStudio/tools/GNU Tools ARM Embedded/8.3.1 2019q3/bin/../lib/gcc/arm-none-eabi/8.3.1/../../../../arm-none-eabi/lib/thumb/v7e-m/nofp/libg.a(lib_a-makebuf.o)
_close_r                                          /tmp/ccxSiIU7.ltrans0.ltrans.o
                                                  ./build/obj/syscalls.o (symbol from plugin)
                                                  /home/antodom/installations/ChibiStudio/tools/GNU Tools ARM Embedded/8.3.1 2019q3/bin/../lib/gcc/arm-none-eabi/8.3.1/../../../../arm-none-eabi/lib/thumb/v7e-m/nofp/libg.a(lib_a-stdio.o)
_core_init                                        ./build/obj/chmemcore.o (symbol from plugin)
                                                  ./build/obj/chsys.o (symbol from plugin)
_crt0_entry                                       ./build/obj/crt0_v7m.o
                                                  ./build/obj/vectors.o
_ctype_                                           /home/antodom/installations/ChibiStudio/tools/GNU Tools ARM Embedded/8.3.1 2019q3/bin/../lib/gcc/arm-none-eabi/8.3.1/../../../../arm-none-eabi/lib/thumb/v7e-m/nofp/libg.a(lib_a-ctype_.o)
                                                  /home/antodom/installations/ChibiStudio/tools/GNU Tools ARM Embedded/8.3.1 2019q3/bin/../lib/gcc/arm-none-eabi/8.3.1/../../../../arm-none-eabi/lib/thumb/v7e-m/nofp/libg.a(lib_a-locale.o)
_data_end                                         ./build/obj/crt0_v7m.o
_data_start                                       ./build/obj/crt0_v7m.o
_dtoa_r                                           /home/antodom/installations/ChibiStudio/tools/GNU Tools ARM Embedded/8.3.1 2019q3/bin/../lib/gcc/arm-none-eabi/8.3.1/../../../../arm-none-eabi/lib/thumb/v7e-m/nofp/libg.a(lib_a-dtoa.o)
                                                  /home/antodom/installations/ChibiStudio/tools/GNU Tools ARM Embedded/8.3.1 2019q3/bin/../lib/gcc/arm-none-eabi/8.3.1/../../../../arm-none-eabi/lib/thumb/v7e-m/nofp/libg.a(lib_a-svfprintf.o)
_exit                                             /tmp/ccxSiIU7.ltrans0.ltrans.o
                                                  ./build/obj/syscalls_cpp.o (symbol from plugin)
                                                  /home/antodom/installations/ChibiStudio/tools/GNU Tools ARM Embedded/8.3.1 2019q3/bin/../lib/gcc/arm-none-eabi/8.3.1/../../../../arm-none-eabi/lib/thumb/v7e-m/nofp/libg.a(lib_a-abort.o)
_factory_init                                     ./build/obj/chfactory.o (symbol from plugin)
                                                  ./build/obj/chsys.o (symbol from plugin)
_fclose_r                                         /home/antodom/installations/ChibiStudio/tools/GNU Tools ARM Embedded/8.3.1 2019q3/bin/../lib/gcc/arm-none-eabi/8.3.1/../../../../arm-none-eabi/lib/thumb/v7e-m/nofp/libg.a(lib_a-fclose.o)
                                                  /home/antodom/installations/ChibiStudio/tools/GNU Tools ARM Embedded/8.3.1 2019q3/bin/../lib/gcc/arm-none-eabi/8.3.1/../../../../arm-none-eabi/lib/thumb/v7e-m/nofp/libg.a(lib_a-findfp.o)
_fflush_r                                         /home/antodom/installations/ChibiStudio/tools/GNU Tools ARM Embedded/8.3.1 2019q3/bin/../lib/gcc/arm-none-eabi/8.3.1/../../../../arm-none-eabi/lib/thumb/v7e-m/nofp/libg.a(lib_a-fflush.o)
                                                  /home/antodom/installations/ChibiStudio/tools/GNU Tools ARM Embedded/8.3.1 2019q3/bin/../lib/gcc/arm-none-eabi/8.3.1/../../../../arm-none-eabi/lib/thumb/v7e-m/nofp/libg.a(lib_a-wbuf.o)
                                                  /home/antodom/installations/ChibiStudio/tools/GNU Tools ARM Embedded/8.3.1 2019q3/bin/../lib/gcc/arm-none-eabi/8.3.1/../../../../arm-none-eabi/lib/thumb/v7e-m/nofp/libg.a(lib_a-fvwrite.o)
_fini                                             /tmp/ccxSiIU7.ltrans0.ltrans.o
                                                  ./build/obj/syscalls.o (symbol from plugin)
                                                  /home/antodom/installations/ChibiStudio/tools/GNU Tools ARM Embedded/8.3.1 2019q3/bin/../lib/gcc/arm-none-eabi/8.3.1/../../../../arm-none-eabi/lib/thumb/v7e-m/nofp/libg.a(lib_a-fini.o)
_fputc_r                                          /home/antodom/installations/ChibiStudio/tools/GNU Tools ARM Embedded/8.3.1 2019q3/bin/../lib/gcc/arm-none-eabi/8.3.1/../../../../arm-none-eabi/lib/thumb/v7e-m/nofp/libg.a(lib_a-fputc.o)
_fputs_r                                          /home/antodom/installations/ChibiStudio/tools/GNU Tools ARM Embedded/8.3.1 2019q3/bin/../lib/gcc/arm-none-eabi/8.3.1/../../../../arm-none-eabi/lib/thumb/v7e-m/nofp/libg.a(lib_a-fputs.o)
_free_r                                           /home/antodom/installations/ChibiStudio/tools/GNU Tools ARM Embedded/8.3.1 2019q3/bin/../lib/gcc/arm-none-eabi/8.3.1/../../../../arm-none-eabi/lib/thumb/v7e-m/nofp/libg.a(lib_a-freer.o)
                                                  /home/antodom/installations/ChibiStudio/tools/GNU Tools ARM Embedded/8.3.1 2019q3/bin/../lib/gcc/arm-none-eabi/8.3.1/../../../../arm-none-eabi/lib/thumb/v7e-m/nofp/libg.a(lib_a-fclose.o)
                                                  /home/antodom/installations/ChibiStudio/tools/GNU Tools ARM Embedded/8.3.1 2019q3/bin/../lib/gcc/arm-none-eabi/8.3.1/../../../../arm-none-eabi/lib/thumb/v7e-m/nofp/libg.a(lib_a-svfiprintf.o)
                                                  /home/antodom/installations/ChibiStudio/tools/GNU Tools ARM Embedded/8.3.1 2019q3/bin/../lib/gcc/arm-none-eabi/8.3.1/../../../../arm-none-eabi/lib/thumb/v7e-m/nofp/libg.a(lib_a-fflush.o)
                                                  /home/antodom/installations/ChibiStudio/tools/GNU Tools ARM Embedded/8.3.1 2019q3/bin/../lib/gcc/arm-none-eabi/8.3.1/../../../../arm-none-eabi/lib/thumb/v7e-m/nofp/libg.a(lib_a-wsetup.o)
                                                  /home/antodom/installations/ChibiStudio/tools/GNU Tools ARM Embedded/8.3.1 2019q3/bin/../lib/gcc/arm-none-eabi/8.3.1/../../../../arm-none-eabi/lib/thumb/v7e-m/nofp/libg.a(lib_a-svfprintf.o)
                                                  /home/antodom/installations/ChibiStudio/tools/GNU Tools ARM Embedded/8.3.1 2019q3/bin/../lib/gcc/arm-none-eabi/8.3.1/../../../../arm-none-eabi/lib/thumb/v7e-m/nofp/libg.a(lib_a-reent.o)
                                                  /home/antodom/installations/ChibiStudio/tools/GNU Tools ARM Embedded/8.3.1 2019q3/bin/../lib/gcc/arm-none-eabi/8.3.1/../../../../arm-none-eabi/lib/thumb/v7e-m/nofp/libg.a(lib_a-reallocr.o)
                                                  /home/antodom/installations/ChibiStudio/tools/GNU Tools ARM Embedded/8.3.1 2019q3/bin/../lib/gcc/arm-none-eabi/8.3.1/../../../../arm-none-eabi/lib/thumb/v7e-m/nofp/libg.a(lib_a-mallocr.o)
                                                  /home/antodom/installations/ChibiStudio/tools/GNU Tools ARM Embedded/8.3.1 2019q3/bin/../lib/gcc/arm-none-eabi/8.3.1/../../../../arm-none-eabi/lib/thumb/v7e-m/nofp/libg.a(lib_a-malloc.o)
                                                  /home/antodom/installations/ChibiStudio/tools/GNU Tools ARM Embedded/8.3.1 2019q3/bin/../lib/gcc/arm-none-eabi/8.3.1/../../../../arm-none-eabi/lib/thumb/v7e-m/nofp/libg.a(lib_a-fvwrite.o)
_fstat_r                                          /tmp/ccxSiIU7.ltrans0.ltrans.o
                                                  ./build/obj/syscalls.o (symbol from plugin)
                                                  /home/antodom/installations/ChibiStudio/tools/GNU Tools ARM Embedded/8.3.1 2019q3/bin/../lib/gcc/arm-none-eabi/8.3.1/../../../../arm-none-eabi/lib/thumb/v7e-m/nofp/libg.a(lib_a-makebuf.o)
_fwalk                                            /home/antodom/installations/ChibiStudio/tools/GNU Tools ARM Embedded/8.3.1 2019q3/bin/../lib/gcc/arm-none-eabi/8.3.1/../../../../arm-none-eabi/lib/thumb/v7e-m/nofp/libg.a(lib_a-fwalk.o)
                                                  /home/antodom/installations/ChibiStudio/tools/GNU Tools ARM Embedded/8.3.1 2019q3/bin/../lib/gcc/arm-none-eabi/8.3.1/../../../../arm-none-eabi/lib/thumb/v7e-m/nofp/libg.a(lib_a-findfp.o)
_fwalk_reent                                      /home/antodom/installations/ChibiStudio/tools/GNU Tools ARM Embedded/8.3.1 2019q3/bin/../lib/gcc/arm-none-eabi/8.3.1/../../../../arm-none-eabi/lib/thumb/v7e-m/nofp/libg.a(lib_a-fwalk.o)
                                                  /home/antodom/installations/ChibiStudio/tools/GNU Tools ARM Embedded/8.3.1 2019q3/bin/../lib/gcc/arm-none-eabi/8.3.1/../../../../arm-none-eabi/lib/thumb/v7e-m/nofp/libg.a(lib_a-findfp.o)
                                                  /home/antodom/installations/ChibiStudio/tools/GNU Tools ARM Embedded/8.3.1 2019q3/bin/../lib/gcc/arm-none-eabi/8.3.1/../../../../arm-none-eabi/lib/thumb/v7e-m/nofp/libg.a(lib_a-fflush.o)
_fwrite_r                                         /home/antodom/installations/ChibiStudio/tools/GNU Tools ARM Embedded/8.3.1 2019q3/bin/../lib/gcc/arm-none-eabi/8.3.1/../../../../arm-none-eabi/lib/thumb/v7e-m/nofp/libg.a(lib_a-fwrite.o)
_getpid                                           /tmp/ccxSiIU7.ltrans0.ltrans.o
                                                  ./build/obj/syscalls_cpp.o (symbol from plugin)
                                                  /home/antodom/installations/ChibiStudio/tools/GNU Tools ARM Embedded/8.3.1 2019q3/bin/../lib/gcc/arm-none-eabi/8.3.1/../../../../arm-none-eabi/lib/thumb/v7e-m/nofp/libg.a(lib_a-signalr.o)
_getpid_r                                         /home/antodom/installations/ChibiStudio/tools/GNU Tools ARM Embedded/8.3.1 2019q3/bin/../lib/gcc/arm-none-eabi/8.3.1/../../../../arm-none-eabi/lib/thumb/v7e-m/nofp/libg.a(lib_a-signalr.o)
                                                  /home/antodom/installations/ChibiStudio/tools/GNU Tools ARM Embedded/8.3.1 2019q3/bin/../lib/gcc/arm-none-eabi/8.3.1/../../../../arm-none-eabi/lib/thumb/v7e-m/nofp/libg.a(lib_a-signal.o)
_global_impure_ptr                                /home/antodom/installations/ChibiStudio/tools/GNU Tools ARM Embedded/8.3.1 2019q3/bin/../lib/gcc/arm-none-eabi/8.3.1/../../../../arm-none-eabi/lib/thumb/v7e-m/nofp/libg.a(lib_a-impure.o)
                                                  /home/antodom/installations/ChibiStudio/tools/GNU Tools ARM Embedded/8.3.1 2019q3/bin/../lib/gcc/arm-none-eabi/8.3.1/../../../../arm-none-eabi/lib/thumb/v7e-m/nofp/libg.a(lib_a-findfp.o)
                                                  /home/antodom/installations/ChibiStudio/tools/GNU Tools ARM Embedded/8.3.1 2019q3/bin/../lib/gcc/arm-none-eabi/8.3.1/../../../../arm-none-eabi/lib/thumb/v7e-m/nofp/libg.a(lib_a-fflush.o)
                                                  /home/antodom/installations/ChibiStudio/tools/GNU Tools ARM Embedded/8.3.1 2019q3/bin/../lib/gcc/arm-none-eabi/8.3.1/../../../../arm-none-eabi/lib/thumb/v7e-m/nofp/libg.a(lib_a-__call_atexit.o)
                                                  /home/antodom/installations/ChibiStudio/tools/GNU Tools ARM Embedded/8.3.1 2019q3/bin/../lib/gcc/arm-none-eabi/8.3.1/../../../../arm-none-eabi/lib/thumb/v7e-m/nofp/libg.a(lib_a-__atexit.o)
_heap_init                                        ./build/obj/chmemheaps.o (symbol from plugin)
                                                  ./build/obj/chsys.o (symbol from plugin)
_impure_ptr                                       /home/antodom/installations/ChibiStudio/tools/GNU Tools ARM Embedded/8.3.1 2019q3/bin/../lib/gcc/arm-none-eabi/8.3.1/../../../../arm-none-eabi/lib/thumb/v7e-m/nofp/libg.a(lib_a-impure.o)
                                                  /home/antodom/installations/ChibiStudio/tools/GNU Tools ARM Embedded/8.3.1 2019q3/bin/../lib/gcc/arm-none-eabi/8.3.1/../../../../arm-none-eabi/lib/thumb/v7e-m/nofp/libg.a(lib_a-locale.o)
                                                  /home/antodom/installations/ChibiStudio/tools/GNU Tools ARM Embedded/8.3.1 2019q3/bin/../lib/gcc/arm-none-eabi/8.3.1/../../../../arm-none-eabi/lib/thumb/v7e-m/nofp/libg.a(lib_a-fclose.o)
                                                  /home/antodom/installations/ChibiStudio/tools/GNU Tools ARM Embedded/8.3.1 2019q3/bin/../lib/gcc/arm-none-eabi/8.3.1/../../../../arm-none-eabi/lib/thumb/v7e-m/nofp/libg.a(lib_a-findfp.o)
                                                  /home/antodom/installations/ChibiStudio/tools/GNU Tools ARM Embedded/8.3.1 2019q3/bin/../lib/gcc/arm-none-eabi/8.3.1/../../../../arm-none-eabi/lib/thumb/v7e-m/nofp/libg.a(lib_a-fflush.o)
                                                  /home/antodom/installations/ChibiStudio/tools/GNU Tools ARM Embedded/8.3.1 2019q3/bin/../lib/gcc/arm-none-eabi/8.3.1/../../../../arm-none-eabi/lib/thumb/v7e-m/nofp/libg.a(lib_a-wsetup.o)
                                                  /home/antodom/installations/ChibiStudio/tools/GNU Tools ARM Embedded/8.3.1 2019q3/bin/../lib/gcc/arm-none-eabi/8.3.1/../../../../arm-none-eabi/lib/thumb/v7e-m/nofp/libg.a(lib_a-wbuf.o)
                                                  /home/antodom/installations/ChibiStudio/tools/GNU Tools ARM Embedded/8.3.1 2019q3/bin/../lib/gcc/arm-none-eabi/8.3.1/../../../../arm-none-eabi/lib/thumb/v7e-m/nofp/libg.a(lib_a-sprintf.o)
                                                  /home/antodom/installations/ChibiStudio/tools/GNU Tools ARM Embedded/8.3.1 2019q3/bin/../lib/gcc/arm-none-eabi/8.3.1/../../../../arm-none-eabi/lib/thumb/v7e-m/nofp/libg.a(lib_a-signal.o)
                                                  /home/antodom/installations/ChibiStudio/tools/GNU Tools ARM Embedded/8.3.1 2019q3/bin/../lib/gcc/arm-none-eabi/8.3.1/../../../../arm-none-eabi/lib/thumb/v7e-m/nofp/libg.a(lib_a-reent.o)
                                                  /home/antodom/installations/ChibiStudio/tools/GNU Tools ARM Embedded/8.3.1 2019q3/bin/../lib/gcc/arm-none-eabi/8.3.1/../../../../arm-none-eabi/lib/thumb/v7e-m/nofp/libg.a(lib_a-realloc.o)
                                                  /home/antodom/installations/ChibiStudio/tools/GNU Tools ARM Embedded/8.3.1 2019q3/bin/../lib/gcc/arm-none-eabi/8.3.1/../../../../arm-none-eabi/lib/thumb/v7e-m/nofp/libg.a(lib_a-putc.o)
                                                  /home/antodom/installations/ChibiStudio/tools/GNU Tools ARM Embedded/8.3.1 2019q3/bin/../lib/gcc/arm-none-eabi/8.3.1/../../../../arm-none-eabi/lib/thumb/v7e-m/nofp/libg.a(lib_a-malloc.o)
                                                  /home/antodom/installations/ChibiStudio/tools/GNU Tools ARM Embedded/8.3.1 2019q3/bin/../lib/gcc/arm-none-eabi/8.3.1/../../../../arm-none-eabi/lib/thumb/v7e-m/nofp/libg.a(lib_a-fwrite.o)
                                                  /home/antodom/installations/ChibiStudio/tools/GNU Tools ARM Embedded/8.3.1 2019q3/bin/../lib/gcc/arm-none-eabi/8.3.1/../../../../arm-none-eabi/lib/thumb/v7e-m/nofp/libg.a(lib_a-fputs.o)
                                                  /home/antodom/installations/ChibiStudio/tools/GNU Tools ARM Embedded/8.3.1 2019q3/bin/../lib/gcc/arm-none-eabi/8.3.1/../../../../arm-none-eabi/lib/thumb/v7e-m/nofp/libg.a(lib_a-fputc.o)
                                                  /home/antodom/installations/ChibiStudio/tools/GNU Tools ARM Embedded/8.3.1 2019q3/bin/../lib/gcc/arm-none-eabi/8.3.1/../../../../arm-none-eabi/lib/thumb/v7e-m/nofp/libstdc++.a(vterminate.o)
_init_signal                                      /home/antodom/installations/ChibiStudio/tools/GNU Tools ARM Embedded/8.3.1 2019q3/bin/../lib/gcc/arm-none-eabi/8.3.1/../../../../arm-none-eabi/lib/thumb/v7e-m/nofp/libg.a(lib_a-signal.o)
_init_signal_r                                    /home/antodom/installations/ChibiStudio/tools/GNU Tools ARM Embedded/8.3.1 2019q3/bin/../lib/gcc/arm-none-eabi/8.3.1/../../../../arm-none-eabi/lib/thumb/v7e-m/nofp/libg.a(lib_a-signal.o)
_isatty_r                                         /tmp/ccxSiIU7.ltrans0.ltrans.o
                                                  ./build/obj/syscalls.o (symbol from plugin)
                                                  /home/antodom/installations/ChibiStudio/tools/GNU Tools ARM Embedded/8.3.1 2019q3/bin/../lib/gcc/arm-none-eabi/8.3.1/../../../../arm-none-eabi/lib/thumb/v7e-m/nofp/libg.a(lib_a-makebuf.o)
_kill                                             /tmp/ccxSiIU7.ltrans0.ltrans.o
                                                  ./build/obj/syscalls_cpp.o (symbol from plugin)
                                                  /home/antodom/installations/ChibiStudio/tools/GNU Tools ARM Embedded/8.3.1 2019q3/bin/../lib/gcc/arm-none-eabi/8.3.1/../../../../arm-none-eabi/lib/thumb/v7e-m/nofp/libg.a(lib_a-signalr.o)
_kill_r                                           /home/antodom/installations/ChibiStudio/tools/GNU Tools ARM Embedded/8.3.1 2019q3/bin/../lib/gcc/arm-none-eabi/8.3.1/../../../../arm-none-eabi/lib/thumb/v7e-m/nofp/libg.a(lib_a-signalr.o)
                                                  /home/antodom/installations/ChibiStudio/tools/GNU Tools ARM Embedded/8.3.1 2019q3/bin/../lib/gcc/arm-none-eabi/8.3.1/../../../../arm-none-eabi/lib/thumb/v7e-m/nofp/libg.a(lib_a-signal.o)
_localeconv_r                                     /home/antodom/installations/ChibiStudio/tools/GNU Tools ARM Embedded/8.3.1 2019q3/bin/../lib/gcc/arm-none-eabi/8.3.1/../../../../arm-none-eabi/lib/thumb/v7e-m/nofp/libg.a(lib_a-localeconv.o)
                                                  /home/antodom/installations/ChibiStudio/tools/GNU Tools ARM Embedded/8.3.1 2019q3/bin/../lib/gcc/arm-none-eabi/8.3.1/../../../../arm-none-eabi/lib/thumb/v7e-m/nofp/libg.a(lib_a-svfiprintf.o)
                                                  /home/antodom/installations/ChibiStudio/tools/GNU Tools ARM Embedded/8.3.1 2019q3/bin/../lib/gcc/arm-none-eabi/8.3.1/../../../../arm-none-eabi/lib/thumb/v7e-m/nofp/libg.a(lib_a-svfprintf.o)
_lseek_r                                          /tmp/ccxSiIU7.ltrans0.ltrans.o
                                                  ./build/obj/syscalls.o (symbol from plugin)
                                                  /home/antodom/installations/ChibiStudio/tools/GNU Tools ARM Embedded/8.3.1 2019q3/bin/../lib/gcc/arm-none-eabi/8.3.1/../../../../arm-none-eabi/lib/thumb/v7e-m/nofp/libg.a(lib_a-stdio.o)
_malloc_r                                         /home/antodom/installations/ChibiStudio/tools/GNU Tools ARM Embedded/8.3.1 2019q3/bin/../lib/gcc/arm-none-eabi/8.3.1/../../../../arm-none-eabi/lib/thumb/v7e-m/nofp/libg.a(lib_a-mallocr.o)
                                                  /home/antodom/installations/ChibiStudio/tools/GNU Tools ARM Embedded/8.3.1 2019q3/bin/../lib/gcc/arm-none-eabi/8.3.1/../../../../arm-none-eabi/lib/thumb/v7e-m/nofp/libg.a(lib_a-callocr.o)
                                                  /home/antodom/installations/ChibiStudio/tools/GNU Tools ARM Embedded/8.3.1 2019q3/bin/../lib/gcc/arm-none-eabi/8.3.1/../../../../arm-none-eabi/lib/thumb/v7e-m/nofp/libg.a(lib_a-svfiprintf.o)
                                                  /home/antodom/installations/ChibiStudio/tools/GNU Tools ARM Embedded/8.3.1 2019q3/bin/../lib/gcc/arm-none-eabi/8.3.1/../../../../arm-none-eabi/lib/thumb/v7e-m/nofp/libg.a(lib_a-makebuf.o)
                                                  /home/antodom/installations/ChibiStudio/tools/GNU Tools ARM Embedded/8.3.1 2019q3/bin/../lib/gcc/arm-none-eabi/8.3.1/../../../../arm-none-eabi/lib/thumb/v7e-m/nofp/libg.a(lib_a-findfp.o)
                                                  /home/antodom/installations/ChibiStudio/tools/GNU Tools ARM Embedded/8.3.1 2019q3/bin/../lib/gcc/arm-none-eabi/8.3.1/../../../../arm-none-eabi/lib/thumb/v7e-m/nofp/libg.a(lib_a-svfprintf.o)
                                                  /home/antodom/installations/ChibiStudio/tools/GNU Tools ARM Embedded/8.3.1 2019q3/bin/../lib/gcc/arm-none-eabi/8.3.1/../../../../arm-none-eabi/lib/thumb/v7e-m/nofp/libg.a(lib_a-signal.o)
                                                  /home/antodom/installations/ChibiStudio/tools/GNU Tools ARM Embedded/8.3.1 2019q3/bin/../lib/gcc/arm-none-eabi/8.3.1/../../../../arm-none-eabi/lib/thumb/v7e-m/nofp/libg.a(lib_a-reallocr.o)
                                                  /home/antodom/installations/ChibiStudio/tools/GNU Tools ARM Embedded/8.3.1 2019q3/bin/../lib/gcc/arm-none-eabi/8.3.1/../../../../arm-none-eabi/lib/thumb/v7e-m/nofp/libg.a(lib_a-malloc.o)
                                                  /home/antodom/installations/ChibiStudio/tools/GNU Tools ARM Embedded/8.3.1 2019q3/bin/../lib/gcc/arm-none-eabi/8.3.1/../../../../arm-none-eabi/lib/thumb/v7e-m/nofp/libg.a(lib_a-fvwrite.o)
_malloc_trim_r                                    /home/antodom/installations/ChibiStudio/tools/GNU Tools ARM Embedded/8.3.1 2019q3/bin/../lib/gcc/arm-none-eabi/8.3.1/../../../../arm-none-eabi/lib/thumb/v7e-m/nofp/libg.a(lib_a-freer.o)
_mbtowc_r                                         /home/antodom/installations/ChibiStudio/tools/GNU Tools ARM Embedded/8.3.1 2019q3/bin/../lib/gcc/arm-none-eabi/8.3.1/../../../../arm-none-eabi/lib/thumb/v7e-m/nofp/libg.a(lib_a-mbtowc_r.o)
_mprec_log10                                      /home/antodom/installations/ChibiStudio/tools/GNU Tools ARM Embedded/8.3.1 2019q3/bin/../lib/gcc/arm-none-eabi/8.3.1/../../../../arm-none-eabi/lib/thumb/v7e-m/nofp/libg.a(lib_a-mprec.o)
_open_r                                           ./build/obj/syscalls_cpp.o (symbol from plugin)
_pal_events                                       ./build/obj/hal_pal_lld.o (symbol from plugin)
                                                  ./build/obj/stm32_isr.o (symbol from plugin)
                                                  ./build/obj/hal_pal.o (symbol from plugin)
_pal_lld_disablepadevent                          ./build/obj/hal_pal_lld.o (symbol from plugin)
                                                  ./build/obj/main.o (symbol from plugin)
_pal_lld_enablepadevent                           ./build/obj/hal_pal_lld.o (symbol from plugin)
                                                  ./build/obj/main.o (symbol from plugin)
_pal_lld_init                                     ./build/obj/hal_pal_lld.o (symbol from plugin)
                                                  ./build/obj/hal.o (symbol from plugin)
_pal_lld_setgroupmode                             ./build/obj/hal_pal_lld.o (symbol from plugin)
                                                  ./build/obj/main.o (symbol from plugin)
                                                  ./build/obj/hal_pal.o (symbol from plugin)
_port_exit_from_isr                               ./build/obj/chcoreasm_v7m.o
                                                  /tmp/ccxSiIU7.ltrans0.ltrans.o
                                                  ./build/obj/chcore_v7m.o (symbol from plugin)
_port_irq_epilogue                                ./build/obj/chcore_v7m.o (symbol from plugin)
                                                  ./build/obj/hal_serial_lld.o (symbol from plugin)
                                                  ./build/obj/hal_gpt_lld.o (symbol from plugin)
                                                  ./build/obj/hal_st_lld.o (symbol from plugin)
                                                  ./build/obj/stm32_isr.o (symbol from plugin)
_port_switch                                      ./build/obj/chcoreasm_v7m.o
                                                  /tmp/ccxSiIU7.ltrans0.ltrans.o
                                                  ./build/obj/chschd.o (symbol from plugin)
_port_switch_from_isr                             ./build/obj/chcoreasm_v7m.o
                                                  /tmp/ccxSiIU7.ltrans0.ltrans.o
                                                  ./build/obj/chcore_v7m.o (symbol from plugin)
_port_thread_start                                ./build/obj/chcoreasm_v7m.o
                                                  /tmp/ccxSiIU7.ltrans0.ltrans.o
                                                  ./build/obj/chthreads.o (symbol from plugin)
_putc_r                                           /home/antodom/installations/ChibiStudio/tools/GNU Tools ARM Embedded/8.3.1 2019q3/bin/../lib/gcc/arm-none-eabi/8.3.1/../../../../arm-none-eabi/lib/thumb/v7e-m/nofp/libg.a(lib_a-putc.o)
                                                  /home/antodom/installations/ChibiStudio/tools/GNU Tools ARM Embedded/8.3.1 2019q3/bin/../lib/gcc/arm-none-eabi/8.3.1/../../../../arm-none-eabi/lib/thumb/v7e-m/nofp/libg.a(lib_a-fputc.o)
_raise_r                                          /home/antodom/installations/ChibiStudio/tools/GNU Tools ARM Embedded/8.3.1 2019q3/bin/../lib/gcc/arm-none-eabi/8.3.1/../../../../arm-none-eabi/lib/thumb/v7e-m/nofp/libg.a(lib_a-signal.o)
_read_r                                           /tmp/ccxSiIU7.ltrans0.ltrans.o
                                                  ./build/obj/syscalls.o (symbol from plugin)
                                                  /home/antodom/installations/ChibiStudio/tools/GNU Tools ARM Embedded/8.3.1 2019q3/bin/../lib/gcc/arm-none-eabi/8.3.1/../../../../arm-none-eabi/lib/thumb/v7e-m/nofp/libg.a(lib_a-stdio.o)
_realloc_r                                        /home/antodom/installations/ChibiStudio/tools/GNU Tools ARM Embedded/8.3.1 2019q3/bin/../lib/gcc/arm-none-eabi/8.3.1/../../../../arm-none-eabi/lib/thumb/v7e-m/nofp/libg.a(lib_a-reallocr.o)
                                                  /home/antodom/installations/ChibiStudio/tools/GNU Tools ARM Embedded/8.3.1 2019q3/bin/../lib/gcc/arm-none-eabi/8.3.1/../../../../arm-none-eabi/lib/thumb/v7e-m/nofp/libg.a(lib_a-svfiprintf.o)
                                                  /home/antodom/installations/ChibiStudio/tools/GNU Tools ARM Embedded/8.3.1 2019q3/bin/../lib/gcc/arm-none-eabi/8.3.1/../../../../arm-none-eabi/lib/thumb/v7e-m/nofp/libg.a(lib_a-realloc.o)
                                                  /home/antodom/installations/ChibiStudio/tools/GNU Tools ARM Embedded/8.3.1 2019q3/bin/../lib/gcc/arm-none-eabi/8.3.1/../../../../arm-none-eabi/lib/thumb/v7e-m/nofp/libg.a(lib_a-fvwrite.o)
_reclaim_reent                                    /home/antodom/installations/ChibiStudio/tools/GNU Tools ARM Embedded/8.3.1 2019q3/bin/../lib/gcc/arm-none-eabi/8.3.1/../../../../arm-none-eabi/lib/thumb/v7e-m/nofp/libg.a(lib_a-reent.o)
_sbrk_r                                           /tmp/ccxSiIU7.ltrans0.ltrans.o
                                                  ./build/obj/syscalls.o (symbol from plugin)
                                                  /home/antodom/installations/ChibiStudio/tools/GNU Tools ARM Embedded/8.3.1 2019q3/bin/../lib/gcc/arm-none-eabi/8.3.1/../../../../arm-none-eabi/lib/thumb/v7e-m/nofp/libg.a(lib_a-freer.o)
                                                  /home/antodom/installations/ChibiStudio/tools/GNU Tools ARM Embedded/8.3.1 2019q3/bin/../lib/gcc/arm-none-eabi/8.3.1/../../../../arm-none-eabi/lib/thumb/v7e-m/nofp/libg.a(lib_a-mallocr.o)
_scheduler_init                                   ./build/obj/chschd.o (symbol from plugin)
                                                  ./build/obj/chsys.o (symbol from plugin)
_setlocale_r                                      /home/antodom/installations/ChibiStudio/tools/GNU Tools ARM Embedded/8.3.1 2019q3/bin/../lib/gcc/arm-none-eabi/8.3.1/../../../../arm-none-eabi/lib/thumb/v7e-m/nofp/libg.a(lib_a-locale.o)
_signal_r                                         /home/antodom/installations/ChibiStudio/tools/GNU Tools ARM Embedded/8.3.1 2019q3/bin/../lib/gcc/arm-none-eabi/8.3.1/../../../../arm-none-eabi/lib/thumb/v7e-m/nofp/libg.a(lib_a-signal.o)
_sprintf_r                                        /home/antodom/installations/ChibiStudio/tools/GNU Tools ARM Embedded/8.3.1 2019q3/bin/../lib/gcc/arm-none-eabi/8.3.1/../../../../arm-none-eabi/lib/thumb/v7e-m/nofp/libg.a(lib_a-sprintf.o)
_svfiprintf_r                                     /home/antodom/installations/ChibiStudio/tools/GNU Tools ARM Embedded/8.3.1 2019q3/bin/../lib/gcc/arm-none-eabi/8.3.1/../../../../arm-none-eabi/lib/thumb/v7e-m/nofp/libg.a(lib_a-svfiprintf.o)
_svfprintf_r                                      /home/antodom/installations/ChibiStudio/tools/GNU Tools ARM Embedded/8.3.1 2019q3/bin/../lib/gcc/arm-none-eabi/8.3.1/../../../../arm-none-eabi/lib/thumb/v7e-m/nofp/libg.a(lib_a-svfprintf.o)
                                                  /home/antodom/installations/ChibiStudio/tools/GNU Tools ARM Embedded/8.3.1 2019q3/bin/../lib/gcc/arm-none-eabi/8.3.1/../../../../arm-none-eabi/lib/thumb/v7e-m/nofp/libg.a(lib_a-sprintf.o)
_test_assert                                      ./build/obj/ch_test.o (symbol from plugin)
                                                  ./build/obj/oslib_test_sequence_005.o (symbol from plugin)
                                                  ./build/obj/oslib_test_sequence_004.o (symbol from plugin)
                                                  ./build/obj/oslib_test_sequence_003.o (symbol from plugin)
                                                  ./build/obj/oslib_test_sequence_002.o (symbol from plugin)
                                                  ./build/obj/oslib_test_sequence_001.o (symbol from plugin)
                                                  ./build/obj/rt_test_sequence_009.o (symbol from plugin)
                                                  ./build/obj/rt_test_sequence_008.o (symbol from plugin)
                                                  ./build/obj/rt_test_sequence_006.o (symbol from plugin)
                                                  ./build/obj/rt_test_sequence_005.o (symbol from plugin)
                                                  ./build/obj/rt_test_sequence_004.o (symbol from plugin)
                                                  ./build/obj/rt_test_sequence_003.o (symbol from plugin)
                                                  ./build/obj/rt_test_sequence_002.o (symbol from plugin)
_test_assert_sequence                             ./build/obj/ch_test.o (symbol from plugin)
                                                  ./build/obj/oslib_test_sequence_001.o (symbol from plugin)
                                                  ./build/obj/rt_test_sequence_009.o (symbol from plugin)
                                                  ./build/obj/rt_test_sequence_008.o (symbol from plugin)
                                                  ./build/obj/rt_test_sequence_007.o (symbol from plugin)
                                                  ./build/obj/rt_test_sequence_006.o (symbol from plugin)
                                                  ./build/obj/rt_test_sequence_005.o (symbol from plugin)
                                                  ./build/obj/rt_test_sequence_003.o (symbol from plugin)
_test_assert_time_window                          ./build/obj/ch_test.o (symbol from plugin)
                                                  ./build/obj/rt_test_sequence_008.o (symbol from plugin)
                                                  ./build/obj/rt_test_sequence_005.o (symbol from plugin)
                                                  ./build/obj/rt_test_sequence_004.o (symbol from plugin)
                                                  ./build/obj/rt_test_sequence_003.o (symbol from plugin)
_test_fail                                        ./build/obj/ch_test.o (symbol from plugin)
_textdata_start                                   ./build/obj/crt0_v7m.o
_thread_init                                      ./build/obj/chthreads.o (symbol from plugin)
                                                  ./build/obj/chsys.o (symbol from plugin)
_tm_init                                          ./build/obj/chtm.o (symbol from plugin)
                                                  ./build/obj/chsys.o (symbol from plugin)
_unhandled_exception                              ./build/obj/vectors.o
_vectors                                          ./build/obj/vectors.o
                                                  ./build/obj/crt0_v7m.o
_vt_init                                          ./build/obj/chvt.o (symbol from plugin)
                                                  ./build/obj/chsys.o (symbol from plugin)
_wctomb_r                                         /home/antodom/installations/ChibiStudio/tools/GNU Tools ARM Embedded/8.3.1 2019q3/bin/../lib/gcc/arm-none-eabi/8.3.1/../../../../arm-none-eabi/lib/thumb/v7e-m/nofp/libg.a(lib_a-wctomb_r.o)
_write_r                                          /tmp/ccxSiIU7.ltrans0.ltrans.o
                                                  ./build/obj/syscalls.o (symbol from plugin)
                                                  /home/antodom/installations/ChibiStudio/tools/GNU Tools ARM Embedded/8.3.1 2019q3/bin/../lib/gcc/arm-none-eabi/8.3.1/../../../../arm-none-eabi/lib/thumb/v7e-m/nofp/libg.a(lib_a-stdio.o)
abort                                             /home/antodom/installations/ChibiStudio/tools/GNU Tools ARM Embedded/8.3.1 2019q3/bin/../lib/gcc/arm-none-eabi/8.3.1/../../../../arm-none-eabi/lib/thumb/v7e-m/nofp/libg.a(lib_a-abort.o)
                                                  /home/antodom/installations/ChibiStudio/tools/GNU Tools ARM Embedded/8.3.1 2019q3/bin/../lib/gcc/arm-none-eabi/8.3.1/thumb/v7e-m/nofp/libgcc.a(pr-support.o)
                                                  /home/antodom/installations/ChibiStudio/tools/GNU Tools ARM Embedded/8.3.1 2019q3/bin/../lib/gcc/arm-none-eabi/8.3.1/thumb/v7e-m/nofp/libgcc.a(unwind-arm.o)
                                                  /home/antodom/installations/ChibiStudio/tools/GNU Tools ARM Embedded/8.3.1 2019q3/bin/../lib/gcc/arm-none-eabi/8.3.1/../../../../arm-none-eabi/lib/thumb/v7e-m/nofp/libstdc++.a(vterminate.o)
                                                  /home/antodom/installations/ChibiStudio/tools/GNU Tools ARM Embedded/8.3.1 2019q3/bin/../lib/gcc/arm-none-eabi/8.3.1/../../../../arm-none-eabi/lib/thumb/v7e-m/nofp/libstdc++.a(eh_terminate.o)
                                                  /home/antodom/installations/ChibiStudio/tools/GNU Tools ARM Embedded/8.3.1 2019q3/bin/../lib/gcc/arm-none-eabi/8.3.1/../../../../arm-none-eabi/lib/thumb/v7e-m/nofp/libstdc++.a(eh_personality.o)
atexit                                            /home/antodom/installations/ChibiStudio/tools/GNU Tools ARM Embedded/8.3.1 2019q3/bin/../lib/gcc/arm-none-eabi/8.3.1/../../../../arm-none-eabi/lib/thumb/v7e-m/nofp/libg.a(lib_a-atexit.o)
                                                  /home/antodom/installations/ChibiStudio/tools/GNU Tools ARM Embedded/8.3.1 2019q3/bin/../lib/gcc/arm-none-eabi/8.3.1/../../../../arm-none-eabi/lib/thumb/v7e-m/nofp/libg.a(lib_a-__call_atexit.o)
board.c.61054b94                                  /tmp/ccbVf9uwdebugobj
                                                  /tmp/ccxSiIU7.ltrans0.ltrans.o
boardInit                                         ./build/obj/board.o (symbol from plugin)
                                                  ./build/obj/hal.o (symbol from plugin)
ch                                                ./build/obj/chschd.o (symbol from plugin)
                                                  ./build/obj/main.o (symbol from plugin)
                                                  ./build/obj/ch.o (symbol from plugin)
                                                  ./build/obj/oslib_test_sequence_001.o (symbol from plugin)
                                                  ./build/obj/rt_test_sequence_010.o (symbol from plugin)
                                                  ./build/obj/rt_test_sequence_009.o (symbol from plugin)
                                                  ./build/obj/rt_test_sequence_008.o (symbol from plugin)
                                                  ./build/obj/rt_test_sequence_007.o (symbol from plugin)
                                                  ./build/obj/rt_test_sequence_006.o (symbol from plugin)
                                                  ./build/obj/rt_test_sequence_005.o (symbol from plugin)
                                                  ./build/obj/rt_test_sequence_004.o (symbol from plugin)
                                                  ./build/obj/rt_test_sequence_003.o (symbol from plugin)
                                                  ./build/obj/rt_test_sequence_002.o (symbol from plugin)
                                                  ./build/obj/rt_test_root.o (symbol from plugin)
                                                  ./build/obj/ch_test.o (symbol from plugin)
                                                  ./build/obj/chpipes.o (symbol from plugin)
                                                  ./build/obj/chmempools.o (symbol from plugin)
                                                  ./build/obj/chmemcore.o (symbol from plugin)
                                                  ./build/obj/chmboxes.o (symbol from plugin)
                                                  ./build/obj/chdynamic.o (symbol from plugin)
                                                  ./build/obj/chmsg.o (symbol from plugin)
                                                  ./build/obj/chevents.o (symbol from plugin)
                                                  ./build/obj/chcond.o (symbol from plugin)
                                                  ./build/obj/chmtx.o (symbol from plugin)
                                                  ./build/obj/chsem.o (symbol from plugin)
                                                  ./build/obj/chregistry.o (symbol from plugin)
                                                  ./build/obj/chtm.o (symbol from plugin)
                                                  ./build/obj/chthreads.o (symbol from plugin)
                                                  ./build/obj/chvt.o (symbol from plugin)
                                                  ./build/obj/chsys.o (symbol from plugin)
                                                  ./build/obj/hal_serial.o (symbol from plugin)
                                                  ./build/obj/hal_gpt.o (symbol from plugin)
                                                  ./build/obj/hal_queues.o (symbol from plugin)
                                                  ./build/obj/hal_buffers.o (symbol from plugin)
ch.cpp.d723b77b                                   /tmp/ccbVf9uwdebugobj
                                                  /tmp/ccxSiIU7.ltrans0.ltrans.o
chCondBroadcast                                   ./build/obj/chcond.o (symbol from plugin)
                                                  ./build/obj/rt_test_sequence_006.o (symbol from plugin)
chCondBroadcastI                                  ./build/obj/chcond.o (symbol from plugin)
chCondObjectInit                                  ./build/obj/chcond.o (symbol from plugin)
                                                  ./build/obj/rt_test_sequence_006.o (symbol from plugin)
chCondSignal                                      ./build/obj/chcond.o (symbol from plugin)
                                                  ./build/obj/rt_test_sequence_006.o (symbol from plugin)
chCondSignalI                                     ./build/obj/chcond.o (symbol from plugin)
                                                  ./build/obj/rt_test_sequence_006.o (symbol from plugin)
chCondWait                                        ./build/obj/chcond.o (symbol from plugin)
                                                  ./build/obj/rt_test_sequence_006.o (symbol from plugin)
chCondWaitS                                       ./build/obj/chcond.o (symbol from plugin)
chCondWaitTimeout                                 ./build/obj/chcond.o (symbol from plugin)
                                                  ./build/obj/rt_test_sequence_006.o (symbol from plugin)
chCondWaitTimeoutS                                ./build/obj/chcond.o (symbol from plugin)
chCoreAllocAlignedWithOffset                      ./build/obj/chmemcore.o (symbol from plugin)
                                                  ./build/obj/syscalls.o (symbol from plugin)
                                                  ./build/obj/chmemheaps.o (symbol from plugin)
chCoreAllocAlignedWithOffsetI                     ./build/obj/chmemcore.o (symbol from plugin)
                                                  ./build/obj/chfactory.o (symbol from plugin)
chCoreGetStatusX                                  ./build/obj/chmemcore.o (symbol from plugin)
chEvtAddEvents                                    ./build/obj/chevents.o (symbol from plugin)
                                                  ./build/obj/rt_test_sequence_008.o (symbol from plugin)
chEvtBroadcastFlags                               ./build/obj/chevents.o (symbol from plugin)
                                                  ./build/obj/rt_test_sequence_008.o (symbol from plugin)
chEvtBroadcastFlagsI                              ./build/obj/chevents.o (symbol from plugin)
                                                  ./build/obj/hal_serial_lld.o (symbol from plugin)
                                                  ./build/obj/hal_serial.o (symbol from plugin)
chEvtDispatch                                     ./build/obj/chevents.o (symbol from plugin)
                                                  ./build/obj/rt_test_sequence_008.o (symbol from plugin)
chEvtGetAndClearEvents                            ./build/obj/chevents.o (symbol from plugin)
                                                  ./build/obj/rt_test_sequence_008.o (symbol from plugin)
chEvtGetAndClearEventsI                           ./build/obj/chevents.o (symbol from plugin)
chEvtGetAndClearFlags                             ./build/obj/chevents.o (symbol from plugin)
chEvtGetAndClearFlagsI                            ./build/obj/chevents.o (symbol from plugin)
chEvtRegisterMaskWithFlags                        ./build/obj/chevents.o (symbol from plugin)
                                                  ./build/obj/rt_test_sequence_008.o (symbol from plugin)
chEvtSignal                                       ./build/obj/chevents.o (symbol from plugin)
                                                  ./build/obj/rt_test_sequence_008.o (symbol from plugin)
chEvtSignalI                                      ./build/obj/chevents.o (symbol from plugin)
chEvtUnregister                                   ./build/obj/chevents.o (symbol from plugin)
                                                  ./build/obj/rt_test_sequence_008.o (symbol from plugin)
chEvtWaitAll                                      ./build/obj/chevents.o (symbol from plugin)
                                                  ./build/obj/rt_test_sequence_008.o (symbol from plugin)
chEvtWaitAllTimeout                               ./build/obj/chevents.o (symbol from plugin)
                                                  ./build/obj/rt_test_sequence_008.o (symbol from plugin)
chEvtWaitAny                                      ./build/obj/chevents.o (symbol from plugin)
                                                  ./build/obj/rt_test_sequence_008.o (symbol from plugin)
chEvtWaitAnyTimeout                               ./build/obj/chevents.o (symbol from plugin)
                                                  ./build/obj/rt_test_sequence_008.o (symbol from plugin)
chEvtWaitOne                                      ./build/obj/chevents.o (symbol from plugin)
                                                  ./build/obj/rt_test_sequence_008.o (symbol from plugin)
chEvtWaitOneTimeout                               ./build/obj/chevents.o (symbol from plugin)
                                                  ./build/obj/rt_test_sequence_008.o (symbol from plugin)
chFactoryCreateBuffer                             ./build/obj/chfactory.o (symbol from plugin)
                                                  ./build/obj/oslib_test_sequence_005.o (symbol from plugin)
chFactoryCreateMailbox                            ./build/obj/chfactory.o (symbol from plugin)
                                                  ./build/obj/oslib_test_sequence_005.o (symbol from plugin)
chFactoryCreateObjectsFIFO                        ./build/obj/chfactory.o (symbol from plugin)
                                                  ./build/obj/oslib_test_sequence_005.o (symbol from plugin)
chFactoryCreatePipe                               ./build/obj/chfactory.o (symbol from plugin)
                                                  ./build/obj/oslib_test_sequence_005.o (symbol from plugin)
chFactoryCreateSemaphore                          ./build/obj/chfactory.o (symbol from plugin)
                                                  ./build/obj/oslib_test_sequence_005.o (symbol from plugin)
chFactoryFindBuffer                               ./build/obj/chfactory.o (symbol from plugin)
                                                  ./build/obj/oslib_test_sequence_005.o (symbol from plugin)
chFactoryFindMailbox                              ./build/obj/chfactory.o (symbol from plugin)
                                                  ./build/obj/oslib_test_sequence_005.o (symbol from plugin)
chFactoryFindObject                               ./build/obj/chfactory.o (symbol from plugin)
                                                  ./build/obj/oslib_test_sequence_005.o (symbol from plugin)
chFactoryFindObjectByPointer                      ./build/obj/chfactory.o (symbol from plugin)
chFactoryFindObjectsFIFO                          ./build/obj/chfactory.o (symbol from plugin)
                                                  ./build/obj/oslib_test_sequence_005.o (symbol from plugin)
chFactoryFindPipe                                 ./build/obj/chfactory.o (symbol from plugin)
                                                  ./build/obj/oslib_test_sequence_005.o (symbol from plugin)
chFactoryFindSemaphore                            ./build/obj/chfactory.o (symbol from plugin)
                                                  ./build/obj/oslib_test_sequence_005.o (symbol from plugin)
chFactoryRegisterObject                           ./build/obj/chfactory.o (symbol from plugin)
                                                  ./build/obj/oslib_test_sequence_005.o (symbol from plugin)
chFactoryReleaseBuffer                            ./build/obj/chfactory.o (symbol from plugin)
                                                  ./build/obj/oslib_test_sequence_005.o (symbol from plugin)
chFactoryReleaseMailbox                           ./build/obj/chfactory.o (symbol from plugin)
                                                  ./build/obj/oslib_test_sequence_005.o (symbol from plugin)
chFactoryReleaseObject                            ./build/obj/chfactory.o (symbol from plugin)
                                                  ./build/obj/oslib_test_sequence_005.o (symbol from plugin)
chFactoryReleaseObjectsFIFO                       ./build/obj/chfactory.o (symbol from plugin)
                                                  ./build/obj/oslib_test_sequence_005.o (symbol from plugin)
chFactoryReleasePipe                              ./build/obj/chfactory.o (symbol from plugin)
                                                  ./build/obj/oslib_test_sequence_005.o (symbol from plugin)
chFactoryReleaseSemaphore                         ./build/obj/chfactory.o (symbol from plugin)
                                                  ./build/obj/oslib_test_sequence_005.o (symbol from plugin)
chGuardedPoolAllocTimeout                         ./build/obj/chmempools.o (symbol from plugin)
                                                  ./build/obj/oslib_test_sequence_003.o (symbol from plugin)
chGuardedPoolAllocTimeoutS                        ./build/obj/chmempools.o (symbol from plugin)
chGuardedPoolFree                                 ./build/obj/chmempools.o (symbol from plugin)
                                                  ./build/obj/oslib_test_sequence_003.o (symbol from plugin)
chGuardedPoolLoadArray                            ./build/obj/chmempools.o (symbol from plugin)
                                                  ./build/obj/oslib_test_sequence_003.o (symbol from plugin)
                                                  ./build/obj/chfactory.o (symbol from plugin)
chGuardedPoolObjectInitAligned                    ./build/obj/chmempools.o (symbol from plugin)
                                                  ./build/obj/oslib_test_sequence_003.o (symbol from plugin)
                                                  ./build/obj/chfactory.o (symbol from plugin)
chHeapAllocAligned                                ./build/obj/chmemheaps.o (symbol from plugin)
                                                  ./build/obj/oslib_test_sequence_004.o (symbol from plugin)
                                                  ./build/obj/chfactory.o (symbol from plugin)
                                                  ./build/obj/chdynamic.o (symbol from plugin)
chHeapFree                                        ./build/obj/chmemheaps.o (symbol from plugin)
                                                  ./build/obj/oslib_test_sequence_004.o (symbol from plugin)
                                                  ./build/obj/chfactory.o (symbol from plugin)
                                                  ./build/obj/chthreads.o (symbol from plugin)
chHeapObjectInit                                  ./build/obj/chmemheaps.o (symbol from plugin)
                                                  ./build/obj/oslib_test_sequence_004.o (symbol from plugin)
                                                  ./build/obj/rt_test_sequence_009.o (symbol from plugin)
chHeapStatus                                      ./build/obj/chmemheaps.o (symbol from plugin)
                                                  ./build/obj/oslib_test_sequence_004.o (symbol from plugin)
                                                  ./build/obj/rt_test_sequence_009.o (symbol from plugin)
chMBFetchI                                        ./build/obj/chmboxes.o (symbol from plugin)
                                                  ./build/obj/oslib_test_sequence_001.o (symbol from plugin)
chMBFetchTimeout                                  ./build/obj/chmboxes.o (symbol from plugin)
                                                  ./build/obj/oslib_test_sequence_001.o (symbol from plugin)
chMBFetchTimeoutS                                 ./build/obj/chmboxes.o (symbol from plugin)
chMBObjectInit                                    ./build/obj/chmboxes.o (symbol from plugin)
                                                  ./build/obj/oslib_test_sequence_001.o (symbol from plugin)
                                                  ./build/obj/chfactory.o (symbol from plugin)
chMBPostAheadI                                    ./build/obj/chmboxes.o (symbol from plugin)
                                                  ./build/obj/oslib_test_sequence_001.o (symbol from plugin)
chMBPostAheadTimeout                              ./build/obj/chmboxes.o (symbol from plugin)
                                                  ./build/obj/oslib_test_sequence_001.o (symbol from plugin)
chMBPostAheadTimeoutS                             ./build/obj/chmboxes.o (symbol from plugin)
chMBPostI                                         ./build/obj/chmboxes.o (symbol from plugin)
                                                  ./build/obj/oslib_test_sequence_001.o (symbol from plugin)
chMBPostTimeout                                   ./build/obj/chmboxes.o (symbol from plugin)
                                                  ./build/obj/oslib_test_sequence_001.o (symbol from plugin)
chMBPostTimeoutS                                  ./build/obj/chmboxes.o (symbol from plugin)
chMBReset                                         ./build/obj/chmboxes.o (symbol from plugin)
                                                  ./build/obj/oslib_test_sequence_001.o (symbol from plugin)
chMBResetI                                        ./build/obj/chmboxes.o (symbol from plugin)
                                                  ./build/obj/oslib_test_sequence_001.o (symbol from plugin)
chMsgRelease                                      ./build/obj/chmsg.o (symbol from plugin)
                                                  ./build/obj/rt_test_sequence_010.o (symbol from plugin)
                                                  ./build/obj/rt_test_sequence_007.o (symbol from plugin)
chMsgSend                                         ./build/obj/chmsg.o (symbol from plugin)
                                                  ./build/obj/rt_test_sequence_010.o (symbol from plugin)
                                                  ./build/obj/rt_test_sequence_007.o (symbol from plugin)
chMsgWait                                         ./build/obj/chmsg.o (symbol from plugin)
                                                  ./build/obj/rt_test_sequence_010.o (symbol from plugin)
                                                  ./build/obj/rt_test_sequence_007.o (symbol from plugin)
chMtxLock                                         ./build/obj/chmtx.o (symbol from plugin)
                                                  ./build/obj/rt_test_sequence_010.o (symbol from plugin)
                                                  ./build/obj/rt_test_sequence_006.o (symbol from plugin)
                                                  ./build/obj/chfactory.o (symbol from plugin)
                                                  ./build/obj/chpipes.o (symbol from plugin)
                                                  ./build/obj/chmemheaps.o (symbol from plugin)
chMtxLockS                                        ./build/obj/chmtx.o (symbol from plugin)
                                                  ./build/obj/rt_test_sequence_006.o (symbol from plugin)
                                                  ./build/obj/chcond.o (symbol from plugin)
chMtxObjectInit                                   ./build/obj/chmtx.o (symbol from plugin)
                                                  ./build/obj/rt_test_sequence_010.o (symbol from plugin)
                                                  ./build/obj/rt_test_sequence_006.o (symbol from plugin)
                                                  ./build/obj/chfactory.o (symbol from plugin)
                                                  ./build/obj/chpipes.o (symbol from plugin)
                                                  ./build/obj/chmemheaps.o (symbol from plugin)
chMtxTryLock                                      ./build/obj/chmtx.o (symbol from plugin)
                                                  ./build/obj/rt_test_sequence_006.o (symbol from plugin)
chMtxTryLockS                                     ./build/obj/chmtx.o (symbol from plugin)
chMtxUnlock                                       ./build/obj/chmtx.o (symbol from plugin)
                                                  ./build/obj/rt_test_sequence_010.o (symbol from plugin)
                                                  ./build/obj/rt_test_sequence_006.o (symbol from plugin)
                                                  ./build/obj/chfactory.o (symbol from plugin)
                                                  ./build/obj/chpipes.o (symbol from plugin)
                                                  ./build/obj/chmemheaps.o (symbol from plugin)
chMtxUnlockAll                                    ./build/obj/chmtx.o (symbol from plugin)
                                                  ./build/obj/rt_test_sequence_006.o (symbol from plugin)
chMtxUnlockAllS                                   ./build/obj/chmtx.o (symbol from plugin)
chMtxUnlockS                                      ./build/obj/chmtx.o (symbol from plugin)
                                                  ./build/obj/rt_test_sequence_006.o (symbol from plugin)
                                                  ./build/obj/chcond.o (symbol from plugin)
chPipeObjectInit                                  ./build/obj/chpipes.o (symbol from plugin)
                                                  ./build/obj/oslib_test_sequence_002.o (symbol from plugin)
                                                  ./build/obj/chfactory.o (symbol from plugin)
chPipeReadTimeout                                 ./build/obj/chpipes.o (symbol from plugin)
                                                  ./build/obj/oslib_test_sequence_002.o (symbol from plugin)
chPipeReset                                       ./build/obj/chpipes.o (symbol from plugin)
                                                  ./build/obj/oslib_test_sequence_002.o (symbol from plugin)
chPipeWriteTimeout                                ./build/obj/chpipes.o (symbol from plugin)
                                                  ./build/obj/oslib_test_sequence_002.o (symbol from plugin)
chPoolAlloc                                       ./build/obj/chmempools.o (symbol from plugin)
                                                  ./build/obj/oslib_test_sequence_003.o (symbol from plugin)
                                                  ./build/obj/rt_test_sequence_009.o (symbol from plugin)
                                                  ./build/obj/chfactory.o (symbol from plugin)
                                                  ./build/obj/chdynamic.o (symbol from plugin)
chPoolAllocI                                      ./build/obj/chmempools.o (symbol from plugin)
chPoolFree                                        ./build/obj/chmempools.o (symbol from plugin)
                                                  ./build/obj/oslib_test_sequence_003.o (symbol from plugin)
                                                  ./build/obj/rt_test_sequence_009.o (symbol from plugin)
                                                  ./build/obj/chfactory.o (symbol from plugin)
                                                  ./build/obj/chthreads.o (symbol from plugin)
chPoolFreeI                                       ./build/obj/chmempools.o (symbol from plugin)
chPoolLoadArray                                   ./build/obj/chmempools.o (symbol from plugin)
                                                  ./build/obj/oslib_test_sequence_003.o (symbol from plugin)
chPoolObjectInitAligned                           ./build/obj/chmempools.o (symbol from plugin)
                                                  ./build/obj/oslib_test_sequence_003.o (symbol from plugin)
                                                  ./build/obj/rt_test_sequence_009.o (symbol from plugin)
                                                  ./build/obj/chfactory.o (symbol from plugin)
chRegFindThreadByName                             ./build/obj/chregistry.o (symbol from plugin)
chRegFindThreadByPointer                          ./build/obj/chregistry.o (symbol from plugin)
chRegFindThreadByWorkingArea                      ./build/obj/chregistry.o (symbol from plugin)
                                                  ./build/obj/chthreads.o (symbol from plugin)
chRegFirstThread                                  ./build/obj/chregistry.o (symbol from plugin)
chRegNextThread                                   ./build/obj/chregistry.o (symbol from plugin)
chSchDoReschedule                                 /tmp/ccxSiIU7.ltrans0.ltrans.o
                                                  ./build/obj/chschd.o (symbol from plugin)
                                                  ./build/obj/chcoreasm_v7m.o
chSchDoRescheduleAhead                            ./build/obj/chschd.o (symbol from plugin)
chSchDoRescheduleBehind                           ./build/obj/chschd.o (symbol from plugin)
                                                  ./build/obj/chthreads.o (symbol from plugin)
chSchGoSleepS                                     ./build/obj/chschd.o (symbol from plugin)
                                                  ./build/obj/rt_test_sequence_010.o (symbol from plugin)
                                                  ./build/obj/chmsg.o (symbol from plugin)
                                                  ./build/obj/chevents.o (symbol from plugin)
                                                  ./build/obj/chcond.o (symbol from plugin)
                                                  ./build/obj/chmtx.o (symbol from plugin)
                                                  ./build/obj/chsem.o (symbol from plugin)
                                                  ./build/obj/chthreads.o (symbol from plugin)
chSchGoSleepTimeoutS                              ./build/obj/chschd.o (symbol from plugin)
                                                  ./build/obj/chevents.o (symbol from plugin)
                                                  ./build/obj/chcond.o (symbol from plugin)
                                                  ./build/obj/chsem.o (symbol from plugin)
                                                  ./build/obj/chthreads.o (symbol from plugin)
chSchIsPreemptionRequired                         ./build/obj/chschd.o (symbol from plugin)
                                                  ./build/obj/chcore_v7m.o (symbol from plugin)
chSchReadyAheadI                                  ./build/obj/chschd.o (symbol from plugin)
chSchReadyI                                       ./build/obj/chschd.o (symbol from plugin)
                                                  ./build/obj/chmsg.o (symbol from plugin)
                                                  ./build/obj/chevents.o (symbol from plugin)
                                                  ./build/obj/chcond.o (symbol from plugin)
                                                  ./build/obj/chmtx.o (symbol from plugin)
                                                  ./build/obj/chsem.o (symbol from plugin)
                                                  ./build/obj/chthreads.o (symbol from plugin)
chSchRescheduleS                                  ./build/obj/chschd.o (symbol from plugin)
                                                  ./build/obj/rt_test_sequence_006.o (symbol from plugin)
                                                  ./build/obj/rt_test_sequence_005.o (symbol from plugin)
                                                  ./build/obj/rt_test_sequence_004.o (symbol from plugin)
                                                  ./build/obj/chpipes.o (symbol from plugin)
                                                  ./build/obj/chmempools.o (symbol from plugin)
                                                  ./build/obj/chmboxes.o (symbol from plugin)
                                                  ./build/obj/chevents.o (symbol from plugin)
                                                  ./build/obj/chcond.o (symbol from plugin)
                                                  ./build/obj/chmtx.o (symbol from plugin)
                                                  ./build/obj/chsem.o (symbol from plugin)
                                                  ./build/obj/chthreads.o (symbol from plugin)
                                                  ./build/obj/chsys.o (symbol from plugin)
                                                  ./build/obj/hal_serial.o (symbol from plugin)
chSchWakeupS                                      ./build/obj/chschd.o (symbol from plugin)
                                                  ./build/obj/rt_test_sequence_010.o (symbol from plugin)
                                                  ./build/obj/chdynamic.o (symbol from plugin)
                                                  ./build/obj/chmsg.o (symbol from plugin)
                                                  ./build/obj/chcond.o (symbol from plugin)
                                                  ./build/obj/chsem.o (symbol from plugin)
                                                  ./build/obj/chthreads.o (symbol from plugin)
chSemAddCounterI                                  ./build/obj/chsem.o (symbol from plugin)
                                                  ./build/obj/rt_test_sequence_005.o (symbol from plugin)
chSemObjectInit                                   ./build/obj/chsem.o (symbol from plugin)
                                                  ./build/obj/rt_test_sequence_010.o (symbol from plugin)
                                                  ./build/obj/rt_test_sequence_005.o (symbol from plugin)
                                                  ./build/obj/chfactory.o (symbol from plugin)
                                                  ./build/obj/chmempools.o (symbol from plugin)
chSemReset                                        ./build/obj/chsem.o (symbol from plugin)
                                                  ./build/obj/rt_test_sequence_010.o (symbol from plugin)
                                                  ./build/obj/rt_test_sequence_005.o (symbol from plugin)
chSemResetI                                       ./build/obj/chsem.o (symbol from plugin)
chSemSignal                                       ./build/obj/chsem.o (symbol from plugin)
                                                  ./build/obj/rt_test_sequence_010.o (symbol from plugin)
                                                  ./build/obj/rt_test_sequence_005.o (symbol from plugin)
chSemSignalI                                      ./build/obj/chsem.o (symbol from plugin)
                                                  ./build/obj/rt_test_sequence_005.o (symbol from plugin)
                                                  ./build/obj/chmempools.o (symbol from plugin)
chSemSignalWait                                   ./build/obj/chsem.o (symbol from plugin)
                                                  ./build/obj/rt_test_sequence_005.o (symbol from plugin)
chSemWait                                         ./build/obj/chsem.o (symbol from plugin)
                                                  ./build/obj/rt_test_sequence_010.o (symbol from plugin)
                                                  ./build/obj/rt_test_sequence_005.o (symbol from plugin)
chSemWaitS                                        ./build/obj/chsem.o (symbol from plugin)
chSemWaitTimeout                                  ./build/obj/chsem.o (symbol from plugin)
                                                  ./build/obj/rt_test_sequence_005.o (symbol from plugin)
chSemWaitTimeoutS                                 ./build/obj/chsem.o (symbol from plugin)
                                                  ./build/obj/chmempools.o (symbol from plugin)
chSysGetStatusAndLockX                            ./build/obj/chsys.o (symbol from plugin)
                                                  ./build/obj/rt_test_sequence_002.o (symbol from plugin)
chSysHalt                                         ./build/obj/chsys.o (symbol from plugin)
                                                  ./build/obj/main.o (symbol from plugin)
                                                  ./build/obj/syscalls_cpp.o (symbol from plugin)
                                                  ./build/obj/oslib_test_sequence_001.o (symbol from plugin)
                                                  ./build/obj/rt_test_sequence_010.o (symbol from plugin)
                                                  ./build/obj/rt_test_sequence_008.o (symbol from plugin)
                                                  ./build/obj/rt_test_sequence_007.o (symbol from plugin)
                                                  ./build/obj/rt_test_sequence_006.o (symbol from plugin)
                                                  ./build/obj/rt_test_sequence_005.o (symbol from plugin)
                                                  ./build/obj/rt_test_sequence_004.o (symbol from plugin)
                                                  ./build/obj/rt_test_sequence_003.o (symbol from plugin)
                                                  ./build/obj/rt_test_sequence_002.o (symbol from plugin)
                                                  ./build/obj/rt_test_root.o (symbol from plugin)
                                                  ./build/obj/ch_test.o (symbol from plugin)
                                                  ./build/obj/chfactory.o (symbol from plugin)
                                                  ./build/obj/chpipes.o (symbol from plugin)
                                                  ./build/obj/chmempools.o (symbol from plugin)
                                                  ./build/obj/chmemheaps.o (symbol from plugin)
                                                  ./build/obj/chmemcore.o (symbol from plugin)
                                                  ./build/obj/chmboxes.o (symbol from plugin)
                                                  ./build/obj/chdynamic.o (symbol from plugin)
                                                  ./build/obj/chmsg.o (symbol from plugin)
                                                  ./build/obj/chevents.o (symbol from plugin)
                                                  ./build/obj/chcond.o (symbol from plugin)
                                                  ./build/obj/chmtx.o (symbol from plugin)
                                                  ./build/obj/chsem.o (symbol from plugin)
                                                  ./build/obj/chregistry.o (symbol from plugin)
                                                  ./build/obj/chthreads.o (symbol from plugin)
                                                  ./build/obj/chschd.o (symbol from plugin)
                                                  ./build/obj/chvt.o (symbol from plugin)
                                                  ./build/obj/hal_gpt_lld.o (symbol from plugin)
                                                  ./build/obj/hal_pal_lld.o (symbol from plugin)
                                                  ./build/obj/hal_serial.o (symbol from plugin)
                                                  ./build/obj/hal_gpt.o (symbol from plugin)
                                                  ./build/obj/hal_queues.o (symbol from plugin)
                                                  ./build/obj/hal_buffers.o (symbol from plugin)
                                                  ./build/obj/hal_st.o (symbol from plugin)
chSysInit                                         ./build/obj/chsys.o (symbol from plugin)
                                                  ./build/obj/main.o (symbol from plugin)
chSysIntegrityCheckI                              ./build/obj/chsys.o (symbol from plugin)
                                                  ./build/obj/rt_test_sequence_002.o (symbol from plugin)
chSysIsCounterWithinX                             ./build/obj/chsys.o (symbol from plugin)
chSysPolledDelayX                                 ./build/obj/chsys.o (symbol from plugin)
chSysRestoreStatusX                               ./build/obj/chsys.o (symbol from plugin)
                                                  ./build/obj/rt_test_sequence_002.o (symbol from plugin)
chSysTimerHandlerI                                ./build/obj/chsys.o (symbol from plugin)
                                                  ./build/obj/hal_st_lld.o (symbol from plugin)
chTMChainMeasurementToX                           ./build/obj/chtm.o (symbol from plugin)
chTMObjectInit                                    ./build/obj/chtm.o (symbol from plugin)
chTMStartMeasurementX                             ./build/obj/chtm.o (symbol from plugin)
chTMStopMeasurementX                              ./build/obj/chtm.o (symbol from plugin)
chThdAddRef                                       ./build/obj/chthreads.o (symbol from plugin)
chThdCreate                                       ./build/obj/chthreads.o (symbol from plugin)
                                                  ./build/obj/chsys.o (symbol from plugin)
chThdCreateFromHeap                               ./build/obj/chdynamic.o (symbol from plugin)
                                                  ./build/obj/rt_test_sequence_009.o (symbol from plugin)
chThdCreateFromMemoryPool                         ./build/obj/chdynamic.o (symbol from plugin)
                                                  ./build/obj/rt_test_sequence_009.o (symbol from plugin)
chThdCreateI                                      ./build/obj/chthreads.o (symbol from plugin)
chThdCreateStatic                                 ./build/obj/chthreads.o (symbol from plugin)
                                                  ./build/obj/rt_test_sequence_010.o (symbol from plugin)
                                                  ./build/obj/rt_test_sequence_008.o (symbol from plugin)
                                                  ./build/obj/rt_test_sequence_007.o (symbol from plugin)
                                                  ./build/obj/rt_test_sequence_006.o (symbol from plugin)
                                                  ./build/obj/rt_test_sequence_005.o (symbol from plugin)
                                                  ./build/obj/rt_test_sequence_004.o (symbol from plugin)
                                                  ./build/obj/rt_test_sequence_003.o (symbol from plugin)
chThdCreateSuspended                              ./build/obj/chthreads.o (symbol from plugin)
chThdCreateSuspendedI                             ./build/obj/chthreads.o (symbol from plugin)
                                                  ./build/obj/chdynamic.o (symbol from plugin)
chThdDequeueAllI                                  ./build/obj/chthreads.o (symbol from plugin)
                                                  ./build/obj/chmboxes.o (symbol from plugin)
                                                  ./build/obj/hal_queues.o (symbol from plugin)
                                                  ./build/obj/hal_buffers.o (symbol from plugin)
chThdDequeueNextI                                 ./build/obj/chthreads.o (symbol from plugin)
                                                  ./build/obj/chmboxes.o (symbol from plugin)
                                                  ./build/obj/hal_queues.o (symbol from plugin)
                                                  ./build/obj/hal_buffers.o (symbol from plugin)
chThdEnqueueTimeoutS                              ./build/obj/chthreads.o (symbol from plugin)
                                                  ./build/obj/chmboxes.o (symbol from plugin)
                                                  ./build/obj/hal_queues.o (symbol from plugin)
                                                  ./build/obj/hal_buffers.o (symbol from plugin)
chThdExit                                         /tmp/ccxSiIU7.ltrans0.ltrans.o
                                                  ./build/obj/chthreads.o (symbol from plugin)
                                                  ./build/obj/rt_test_sequence_010.o (symbol from plugin)
                                                  ./build/obj/chcoreasm_v7m.o
chThdExitS                                        ./build/obj/chthreads.o (symbol from plugin)
chThdRelease                                      ./build/obj/chthreads.o (symbol from plugin)
                                                  ./build/obj/rt_test_sequence_010.o (symbol from plugin)
                                                  ./build/obj/chregistry.o (symbol from plugin)
chThdResume                                       ./build/obj/chthreads.o (symbol from plugin)
                                                  ./build/obj/chpipes.o (symbol from plugin)
chThdResumeI                                      ./build/obj/chthreads.o (symbol from plugin)
                                                  ./build/obj/rt_test_sequence_004.o (symbol from plugin)
                                                  ./build/obj/chpipes.o (symbol from plugin)
chThdResumeS                                      ./build/obj/chthreads.o (symbol from plugin)
chThdSetPriority                                  ./build/obj/chthreads.o (symbol from plugin)
                                                  ./build/obj/rt_test_sequence_003.o (symbol from plugin)
chThdSleep                                        ./build/obj/chthreads.o (symbol from plugin)
                                                  ./build/obj/main.o (symbol from plugin)
                                                  ./build/obj/rt_test_sequence_010.o (symbol from plugin)
                                                  ./build/obj/rt_test_sequence_008.o (symbol from plugin)
                                                  ./build/obj/rt_test_sequence_006.o (symbol from plugin)
                                                  ./build/obj/rt_test_sequence_005.o (symbol from plugin)
                                                  ./build/obj/rt_test_sequence_003.o (symbol from plugin)
                                                  ./build/obj/rt_test_sequence_002.o (symbol from plugin)
                                                  ./build/obj/rt_test_root.o (symbol from plugin)
                                                  ./build/obj/ch_test.o (symbol from plugin)
chThdSleepUntil                                   ./build/obj/chthreads.o (symbol from plugin)
                                                  ./build/obj/rt_test_sequence_003.o (symbol from plugin)
chThdSleepUntilWindowed                           ./build/obj/chthreads.o (symbol from plugin)
chThdStart                                        ./build/obj/chthreads.o (symbol from plugin)
chThdSuspendS                                     ./build/obj/chthreads.o (symbol from plugin)
chThdSuspendTimeoutS                              ./build/obj/chthreads.o (symbol from plugin)
                                                  ./build/obj/rt_test_sequence_004.o (symbol from plugin)
                                                  ./build/obj/chpipes.o (symbol from plugin)
chThdTerminate                                    ./build/obj/chthreads.o (symbol from plugin)
                                                  ./build/obj/rt_test_root.o (symbol from plugin)
chThdWait                                         ./build/obj/chthreads.o (symbol from plugin)
                                                  ./build/obj/rt_test_sequence_010.o (symbol from plugin)
                                                  ./build/obj/rt_test_root.o (symbol from plugin)
chThdYield                                        ./build/obj/chthreads.o (symbol from plugin)
                                                  ./build/obj/rt_test_sequence_010.o (symbol from plugin)
chVTDoResetI                                      ./build/obj/chvt.o (symbol from plugin)
                                                  ./build/obj/rt_test_sequence_010.o (symbol from plugin)
                                                  ./build/obj/rt_test_sequence_002.o (symbol from plugin)
                                                  ./build/obj/chschd.o (symbol from plugin)
chVTDoSetI                                        ./build/obj/chvt.o (symbol from plugin)
                                                  ./build/obj/rt_test_sequence_010.o (symbol from plugin)
                                                  ./build/obj/rt_test_sequence_002.o (symbol from plugin)
                                                  ./build/obj/chschd.o (symbol from plugin)
ch_debug                                          ./build/obj/chregistry.o (symbol from plugin)
                                                  ./build/obj/chsys.o (symbol from plugin)
ch_factory                                        ./build/obj/chfactory.o (symbol from plugin)
ch_idle_thread_wa                                 ./build/obj/chsys.o (symbol from plugin)
ch_memcore                                        ./build/obj/chmemcore.o (symbol from plugin)
ch_test.c.61f4b904                                /tmp/ccbVf9uwdebugobj
chcond.c.a742d1a6                                 /tmp/ccbVf9uwdebugobj
chcore.c.74646522                                 /tmp/ccbVf9uwdebugobj
chcore_v7m.c.92639d2f                             /tmp/ccbVf9uwdebugobj
                                                  /tmp/ccxSiIU7.ltrans0.ltrans.o
chdebug.c.ab8c4cbf                                /tmp/ccbVf9uwdebugobj
chdynamic.c.667f2294                              /tmp/ccbVf9uwdebugobj
                                                  /tmp/ccxSiIU7.ltrans0.ltrans.o
chevents.c.dd019461                               /tmp/ccbVf9uwdebugobj
                                                  /tmp/ccxSiIU7.ltrans0.ltrans.o
chfactory.c.a8ceef44                              /tmp/ccbVf9uwdebugobj
                                                  /tmp/ccxSiIU7.ltrans0.ltrans.o
chibios_rt::System::getIdleThreadX()              ./build/obj/ch.o (symbol from plugin)
chibios_rt::_thd_start(void*)                     ./build/obj/ch.o (symbol from plugin)
chmboxes.c.1aad3c99                               /tmp/ccbVf9uwdebugobj
chmemcore.c.1925e5a9                              /tmp/ccbVf9uwdebugobj
                                                  /tmp/ccxSiIU7.ltrans0.ltrans.o
chmemheaps.c.d169e57a                             /tmp/ccbVf9uwdebugobj
                                                  /tmp/ccxSiIU7.ltrans0.ltrans.o
chmempools.c.1e35991f                             /tmp/ccbVf9uwdebugobj
                                                  /tmp/ccxSiIU7.ltrans0.ltrans.o
chmsg.c.fe806dc7                                  /tmp/ccbVf9uwdebugobj
chmtx.c.da90a4c5                                  /tmp/ccbVf9uwdebugobj
                                                  /tmp/ccxSiIU7.ltrans0.ltrans.o
chpipes.c.26c2740e                                /tmp/ccbVf9uwdebugobj
chprintf                                          ./build/obj/chprintf.o (symbol from plugin)
                                                  ./build/obj/main.o (symbol from plugin)
chprintf.c.569bf615                               /tmp/ccbVf9uwdebugobj
                                                  /tmp/ccxSiIU7.ltrans0.ltrans.o
chregistry.c.2a4b3523                             /tmp/ccbVf9uwdebugobj
                                                  /tmp/ccxSiIU7.ltrans0.ltrans.o
chschd.c.53b58b18                                 /tmp/ccbVf9uwdebugobj
                                                  /tmp/ccxSiIU7.ltrans0.ltrans.o
chsem.c.e7fd9219                                  /tmp/ccbVf9uwdebugobj
chsnprintf                                        ./build/obj/chprintf.o (symbol from plugin)
chsys.c.0b79c4a1                                  /tmp/ccbVf9uwdebugobj
                                                  /tmp/ccxSiIU7.ltrans0.ltrans.o
chthreads.c.0aa44255                              /tmp/ccbVf9uwdebugobj
                                                  /tmp/ccxSiIU7.ltrans0.ltrans.o
chtm.c.7fc42934                                   /tmp/ccbVf9uwdebugobj
                                                  /tmp/ccxSiIU7.ltrans0.ltrans.o
chtrace.c.2c512586                                /tmp/ccbVf9uwdebugobj
chvprintf                                         ./build/obj/chprintf.o (symbol from plugin)
chvsnprintf                                       ./build/obj/chprintf.o (symbol from plugin)
chvt.c.0a2150f6                                   /tmp/ccbVf9uwdebugobj
                                                  /tmp/ccxSiIU7.ltrans0.ltrans.o
cleanup_glue                                      /home/antodom/installations/ChibiStudio/tools/GNU Tools ARM Embedded/8.3.1 2019q3/bin/../lib/gcc/arm-none-eabi/8.3.1/../../../../arm-none-eabi/lib/thumb/v7e-m/nofp/libg.a(lib_a-reent.o)
crt1.c.c867b50c                                   /tmp/ccbVf9uwdebugobj
                                                  /tmp/ccxSiIU7.ltrans0.ltrans.o
errno                                             /home/antodom/installations/ChibiStudio/tools/GNU Tools ARM Embedded/8.3.1 2019q3/bin/../lib/gcc/arm-none-eabi/8.3.1/../../../../arm-none-eabi/lib/thumb/v7e-m/nofp/libg.a(lib_a-reent.o)
                                                  /tmp/ccxSiIU7.ltrans0.ltrans.o
                                                  /home/antodom/installations/ChibiStudio/tools/GNU Tools ARM Embedded/8.3.1 2019q3/bin/../lib/gcc/arm-none-eabi/8.3.1/../../../../arm-none-eabi/lib/thumb/v7e-m/nofp/libg.a(lib_a-signalr.o)
                                                  ./build/obj/syscalls_cpp.o (symbol from plugin)
fclose                                            /home/antodom/installations/ChibiStudio/tools/GNU Tools ARM Embedded/8.3.1 2019q3/bin/../lib/gcc/arm-none-eabi/8.3.1/../../../../arm-none-eabi/lib/thumb/v7e-m/nofp/libg.a(lib_a-fclose.o)
fflush                                            /home/antodom/installations/ChibiStudio/tools/GNU Tools ARM Embedded/8.3.1 2019q3/bin/../lib/gcc/arm-none-eabi/8.3.1/../../../../arm-none-eabi/lib/thumb/v7e-m/nofp/libg.a(lib_a-fflush.o)
fputc                                             /home/antodom/installations/ChibiStudio/tools/GNU Tools ARM Embedded/8.3.1 2019q3/bin/../lib/gcc/arm-none-eabi/8.3.1/../../../../arm-none-eabi/lib/thumb/v7e-m/nofp/libg.a(lib_a-fputc.o)
                                                  /home/antodom/installations/ChibiStudio/tools/GNU Tools ARM Embedded/8.3.1 2019q3/bin/../lib/gcc/arm-none-eabi/8.3.1/../../../../arm-none-eabi/lib/thumb/v7e-m/nofp/libstdc++.a(vterminate.o)
fputs                                             /home/antodom/installations/ChibiStudio/tools/GNU Tools ARM Embedded/8.3.1 2019q3/bin/../lib/gcc/arm-none-eabi/8.3.1/../../../../arm-none-eabi/lib/thumb/v7e-m/nofp/libg.a(lib_a-fputs.o)
                                                  /home/antodom/installations/ChibiStudio/tools/GNU Tools ARM Embedded/8.3.1 2019q3/bin/../lib/gcc/arm-none-eabi/8.3.1/../../../../arm-none-eabi/lib/thumb/v7e-m/nofp/libstdc++.a(vterminate.o)
free                                              /home/antodom/installations/ChibiStudio/tools/GNU Tools ARM Embedded/8.3.1 2019q3/bin/../lib/gcc/arm-none-eabi/8.3.1/../../../../arm-none-eabi/lib/thumb/v7e-m/nofp/libg.a(lib_a-malloc.o)
                                                  /home/antodom/installations/ChibiStudio/tools/GNU Tools ARM Embedded/8.3.1 2019q3/bin/../lib/gcc/arm-none-eabi/8.3.1/../../../../arm-none-eabi/lib/thumb/v7e-m/nofp/libstdc++.a(del_op.o)
                                                  /home/antodom/installations/ChibiStudio/tools/GNU Tools ARM Embedded/8.3.1 2019q3/bin/../lib/gcc/arm-none-eabi/8.3.1/../../../../arm-none-eabi/lib/thumb/v7e-m/nofp/libstdc++.a(cp-demangle.o)
                                                  /home/antodom/installations/ChibiStudio/tools/GNU Tools ARM Embedded/8.3.1 2019q3/bin/../lib/gcc/arm-none-eabi/8.3.1/../../../../arm-none-eabi/lib/thumb/v7e-m/nofp/libstdc++.a(vterminate.o)
                                                  /home/antodom/installations/ChibiStudio/tools/GNU Tools ARM Embedded/8.3.1 2019q3/bin/../lib/gcc/arm-none-eabi/8.3.1/../../../../arm-none-eabi/lib/thumb/v7e-m/nofp/libstdc++.a(eh_alloc.o)
frexp                                             /home/antodom/installations/ChibiStudio/tools/GNU Tools ARM Embedded/8.3.1 2019q3/bin/../lib/gcc/arm-none-eabi/8.3.1/../../../../arm-none-eabi/lib/thumb/v7e-m/nofp/libg.a(lib_a-s_frexp.o)
                                                  /home/antodom/installations/ChibiStudio/tools/GNU Tools ARM Embedded/8.3.1 2019q3/bin/../lib/gcc/arm-none-eabi/8.3.1/../../../../arm-none-eabi/lib/thumb/v7e-m/nofp/libg.a(lib_a-svfprintf.o)
fwrite                                            /home/antodom/installations/ChibiStudio/tools/GNU Tools ARM Embedded/8.3.1 2019q3/bin/../lib/gcc/arm-none-eabi/8.3.1/../../../../arm-none-eabi/lib/thumb/v7e-m/nofp/libg.a(lib_a-fwrite.o)
                                                  /home/antodom/installations/ChibiStudio/tools/GNU Tools ARM Embedded/8.3.1 2019q3/bin/../lib/gcc/arm-none-eabi/8.3.1/../../../../arm-none-eabi/lib/thumb/v7e-m/nofp/libstdc++.a(vterminate.o)
gnu_lto_v1                                        /tmp/ccbVf9uwdebugobj
gptChangeInterval                                 ./build/obj/hal_gpt.o (symbol from plugin)
gptInit                                           ./build/obj/hal_gpt.o (symbol from plugin)
                                                  ./build/obj/hal.o (symbol from plugin)
gptObjectInit                                     ./build/obj/hal_gpt.o (symbol from plugin)
                                                  ./build/obj/hal_gpt_lld.o (symbol from plugin)
gptPolledDelay                                    ./build/obj/hal_gpt.o (symbol from plugin)
gptStart                                          ./build/obj/hal_gpt.o (symbol from plugin)
                                                  ./build/obj/main.o (symbol from plugin)
gptStartContinuous                                ./build/obj/hal_gpt.o (symbol from plugin)
                                                  ./build/obj/main.o (symbol from plugin)
gptStartContinuousI                               ./build/obj/hal_gpt.o (symbol from plugin)
                                                  ./build/obj/main.o (symbol from plugin)
gptStartOneShot                                   ./build/obj/hal_gpt.o (symbol from plugin)
gptStartOneShotI                                  ./build/obj/hal_gpt.o (symbol from plugin)
gptStop                                           ./build/obj/hal_gpt.o (symbol from plugin)
                                                  ./build/obj/main.o (symbol from plugin)
gptStopTimer                                      ./build/obj/hal_gpt.o (symbol from plugin)
                                                  ./build/obj/main.o (symbol from plugin)
gptStopTimerI                                     ./build/obj/hal_gpt.o (symbol from plugin)
                                                  ./build/obj/main.o (symbol from plugin)
gpt_lld_init                                      ./build/obj/hal_gpt_lld.o (symbol from plugin)
                                                  ./build/obj/hal_gpt.o (symbol from plugin)
gpt_lld_polled_delay                              ./build/obj/hal_gpt_lld.o (symbol from plugin)
                                                  ./build/obj/hal_gpt.o (symbol from plugin)
gpt_lld_serve_interrupt                           ./build/obj/hal_gpt_lld.o (symbol from plugin)
                                                  ./build/obj/stm32_isr.o (symbol from plugin)
gpt_lld_start                                     ./build/obj/hal_gpt_lld.o (symbol from plugin)
                                                  ./build/obj/hal_gpt.o (symbol from plugin)
gpt_lld_start_timer                               ./build/obj/hal_gpt_lld.o (symbol from plugin)
                                                  ./build/obj/hal_gpt.o (symbol from plugin)
gpt_lld_stop                                      ./build/obj/hal_gpt_lld.o (symbol from plugin)
                                                  ./build/obj/hal_gpt.o (symbol from plugin)
gpt_lld_stop_timer                                ./build/obj/hal_gpt_lld.o (symbol from plugin)
                                                  ./build/obj/hal_gpt.o (symbol from plugin)
guard variable for soft_uart::chibios::uart<&GPTD1, 256u, 256u>::_ctx_ ./build/obj/main.o (symbol from plugin)
guard variable for soft_uart::chibios::uart<&GPTD3, 256u, 256u>::_ctx_ ./build/obj/main.o (symbol from plugin)
hal.c.88a682c5                                    /tmp/ccbVf9uwdebugobj
                                                  /tmp/ccxSiIU7.ltrans0.ltrans.o
halInit                                           ./build/obj/hal.o (symbol from plugin)
                                                  ./build/obj/main.o (symbol from plugin)
hal_buffers.c.bd4c0213                            /tmp/ccbVf9uwdebugobj
                                                  /tmp/ccxSiIU7.ltrans0.ltrans.o
hal_gpt.c.0b6a672f                                /tmp/ccbVf9uwdebugobj
                                                  /tmp/ccxSiIU7.ltrans0.ltrans.o
hal_gpt_lld.c.0ec2cc32                            /tmp/ccbVf9uwdebugobj
                                                  /tmp/ccxSiIU7.ltrans0.ltrans.o
hal_lld.c.25408c3d                                /tmp/ccbVf9uwdebugobj
                                                  /tmp/ccxSiIU7.ltrans0.ltrans.o
hal_lld_init                                      ./build/obj/hal_lld.o (symbol from plugin)
                                                  ./build/obj/hal.o (symbol from plugin)
hal_mmcsd.c.5a31e386                              /tmp/ccbVf9uwdebugobj
hal_pal.c.8b25bc98                                /tmp/ccbVf9uwdebugobj
                                                  /tmp/ccxSiIU7.ltrans0.ltrans.o
hal_pal_lld.c.1c92a151                            /tmp/ccbVf9uwdebugobj
                                                  /tmp/ccxSiIU7.ltrans0.ltrans.o
hal_queues.c.129f1295                             /tmp/ccbVf9uwdebugobj
                                                  /tmp/ccxSiIU7.ltrans0.ltrans.o
hal_serial.c.78c469ef                             /tmp/ccbVf9uwdebugobj
                                                  /tmp/ccxSiIU7.ltrans0.ltrans.o
hal_serial_lld.c.e47c8b6c                         /tmp/ccbVf9uwdebugobj
                                                  /tmp/ccxSiIU7.ltrans0.ltrans.o
hal_st.c.8d064532                                 /tmp/ccbVf9uwdebugobj
                                                  /tmp/ccxSiIU7.ltrans0.ltrans.o
hal_st_lld.c.b0a3bb7e                             /tmp/ccbVf9uwdebugobj
                                                  /tmp/ccxSiIU7.ltrans0.ltrans.o
ibqGetEmptyBufferI                                ./build/obj/hal_buffers.o (symbol from plugin)
ibqGetFullBufferTimeout                           ./build/obj/hal_buffers.o (symbol from plugin)
ibqGetFullBufferTimeoutS                          ./build/obj/hal_buffers.o (symbol from plugin)
ibqGetTimeout                                     ./build/obj/hal_buffers.o (symbol from plugin)
ibqObjectInit                                     ./build/obj/hal_buffers.o (symbol from plugin)
ibqPostFullBufferI                                ./build/obj/hal_buffers.o (symbol from plugin)
ibqReadTimeout                                    ./build/obj/hal_buffers.o (symbol from plugin)
ibqReleaseEmptyBuffer                             ./build/obj/hal_buffers.o (symbol from plugin)
ibqReleaseEmptyBufferS                            ./build/obj/hal_buffers.o (symbol from plugin)
ibqResetI                                         ./build/obj/hal_buffers.o (symbol from plugin)
iqGetI                                            ./build/obj/hal_queues.o (symbol from plugin)
iqGetTimeout                                      ./build/obj/hal_queues.o (symbol from plugin)
                                                  ./build/obj/hal_serial.o (symbol from plugin)
iqObjectInit                                      ./build/obj/hal_queues.o (symbol from plugin)
                                                  ./build/obj/hal_serial_lld.o (symbol from plugin)
iqPutI                                            ./build/obj/hal_queues.o (symbol from plugin)
                                                  ./build/obj/hal_serial.o (symbol from plugin)
iqReadI                                           ./build/obj/hal_queues.o (symbol from plugin)
iqReadTimeout                                     ./build/obj/hal_queues.o (symbol from plugin)
                                                  ./build/obj/hal_serial.o (symbol from plugin)
iqResetI                                          ./build/obj/hal_queues.o (symbol from plugin)
                                                  ./build/obj/hal_serial.o (symbol from plugin)
irqDeinit                                         ./build/obj/stm32_isr.o (symbol from plugin)
irqInit                                           ./build/obj/stm32_isr.o (symbol from plugin)
                                                  ./build/obj/hal_lld.o (symbol from plugin)
localeconv                                        /home/antodom/installations/ChibiStudio/tools/GNU Tools ARM Embedded/8.3.1 2019q3/bin/../lib/gcc/arm-none-eabi/8.3.1/../../../../arm-none-eabi/lib/thumb/v7e-m/nofp/libg.a(lib_a-localeconv.o)
main                                              /tmp/ccxSiIU7.ltrans0.ltrans.o
                                                  ./build/obj/main.o (symbol from plugin)
                                                  ./build/obj/crt0_v7m.o
main.cpp.b10c2b94                                 /tmp/ccbVf9uwdebugobj
                                                  /tmp/ccxSiIU7.ltrans0.ltrans.o
malloc                                            /home/antodom/installations/ChibiStudio/tools/GNU Tools ARM Embedded/8.3.1 2019q3/bin/../lib/gcc/arm-none-eabi/8.3.1/../../../../arm-none-eabi/lib/thumb/v7e-m/nofp/libg.a(lib_a-malloc.o)
                                                  /home/antodom/installations/ChibiStudio/tools/GNU Tools ARM Embedded/8.3.1 2019q3/bin/../lib/gcc/arm-none-eabi/8.3.1/../../../../arm-none-eabi/lib/thumb/v7e-m/nofp/libstdc++.a(eh_alloc.o)
memchr                                            /home/antodom/installations/ChibiStudio/tools/GNU Tools ARM Embedded/8.3.1 2019q3/bin/../lib/gcc/arm-none-eabi/8.3.1/../../../../arm-none-eabi/lib/thumb/v7e-m/nofp/libg.a(lib_a-memchr.o)
                                                  /home/antodom/installations/ChibiStudio/tools/GNU Tools ARM Embedded/8.3.1 2019q3/bin/../lib/gcc/arm-none-eabi/8.3.1/../../../../arm-none-eabi/lib/thumb/v7e-m/nofp/libg.a(lib_a-svfiprintf.o)
                                                  /home/antodom/installations/ChibiStudio/tools/GNU Tools ARM Embedded/8.3.1 2019q3/bin/../lib/gcc/arm-none-eabi/8.3.1/../../../../arm-none-eabi/lib/thumb/v7e-m/nofp/libg.a(lib_a-svfprintf.o)
                                                  /home/antodom/installations/ChibiStudio/tools/GNU Tools ARM Embedded/8.3.1 2019q3/bin/../lib/gcc/arm-none-eabi/8.3.1/../../../../arm-none-eabi/lib/thumb/v7e-m/nofp/libg.a(lib_a-fvwrite.o)
memcmp                                            /home/antodom/installations/ChibiStudio/tools/GNU Tools ARM Embedded/8.3.1 2019q3/bin/../lib/gcc/arm-none-eabi/8.3.1/../../../../arm-none-eabi/lib/thumb/v7e-m/nofp/libg.a(lib_a-memcmp.o)
                                                  /home/antodom/installations/ChibiStudio/tools/GNU Tools ARM Embedded/8.3.1 2019q3/bin/../lib/gcc/arm-none-eabi/8.3.1/../../../../arm-none-eabi/lib/thumb/v7e-m/nofp/libstdc++.a(cp-demangle.o)
memcpy                                            /home/antodom/installations/ChibiStudio/tools/GNU Tools ARM Embedded/8.3.1 2019q3/bin/../lib/gcc/arm-none-eabi/8.3.1/../../../../arm-none-eabi/lib/thumb/v7e-m/nofp/libg.a(lib_a-memcpy.o)
                                                  /tmp/ccxSiIU7.ltrans0.ltrans.o
                                                  /home/antodom/installations/ChibiStudio/tools/GNU Tools ARM Embedded/8.3.1 2019q3/bin/../lib/gcc/arm-none-eabi/8.3.1/../../../../arm-none-eabi/lib/thumb/v7e-m/nofp/libg.a(lib_a-svfiprintf.o)
                                                  /home/antodom/installations/ChibiStudio/tools/GNU Tools ARM Embedded/8.3.1 2019q3/bin/../lib/gcc/arm-none-eabi/8.3.1/../../../../arm-none-eabi/lib/thumb/v7e-m/nofp/libg.a(lib_a-mprec.o)
                                                  /home/antodom/installations/ChibiStudio/tools/GNU Tools ARM Embedded/8.3.1 2019q3/bin/../lib/gcc/arm-none-eabi/8.3.1/../../../../arm-none-eabi/lib/thumb/v7e-m/nofp/libg.a(lib_a-dtoa.o)
                                                  /home/antodom/installations/ChibiStudio/tools/GNU Tools ARM Embedded/8.3.1 2019q3/bin/../lib/gcc/arm-none-eabi/8.3.1/../../../../arm-none-eabi/lib/thumb/v7e-m/nofp/libg.a(lib_a-fvwrite.o)
                                                  /home/antodom/installations/ChibiStudio/tools/GNU Tools ARM Embedded/8.3.1 2019q3/bin/../lib/gcc/arm-none-eabi/8.3.1/thumb/v7e-m/nofp/libgcc.a(unwind-arm.o)
                                                  /home/antodom/installations/ChibiStudio/tools/GNU Tools ARM Embedded/8.3.1 2019q3/bin/../lib/gcc/arm-none-eabi/8.3.1/../../../../arm-none-eabi/lib/thumb/v7e-m/nofp/libstdc++.a(cp-demangle.o)
memmove                                           /home/antodom/installations/ChibiStudio/tools/GNU Tools ARM Embedded/8.3.1 2019q3/bin/../lib/gcc/arm-none-eabi/8.3.1/../../../../arm-none-eabi/lib/thumb/v7e-m/nofp/libg.a(lib_a-memmove.o)
                                                  /home/antodom/installations/ChibiStudio/tools/GNU Tools ARM Embedded/8.3.1 2019q3/bin/../lib/gcc/arm-none-eabi/8.3.1/../../../../arm-none-eabi/lib/thumb/v7e-m/nofp/libg.a(lib_a-svfiprintf.o)
                                                  /home/antodom/installations/ChibiStudio/tools/GNU Tools ARM Embedded/8.3.1 2019q3/bin/../lib/gcc/arm-none-eabi/8.3.1/../../../../arm-none-eabi/lib/thumb/v7e-m/nofp/libg.a(lib_a-reallocr.o)
                                                  /home/antodom/installations/ChibiStudio/tools/GNU Tools ARM Embedded/8.3.1 2019q3/bin/../lib/gcc/arm-none-eabi/8.3.1/../../../../arm-none-eabi/lib/thumb/v7e-m/nofp/libg.a(lib_a-fvwrite.o)
memset                                            /home/antodom/installations/ChibiStudio/tools/GNU Tools ARM Embedded/8.3.1 2019q3/bin/../lib/gcc/arm-none-eabi/8.3.1/../../../../arm-none-eabi/lib/thumb/v7e-m/nofp/libg.a(lib_a-memset.o)
                                                  /tmp/ccxSiIU7.ltrans0.ltrans.o
                                                  /home/antodom/installations/ChibiStudio/tools/GNU Tools ARM Embedded/8.3.1 2019q3/bin/../lib/gcc/arm-none-eabi/8.3.1/../../../../arm-none-eabi/lib/thumb/v7e-m/nofp/libg.a(lib_a-callocr.o)
                                                  /home/antodom/installations/ChibiStudio/tools/GNU Tools ARM Embedded/8.3.1 2019q3/bin/../lib/gcc/arm-none-eabi/8.3.1/../../../../arm-none-eabi/lib/thumb/v7e-m/nofp/libg.a(lib_a-findfp.o)
                                                  /home/antodom/installations/ChibiStudio/tools/GNU Tools ARM Embedded/8.3.1 2019q3/bin/../lib/gcc/arm-none-eabi/8.3.1/../../../../arm-none-eabi/lib/thumb/v7e-m/nofp/libstdc++.a(eh_alloc.o)
memstreams.c.b6b11b91                             /tmp/ccbVf9uwdebugobj
msObjectInit                                      ./build/obj/memstreams.o (symbol from plugin)
                                                  ./build/obj/chprintf.o (symbol from plugin)
my_soft_uart_1                                    ./build/obj/main.o (symbol from plugin)
my_soft_uart_2                                    ./build/obj/main.o (symbol from plugin)
nullObjectInit                                    ./build/obj/nullstreams.o (symbol from plugin)
nullstreams.c.9b6e36ef                            /tmp/ccbVf9uwdebugobj
nvic.c.80a2c01f                                   /tmp/ccbVf9uwdebugobj
                                                  /tmp/ccxSiIU7.ltrans0.ltrans.o
nvicClearPending                                  ./build/obj/nvic.o (symbol from plugin)
nvicDisableVector                                 ./build/obj/nvic.o (symbol from plugin)
                                                  ./build/obj/hal_gpt_lld.o (symbol from plugin)
                                                  ./build/obj/stm32_isr.o (symbol from plugin)
nvicEnableVector                                  ./build/obj/nvic.o (symbol from plugin)
                                                  ./build/obj/hal_serial_lld.o (symbol from plugin)
                                                  ./build/obj/hal_gpt_lld.o (symbol from plugin)
                                                  ./build/obj/hal_st_lld.o (symbol from plugin)
                                                  ./build/obj/stm32_isr.o (symbol from plugin)
nvicSetSystemHandlerPriority                      ./build/obj/nvic.o (symbol from plugin)
obqFlush                                          ./build/obj/hal_buffers.o (symbol from plugin)
obqGetEmptyBufferTimeout                          ./build/obj/hal_buffers.o (symbol from plugin)
obqGetEmptyBufferTimeoutS                         ./build/obj/hal_buffers.o (symbol from plugin)
obqGetFullBufferI                                 ./build/obj/hal_buffers.o (symbol from plugin)
obqObjectInit                                     ./build/obj/hal_buffers.o (symbol from plugin)
obqPostFullBuffer                                 ./build/obj/hal_buffers.o (symbol from plugin)
obqPostFullBufferS                                ./build/obj/hal_buffers.o (symbol from plugin)
obqPutTimeout                                     ./build/obj/hal_buffers.o (symbol from plugin)
obqReleaseEmptyBufferI                            ./build/obj/hal_buffers.o (symbol from plugin)
obqResetI                                         ./build/obj/hal_buffers.o (symbol from plugin)
obqTryFlushI                                      ./build/obj/hal_buffers.o (symbol from plugin)
obqWriteTimeout                                   ./build/obj/hal_buffers.o (symbol from plugin)
operator delete(void*)                            /home/antodom/installations/ChibiStudio/tools/GNU Tools ARM Embedded/8.3.1 2019q3/bin/../lib/gcc/arm-none-eabi/8.3.1/../../../../arm-none-eabi/lib/thumb/v7e-m/nofp/libstdc++.a(del_op.o)
                                                  /home/antodom/installations/ChibiStudio/tools/GNU Tools ARM Embedded/8.3.1 2019q3/bin/../lib/gcc/arm-none-eabi/8.3.1/../../../../arm-none-eabi/lib/thumb/v7e-m/nofp/libstdc++.a(del_ops.o)
operator delete(void*, unsigned int)              /home/antodom/installations/ChibiStudio/tools/GNU Tools ARM Embedded/8.3.1 2019q3/bin/../lib/gcc/arm-none-eabi/8.3.1/../../../../arm-none-eabi/lib/thumb/v7e-m/nofp/libstdc++.a(del_ops.o)
                                                  /home/antodom/installations/ChibiStudio/tools/GNU Tools ARM Embedded/8.3.1 2019q3/bin/../lib/gcc/arm-none-eabi/8.3.1/../../../../arm-none-eabi/lib/thumb/v7e-m/nofp/libstdc++.a(class_type_info.o)
                                                  /home/antodom/installations/ChibiStudio/tools/GNU Tools ARM Embedded/8.3.1 2019q3/bin/../lib/gcc/arm-none-eabi/8.3.1/../../../../arm-none-eabi/lib/thumb/v7e-m/nofp/libstdc++.a(tinfo.o)
                                                  /home/antodom/installations/ChibiStudio/tools/GNU Tools ARM Embedded/8.3.1 2019q3/bin/../lib/gcc/arm-none-eabi/8.3.1/../../../../arm-none-eabi/lib/thumb/v7e-m/nofp/libstdc++.a(si_class_type_info.o)
                                                  /home/antodom/installations/ChibiStudio/tools/GNU Tools ARM Embedded/8.3.1 2019q3/bin/../lib/gcc/arm-none-eabi/8.3.1/../../../../arm-none-eabi/lib/thumb/v7e-m/nofp/libstdc++.a(eh_exception.o)
oqGetI                                            ./build/obj/hal_queues.o (symbol from plugin)
                                                  ./build/obj/hal_serial_lld.o (symbol from plugin)
                                                  ./build/obj/hal_serial.o (symbol from plugin)
oqObjectInit                                      ./build/obj/hal_queues.o (symbol from plugin)
                                                  ./build/obj/hal_serial_lld.o (symbol from plugin)
oqPutI                                            ./build/obj/hal_queues.o (symbol from plugin)
oqPutTimeout                                      ./build/obj/hal_queues.o (symbol from plugin)
                                                  ./build/obj/hal_serial.o (symbol from plugin)
oqResetI                                          ./build/obj/hal_queues.o (symbol from plugin)
                                                  ./build/obj/hal_serial.o (symbol from plugin)
oqWriteI                                          ./build/obj/hal_queues.o (symbol from plugin)
oqWriteTimeout                                    ./build/obj/hal_queues.o (symbol from plugin)
                                                  ./build/obj/hal_serial.o (symbol from plugin)
osal.c.6b6a1d53                                   /tmp/ccbVf9uwdebugobj
oslib_test_root.c.bb30942b                        /tmp/ccbVf9uwdebugobj
oslib_test_sequence_001                           ./build/obj/oslib_test_sequence_001.o (symbol from plugin)
                                                  ./build/obj/oslib_test_root.o (symbol from plugin)
oslib_test_sequence_001.c.b5f03ede                /tmp/ccbVf9uwdebugobj
oslib_test_sequence_001_array                     ./build/obj/oslib_test_sequence_001.o (symbol from plugin)
oslib_test_sequence_002                           ./build/obj/oslib_test_sequence_002.o (symbol from plugin)
                                                  ./build/obj/oslib_test_root.o (symbol from plugin)
oslib_test_sequence_002.c.43677c17                /tmp/ccbVf9uwdebugobj
oslib_test_sequence_002_array                     ./build/obj/oslib_test_sequence_002.o (symbol from plugin)
oslib_test_sequence_003                           ./build/obj/oslib_test_sequence_003.o (symbol from plugin)
                                                  ./build/obj/oslib_test_root.o (symbol from plugin)
oslib_test_sequence_003.c.b28e093c                /tmp/ccbVf9uwdebugobj
oslib_test_sequence_003_array                     ./build/obj/oslib_test_sequence_003.o (symbol from plugin)
oslib_test_sequence_004                           ./build/obj/oslib_test_sequence_004.o (symbol from plugin)
                                                  ./build/obj/oslib_test_root.o (symbol from plugin)
oslib_test_sequence_004.c.08639770                /tmp/ccbVf9uwdebugobj
oslib_test_sequence_004_array                     ./build/obj/oslib_test_sequence_004.o (symbol from plugin)
oslib_test_sequence_005                           ./build/obj/oslib_test_sequence_005.o (symbol from plugin)
                                                  ./build/obj/oslib_test_root.o (symbol from plugin)
oslib_test_sequence_005.c.9ff907b7                /tmp/ccbVf9uwdebugobj
oslib_test_sequence_005_array                     ./build/obj/oslib_test_sequence_005.o (symbol from plugin)
oslib_test_suite                                  ./build/obj/oslib_test_root.o (symbol from plugin)
oslib_test_suite_array                            ./build/obj/oslib_test_root.o (symbol from plugin)
palReadBus                                        ./build/obj/hal_pal.o (symbol from plugin)
palSetBusMode                                     ./build/obj/hal_pal.o (symbol from plugin)
palSetLineCallbackI                               ./build/obj/hal_pal.o (symbol from plugin)
palSetPadCallbackI                                ./build/obj/hal_pal.o (symbol from plugin)
                                                  ./build/obj/main.o (symbol from plugin)
palWriteBus                                       ./build/obj/hal_pal.o (symbol from plugin)
putc                                              /home/antodom/installations/ChibiStudio/tools/GNU Tools ARM Embedded/8.3.1 2019q3/bin/../lib/gcc/arm-none-eabi/8.3.1/../../../../arm-none-eabi/lib/thumb/v7e-m/nofp/libg.a(lib_a-putc.o)
raise                                             /home/antodom/installations/ChibiStudio/tools/GNU Tools ARM Embedded/8.3.1 2019q3/bin/../lib/gcc/arm-none-eabi/8.3.1/../../../../arm-none-eabi/lib/thumb/v7e-m/nofp/libg.a(lib_a-signal.o)
                                                  /home/antodom/installations/ChibiStudio/tools/GNU Tools ARM Embedded/8.3.1 2019q3/bin/../lib/gcc/arm-none-eabi/8.3.1/../../../../arm-none-eabi/lib/thumb/v7e-m/nofp/libg.a(lib_a-abort.o)
realloc                                           /home/antodom/installations/ChibiStudio/tools/GNU Tools ARM Embedded/8.3.1 2019q3/bin/../lib/gcc/arm-none-eabi/8.3.1/../../../../arm-none-eabi/lib/thumb/v7e-m/nofp/libg.a(lib_a-realloc.o)
                                                  /home/antodom/installations/ChibiStudio/tools/GNU Tools ARM Embedded/8.3.1 2019q3/bin/../lib/gcc/arm-none-eabi/8.3.1/../../../../arm-none-eabi/lib/thumb/v7e-m/nofp/libstdc++.a(cp-demangle.o)
restore_core_regs                                 /home/antodom/installations/ChibiStudio/tools/GNU Tools ARM Embedded/8.3.1 2019q3/bin/../lib/gcc/arm-none-eabi/8.3.1/thumb/v7e-m/nofp/libgcc.a(libunwind.o)
                                                  /home/antodom/installations/ChibiStudio/tools/GNU Tools ARM Embedded/8.3.1 2019q3/bin/../lib/gcc/arm-none-eabi/8.3.1/thumb/v7e-m/nofp/libgcc.a(unwind-arm.o)
rt_test_root.c.4b366897                           /tmp/ccbVf9uwdebugobj
rt_test_sequence_001                              ./build/obj/rt_test_sequence_001.o (symbol from plugin)
                                                  ./build/obj/rt_test_root.o (symbol from plugin)
rt_test_sequence_001.c.b0b449ef                   /tmp/ccbVf9uwdebugobj
rt_test_sequence_001_array                        ./build/obj/rt_test_sequence_001.o (symbol from plugin)
rt_test_sequence_002                              ./build/obj/rt_test_sequence_002.o (symbol from plugin)
                                                  ./build/obj/rt_test_root.o (symbol from plugin)
rt_test_sequence_002.c.7eae4ed9                   /tmp/ccbVf9uwdebugobj
rt_test_sequence_002_array                        ./build/obj/rt_test_sequence_002.o (symbol from plugin)
rt_test_sequence_003                              ./build/obj/rt_test_sequence_003.o (symbol from plugin)
                                                  ./build/obj/rt_test_root.o (symbol from plugin)
rt_test_sequence_003.c.d80518f0                   /tmp/ccbVf9uwdebugobj
rt_test_sequence_003_array                        ./build/obj/rt_test_sequence_003.o (symbol from plugin)
rt_test_sequence_004                              ./build/obj/rt_test_sequence_004.o (symbol from plugin)
                                                  ./build/obj/rt_test_root.o (symbol from plugin)
rt_test_sequence_004.c.6204c375                   /tmp/ccbVf9uwdebugobj
rt_test_sequence_004_array                        ./build/obj/rt_test_sequence_004.o (symbol from plugin)
rt_test_sequence_005                              ./build/obj/rt_test_sequence_005.o (symbol from plugin)
                                                  ./build/obj/rt_test_root.o (symbol from plugin)
rt_test_sequence_005.c.cf49b90f                   /tmp/ccbVf9uwdebugobj
rt_test_sequence_005_array                        ./build/obj/rt_test_sequence_005.o (symbol from plugin)
rt_test_sequence_006                              ./build/obj/rt_test_sequence_006.o (symbol from plugin)
                                                  ./build/obj/rt_test_root.o (symbol from plugin)
rt_test_sequence_006.c.62cf57ec                   /tmp/ccbVf9uwdebugobj
rt_test_sequence_006_array                        ./build/obj/rt_test_sequence_006.o (symbol from plugin)
rt_test_sequence_007                              ./build/obj/rt_test_sequence_007.o (symbol from plugin)
                                                  ./build/obj/rt_test_root.o (symbol from plugin)
rt_test_sequence_007.c.7dd56147                   /tmp/ccbVf9uwdebugobj
rt_test_sequence_007_array                        ./build/obj/rt_test_sequence_007.o (symbol from plugin)
rt_test_sequence_008                              ./build/obj/rt_test_sequence_008.o (symbol from plugin)
                                                  ./build/obj/rt_test_root.o (symbol from plugin)
rt_test_sequence_008.c.1bfd452c                   /tmp/ccbVf9uwdebugobj
rt_test_sequence_008_array                        ./build/obj/rt_test_sequence_008.o (symbol from plugin)
rt_test_sequence_009                              ./build/obj/rt_test_sequence_009.o (symbol from plugin)
                                                  ./build/obj/rt_test_root.o (symbol from plugin)
rt_test_sequence_009.c.3304ffb1                   /tmp/ccbVf9uwdebugobj
rt_test_sequence_009_array                        ./build/obj/rt_test_sequence_009.o (symbol from plugin)
rt_test_sequence_010                              ./build/obj/rt_test_sequence_010.o (symbol from plugin)
                                                  ./build/obj/rt_test_root.o (symbol from plugin)
rt_test_sequence_010.c.934879b9                   /tmp/ccbVf9uwdebugobj
rt_test_sequence_010_array                        ./build/obj/rt_test_sequence_010.o (symbol from plugin)
rt_test_suite                                     ./build/obj/rt_test_root.o (symbol from plugin)
rt_test_suite_array                               ./build/obj/rt_test_root.o (symbol from plugin)
sdControl                                         ./build/obj/hal_serial.o (symbol from plugin)
sdGetWouldBlock                                   ./build/obj/hal_serial.o (symbol from plugin)
sdIncomingDataI                                   ./build/obj/hal_serial.o (symbol from plugin)
                                                  ./build/obj/hal_serial_lld.o (symbol from plugin)
sdInit                                            ./build/obj/hal_serial.o (symbol from plugin)
                                                  ./build/obj/hal.o (symbol from plugin)
sdObjectInit                                      ./build/obj/hal_serial.o (symbol from plugin)
                                                  ./build/obj/hal_serial_lld.o (symbol from plugin)
sdPutWouldBlock                                   ./build/obj/hal_serial.o (symbol from plugin)
sdRequestDataI                                    ./build/obj/hal_serial.o (symbol from plugin)
sdStart                                           ./build/obj/hal_serial.o (symbol from plugin)
                                                  ./build/obj/main.o (symbol from plugin)
sdStop                                            ./build/obj/hal_serial.o (symbol from plugin)
sd_lld_init                                       ./build/obj/hal_serial_lld.o (symbol from plugin)
                                                  ./build/obj/hal_serial.o (symbol from plugin)
sd_lld_start                                      ./build/obj/hal_serial_lld.o (symbol from plugin)
                                                  ./build/obj/hal_serial.o (symbol from plugin)
sd_lld_stop                                       ./build/obj/hal_serial_lld.o (symbol from plugin)
                                                  ./build/obj/hal_serial.o (symbol from plugin)
setlocale                                         /home/antodom/installations/ChibiStudio/tools/GNU Tools ARM Embedded/8.3.1 2019q3/bin/../lib/gcc/arm-none-eabi/8.3.1/../../../../arm-none-eabi/lib/thumb/v7e-m/nofp/libg.a(lib_a-locale.o)
signal                                            /home/antodom/installations/ChibiStudio/tools/GNU Tools ARM Embedded/8.3.1 2019q3/bin/../lib/gcc/arm-none-eabi/8.3.1/../../../../arm-none-eabi/lib/thumb/v7e-m/nofp/libg.a(lib_a-signal.o)
soft_uart::chibios::uart<&GPTD1, 256u, 256u>::_ctx_ ./build/obj/main.o (symbol from plugin)
soft_uart::chibios::uart<&GPTD1, 256u, 256u>::_gpt_callback_(GPTDriver*) ./build/obj/main.o (symbol from plugin)
soft_uart::chibios::uart<&GPTD1, 256u, 256u>::_gpt_config_ ./build/obj/main.o (symbol from plugin)
soft_uart::chibios::uart<&GPTD1, 256u, 256u>::_rx_callback_(void*) ./build/obj/main.o (symbol from plugin)
soft_uart::chibios::uart<&GPTD1, 256u, 256u>::_uart_ctx_::config(stm32_gpio_t*, unsigned long, stm32_gpio_t*, unsigned long, unsigned long, soft_uart::data_bit_codes, soft_uart::parity_codes, soft_uart::stop_bit_codes) ./build/obj/main.o (symbol from plugin)
soft_uart::chibios::uart<&GPTD1, 256u, 256u>::_uart_ctx_::end() ./build/obj/main.o (symbol from plugin)
soft_uart::chibios::uart<&GPTD1, 256u, 256u>::_uart_ctx_::get_rx_data(unsigned long&) ./build/obj/main.o (symbol from plugin)
soft_uart::chibios::uart<&GPTD1, 256u, 256u>::_uart_ctx_::rx_interrupt() ./build/obj/main.o (symbol from plugin)
soft_uart::chibios::uart<&GPTD1, 256u, 256u>::_uart_ctx_::set_tx_data(unsigned long) ./build/obj/main.o (symbol from plugin)
soft_uart::chibios::uart<&GPTD1, 256u, 256u>::_uart_ctx_::tc_interrupt() ./build/obj/main.o (symbol from plugin)
soft_uart::chibios::uart<&GPTD1, 256u, 256u>::_uart_ctx_::~_uart_ctx_() ./build/obj/main.o (symbol from plugin)
soft_uart::chibios::uart<&GPTD1, 256u, 256u>::_uart_ctx_::~_uart_ctx_() ./build/obj/main.o (symbol from plugin)
soft_uart::chibios::uart<&GPTD1, 256u, 256u>::half_duplex_config(stm32_gpio_t*, unsigned long, unsigned long, soft_uart::data_bit_codes, soft_uart::parity_codes, soft_uart::stop_bit_codes, bool) ./build/obj/main.o (symbol from plugin)
soft_uart::chibios::uart<&GPTD1, 256u, 256u>::set_rx_mode() ./build/obj/main.o (symbol from plugin)
soft_uart::chibios::uart<&GPTD1, 256u, 256u>::set_tx_mode() ./build/obj/main.o (symbol from plugin)
soft_uart::chibios::uart<&GPTD1, 256u, 256u>::~uart() ./build/obj/main.o (symbol from plugin)
soft_uart::chibios::uart<&GPTD1, 256u, 256u>::~uart() ./build/obj/main.o (symbol from plugin)
soft_uart::chibios::uart<&GPTD3, 256u, 256u>::_ctx_ ./build/obj/main.o (symbol from plugin)
soft_uart::chibios::uart<&GPTD3, 256u, 256u>::_gpt_callback_(GPTDriver*) ./build/obj/main.o (symbol from plugin)
soft_uart::chibios::uart<&GPTD3, 256u, 256u>::_gpt_config_ ./build/obj/main.o (symbol from plugin)
soft_uart::chibios::uart<&GPTD3, 256u, 256u>::_rx_callback_(void*) ./build/obj/main.o (symbol from plugin)
soft_uart::chibios::uart<&GPTD3, 256u, 256u>::_uart_ctx_::config(stm32_gpio_t*, unsigned long, stm32_gpio_t*, unsigned long, unsigned long, soft_uart::data_bit_codes, soft_uart::parity_codes, soft_uart::stop_bit_codes) ./build/obj/main.o (symbol from plugin)
soft_uart::chibios::uart<&GPTD3, 256u, 256u>::_uart_ctx_::end() ./build/obj/main.o (symbol from plugin)
soft_uart::chibios::uart<&GPTD3, 256u, 256u>::_uart_ctx_::get_rx_data(unsigned long&) ./build/obj/main.o (symbol from plugin)
soft_uart::chibios::uart<&GPTD3, 256u, 256u>::_uart_ctx_::rx_interrupt() ./build/obj/main.o (symbol from plugin)
soft_uart::chibios::uart<&GPTD3, 256u, 256u>::_uart_ctx_::set_tx_data(unsigned long) ./build/obj/main.o (symbol from plugin)
soft_uart::chibios::uart<&GPTD3, 256u, 256u>::_uart_ctx_::tc_interrupt() ./build/obj/main.o (symbol from plugin)
soft_uart::chibios::uart<&GPTD3, 256u, 256u>::_uart_ctx_::~_uart_ctx_() ./build/obj/main.o (symbol from plugin)
soft_uart::chibios::uart<&GPTD3, 256u, 256u>::_uart_ctx_::~_uart_ctx_() ./build/obj/main.o (symbol from plugin)
soft_uart::chibios::uart<&GPTD3, 256u, 256u>::half_duplex_config(stm32_gpio_t*, unsigned long, unsigned long, soft_uart::data_bit_codes, soft_uart::parity_codes, soft_uart::stop_bit_codes, bool) ./build/obj/main.o (symbol from plugin)
soft_uart::chibios::uart<&GPTD3, 256u, 256u>::set_rx_mode() ./build/obj/main.o (symbol from plugin)
soft_uart::chibios::uart<&GPTD3, 256u, 256u>::set_tx_mode() ./build/obj/main.o (symbol from plugin)
soft_uart::chibios::uart<&GPTD3, 256u, 256u>::~uart() ./build/obj/main.o (symbol from plugin)
soft_uart::chibios::uart<&GPTD3, 256u, 256u>::~uart() ./build/obj/main.o (symbol from plugin)
sprintf                                           /home/antodom/installations/ChibiStudio/tools/GNU Tools ARM Embedded/8.3.1 2019q3/bin/../lib/gcc/arm-none-eabi/8.3.1/../../../../arm-none-eabi/lib/thumb/v7e-m/nofp/libg.a(lib_a-sprintf.o)
                                                  /home/antodom/installations/ChibiStudio/tools/GNU Tools ARM Embedded/8.3.1 2019q3/bin/../lib/gcc/arm-none-eabi/8.3.1/../../../../arm-none-eabi/lib/thumb/v7e-m/nofp/libstdc++.a(cp-demangle.o)
stGetAlarm                                        ./build/obj/hal_st.o (symbol from plugin)
stInit                                            ./build/obj/hal_st.o (symbol from plugin)
                                                  ./build/obj/hal.o (symbol from plugin)
stSetAlarm                                        ./build/obj/hal_st.o (symbol from plugin)
                                                  ./build/obj/chvt.o (symbol from plugin)
                                                  ./build/obj/chsys.o (symbol from plugin)
stStartAlarm                                      ./build/obj/hal_st.o (symbol from plugin)
                                                  ./build/obj/chvt.o (symbol from plugin)
stStopAlarm                                       ./build/obj/hal_st.o (symbol from plugin)
                                                  ./build/obj/chvt.o (symbol from plugin)
                                                  ./build/obj/chsys.o (symbol from plugin)
st_lld_init                                       ./build/obj/hal_st_lld.o (symbol from plugin)
                                                  ./build/obj/hal_st.o (symbol from plugin)
std::bad_exception::what() const                  /home/antodom/installations/ChibiStudio/tools/GNU Tools ARM Embedded/8.3.1 2019q3/bin/../lib/gcc/arm-none-eabi/8.3.1/../../../../arm-none-eabi/lib/thumb/v7e-m/nofp/libstdc++.a(eh_exception.o)
std::bad_exception::~bad_exception()              /home/antodom/installations/ChibiStudio/tools/GNU Tools ARM Embedded/8.3.1 2019q3/bin/../lib/gcc/arm-none-eabi/8.3.1/../../../../arm-none-eabi/lib/thumb/v7e-m/nofp/libstdc++.a(eh_exception.o)
std::bad_exception::~bad_exception()              /home/antodom/installations/ChibiStudio/tools/GNU Tools ARM Embedded/8.3.1 2019q3/bin/../lib/gcc/arm-none-eabi/8.3.1/../../../../arm-none-eabi/lib/thumb/v7e-m/nofp/libstdc++.a(eh_exception.o)
                                                  /home/antodom/installations/ChibiStudio/tools/GNU Tools ARM Embedded/8.3.1 2019q3/bin/../lib/gcc/arm-none-eabi/8.3.1/../../../../arm-none-eabi/lib/thumb/v7e-m/nofp/libstdc++.a(eh_call.o)
std::bad_exception::~bad_exception()              /home/antodom/installations/ChibiStudio/tools/GNU Tools ARM Embedded/8.3.1 2019q3/bin/../lib/gcc/arm-none-eabi/8.3.1/../../../../arm-none-eabi/lib/thumb/v7e-m/nofp/libstdc++.a(eh_exception.o)
std::exception::what() const                      /home/antodom/installations/ChibiStudio/tools/GNU Tools ARM Embedded/8.3.1 2019q3/bin/../lib/gcc/arm-none-eabi/8.3.1/../../../../arm-none-eabi/lib/thumb/v7e-m/nofp/libstdc++.a(eh_exception.o)
std::exception::~exception()                      /home/antodom/installations/ChibiStudio/tools/GNU Tools ARM Embedded/8.3.1 2019q3/bin/../lib/gcc/arm-none-eabi/8.3.1/../../../../arm-none-eabi/lib/thumb/v7e-m/nofp/libstdc++.a(eh_exception.o)
std::exception::~exception()                      /home/antodom/installations/ChibiStudio/tools/GNU Tools ARM Embedded/8.3.1 2019q3/bin/../lib/gcc/arm-none-eabi/8.3.1/../../../../arm-none-eabi/lib/thumb/v7e-m/nofp/libstdc++.a(eh_exception.o)
std::exception::~exception()                      /home/antodom/installations/ChibiStudio/tools/GNU Tools ARM Embedded/8.3.1 2019q3/bin/../lib/gcc/arm-none-eabi/8.3.1/../../../../arm-none-eabi/lib/thumb/v7e-m/nofp/libstdc++.a(eh_exception.o)
std::get_terminate()                              /home/antodom/installations/ChibiStudio/tools/GNU Tools ARM Embedded/8.3.1 2019q3/bin/../lib/gcc/arm-none-eabi/8.3.1/../../../../arm-none-eabi/lib/thumb/v7e-m/nofp/libstdc++.a(eh_terminate.o)
                                                  /home/antodom/installations/ChibiStudio/tools/GNU Tools ARM Embedded/8.3.1 2019q3/bin/../lib/gcc/arm-none-eabi/8.3.1/../../../../arm-none-eabi/lib/thumb/v7e-m/nofp/libstdc++.a(eh_throw.o)
std::get_unexpected()                             /home/antodom/installations/ChibiStudio/tools/GNU Tools ARM Embedded/8.3.1 2019q3/bin/../lib/gcc/arm-none-eabi/8.3.1/../../../../arm-none-eabi/lib/thumb/v7e-m/nofp/libstdc++.a(eh_terminate.o)
                                                  /home/antodom/installations/ChibiStudio/tools/GNU Tools ARM Embedded/8.3.1 2019q3/bin/../lib/gcc/arm-none-eabi/8.3.1/../../../../arm-none-eabi/lib/thumb/v7e-m/nofp/libstdc++.a(eh_throw.o)
std::set_terminate(void (*)())                    /home/antodom/installations/ChibiStudio/tools/GNU Tools ARM Embedded/8.3.1 2019q3/bin/../lib/gcc/arm-none-eabi/8.3.1/../../../../arm-none-eabi/lib/thumb/v7e-m/nofp/libstdc++.a(eh_terminate.o)
std::set_unexpected(void (*)())                   /home/antodom/installations/ChibiStudio/tools/GNU Tools ARM Embedded/8.3.1 2019q3/bin/../lib/gcc/arm-none-eabi/8.3.1/../../../../arm-none-eabi/lib/thumb/v7e-m/nofp/libstdc++.a(eh_terminate.o)
std::terminate()                                  /home/antodom/installations/ChibiStudio/tools/GNU Tools ARM Embedded/8.3.1 2019q3/bin/../lib/gcc/arm-none-eabi/8.3.1/../../../../arm-none-eabi/lib/thumb/v7e-m/nofp/libstdc++.a(eh_terminate.o)
                                                  /home/antodom/installations/ChibiStudio/tools/GNU Tools ARM Embedded/8.3.1 2019q3/bin/../lib/gcc/arm-none-eabi/8.3.1/../../../../arm-none-eabi/lib/thumb/v7e-m/nofp/libstdc++.a(eh_unex_handler.o)
                                                  /home/antodom/installations/ChibiStudio/tools/GNU Tools ARM Embedded/8.3.1 2019q3/bin/../lib/gcc/arm-none-eabi/8.3.1/../../../../arm-none-eabi/lib/thumb/v7e-m/nofp/libstdc++.a(eh_alloc.o)
                                                  /home/antodom/installations/ChibiStudio/tools/GNU Tools ARM Embedded/8.3.1 2019q3/bin/../lib/gcc/arm-none-eabi/8.3.1/../../../../arm-none-eabi/lib/thumb/v7e-m/nofp/libstdc++.a(eh_throw.o)
                                                  /home/antodom/installations/ChibiStudio/tools/GNU Tools ARM Embedded/8.3.1 2019q3/bin/../lib/gcc/arm-none-eabi/8.3.1/../../../../arm-none-eabi/lib/thumb/v7e-m/nofp/libstdc++.a(eh_arm.o)
                                                  /home/antodom/installations/ChibiStudio/tools/GNU Tools ARM Embedded/8.3.1 2019q3/bin/../lib/gcc/arm-none-eabi/8.3.1/../../../../arm-none-eabi/lib/thumb/v7e-m/nofp/libstdc++.a(eh_catch.o)
                                                  /home/antodom/installations/ChibiStudio/tools/GNU Tools ARM Embedded/8.3.1 2019q3/bin/../lib/gcc/arm-none-eabi/8.3.1/../../../../arm-none-eabi/lib/thumb/v7e-m/nofp/libstdc++.a(eh_call.o)
                                                  /home/antodom/installations/ChibiStudio/tools/GNU Tools ARM Embedded/8.3.1 2019q3/bin/../lib/gcc/arm-none-eabi/8.3.1/../../../../arm-none-eabi/lib/thumb/v7e-m/nofp/libstdc++.a(eh_personality.o)
std::type_info::__do_catch(std::type_info const*, void**, unsigned int) const /home/antodom/installations/ChibiStudio/tools/GNU Tools ARM Embedded/8.3.1 2019q3/bin/../lib/gcc/arm-none-eabi/8.3.1/../../../../arm-none-eabi/lib/thumb/v7e-m/nofp/libstdc++.a(tinfo.o)
std::type_info::__do_upcast(__cxxabiv1::__class_type_info const*, void**) const /home/antodom/installations/ChibiStudio/tools/GNU Tools ARM Embedded/8.3.1 2019q3/bin/../lib/gcc/arm-none-eabi/8.3.1/../../../../arm-none-eabi/lib/thumb/v7e-m/nofp/libstdc++.a(tinfo.o)
std::type_info::__is_function_p() const           /home/antodom/installations/ChibiStudio/tools/GNU Tools ARM Embedded/8.3.1 2019q3/bin/../lib/gcc/arm-none-eabi/8.3.1/../../../../arm-none-eabi/lib/thumb/v7e-m/nofp/libstdc++.a(tinfo.o)
                                                  /home/antodom/installations/ChibiStudio/tools/GNU Tools ARM Embedded/8.3.1 2019q3/bin/../lib/gcc/arm-none-eabi/8.3.1/../../../../arm-none-eabi/lib/thumb/v7e-m/nofp/libstdc++.a(class_type_info.o)
                                                  /home/antodom/installations/ChibiStudio/tools/GNU Tools ARM Embedded/8.3.1 2019q3/bin/../lib/gcc/arm-none-eabi/8.3.1/../../../../arm-none-eabi/lib/thumb/v7e-m/nofp/libstdc++.a(si_class_type_info.o)
std::type_info::__is_pointer_p() const            /home/antodom/installations/ChibiStudio/tools/GNU Tools ARM Embedded/8.3.1 2019q3/bin/../lib/gcc/arm-none-eabi/8.3.1/../../../../arm-none-eabi/lib/thumb/v7e-m/nofp/libstdc++.a(tinfo.o)
                                                  /home/antodom/installations/ChibiStudio/tools/GNU Tools ARM Embedded/8.3.1 2019q3/bin/../lib/gcc/arm-none-eabi/8.3.1/../../../../arm-none-eabi/lib/thumb/v7e-m/nofp/libstdc++.a(class_type_info.o)
                                                  /home/antodom/installations/ChibiStudio/tools/GNU Tools ARM Embedded/8.3.1 2019q3/bin/../lib/gcc/arm-none-eabi/8.3.1/../../../../arm-none-eabi/lib/thumb/v7e-m/nofp/libstdc++.a(si_class_type_info.o)
std::type_info::operator==(std::type_info const&) const /home/antodom/installations/ChibiStudio/tools/GNU Tools ARM Embedded/8.3.1 2019q3/bin/../lib/gcc/arm-none-eabi/8.3.1/../../../../arm-none-eabi/lib/thumb/v7e-m/nofp/libstdc++.a(tinfo.o)
                                                  /home/antodom/installations/ChibiStudio/tools/GNU Tools ARM Embedded/8.3.1 2019q3/bin/../lib/gcc/arm-none-eabi/8.3.1/../../../../arm-none-eabi/lib/thumb/v7e-m/nofp/libstdc++.a(class_type_info.o)
                                                  /home/antodom/installations/ChibiStudio/tools/GNU Tools ARM Embedded/8.3.1 2019q3/bin/../lib/gcc/arm-none-eabi/8.3.1/../../../../arm-none-eabi/lib/thumb/v7e-m/nofp/libstdc++.a(si_class_type_info.o)
std::type_info::~type_info()                      /home/antodom/installations/ChibiStudio/tools/GNU Tools ARM Embedded/8.3.1 2019q3/bin/../lib/gcc/arm-none-eabi/8.3.1/../../../../arm-none-eabi/lib/thumb/v7e-m/nofp/libstdc++.a(tinfo.o)
std::type_info::~type_info()                      /home/antodom/installations/ChibiStudio/tools/GNU Tools ARM Embedded/8.3.1 2019q3/bin/../lib/gcc/arm-none-eabi/8.3.1/../../../../arm-none-eabi/lib/thumb/v7e-m/nofp/libstdc++.a(tinfo.o)
std::type_info::~type_info()                      /home/antodom/installations/ChibiStudio/tools/GNU Tools ARM Embedded/8.3.1 2019q3/bin/../lib/gcc/arm-none-eabi/8.3.1/../../../../arm-none-eabi/lib/thumb/v7e-m/nofp/libstdc++.a(tinfo.o)
                                                  /home/antodom/installations/ChibiStudio/tools/GNU Tools ARM Embedded/8.3.1 2019q3/bin/../lib/gcc/arm-none-eabi/8.3.1/../../../../arm-none-eabi/lib/thumb/v7e-m/nofp/libstdc++.a(class_type_info.o)
std::uncaught_exception()                         /home/antodom/installations/ChibiStudio/tools/GNU Tools ARM Embedded/8.3.1 2019q3/bin/../lib/gcc/arm-none-eabi/8.3.1/../../../../arm-none-eabi/lib/thumb/v7e-m/nofp/libstdc++.a(eh_catch.o)
std::uncaught_exceptions()                        /home/antodom/installations/ChibiStudio/tools/GNU Tools ARM Embedded/8.3.1 2019q3/bin/../lib/gcc/arm-none-eabi/8.3.1/../../../../arm-none-eabi/lib/thumb/v7e-m/nofp/libstdc++.a(eh_catch.o)
std::unexpected()                                 /home/antodom/installations/ChibiStudio/tools/GNU Tools ARM Embedded/8.3.1 2019q3/bin/../lib/gcc/arm-none-eabi/8.3.1/../../../../arm-none-eabi/lib/thumb/v7e-m/nofp/libstdc++.a(eh_terminate.o)
                                                  /home/antodom/installations/ChibiStudio/tools/GNU Tools ARM Embedded/8.3.1 2019q3/bin/../lib/gcc/arm-none-eabi/8.3.1/../../../../arm-none-eabi/lib/thumb/v7e-m/nofp/libstdc++.a(eh_call.o)
                                                  /home/antodom/installations/ChibiStudio/tools/GNU Tools ARM Embedded/8.3.1 2019q3/bin/../lib/gcc/arm-none-eabi/8.3.1/../../../../arm-none-eabi/lib/thumb/v7e-m/nofp/libstdc++.a(eh_personality.o)
stm32_clock_init                                  ./build/obj/hal_lld.o (symbol from plugin)
                                                  ./build/obj/board.o (symbol from plugin)
stm32_dma.c.14e7545b                              /tmp/ccbVf9uwdebugobj
stm32_exti.c.47eece20                             /tmp/ccbVf9uwdebugobj
stm32_isr.c.3c770e24                              /tmp/ccbVf9uwdebugobj
                                                  /tmp/ccxSiIU7.ltrans0.ltrans.o
strcmp                                            /home/antodom/installations/ChibiStudio/tools/GNU Tools ARM Embedded/8.3.1 2019q3/bin/../lib/gcc/arm-none-eabi/8.3.1/../../../../arm-none-eabi/lib/thumb/v7e-m/nofp/libg.a(lib_a-strcmp.o)
                                                  /home/antodom/installations/ChibiStudio/tools/GNU Tools ARM Embedded/8.3.1 2019q3/bin/../lib/gcc/arm-none-eabi/8.3.1/../../../../arm-none-eabi/lib/thumb/v7e-m/nofp/libg.a(lib_a-locale.o)
                                                  /home/antodom/installations/ChibiStudio/tools/GNU Tools ARM Embedded/8.3.1 2019q3/bin/../lib/gcc/arm-none-eabi/8.3.1/../../../../arm-none-eabi/lib/thumb/v7e-m/nofp/libstdc++.a(tinfo.o)
                                                  /home/antodom/installations/ChibiStudio/tools/GNU Tools ARM Embedded/8.3.1 2019q3/bin/../lib/gcc/arm-none-eabi/8.3.1/../../../../arm-none-eabi/lib/thumb/v7e-m/nofp/libstdc++.a(cp-demangle.o)
strlen                                            /home/antodom/installations/ChibiStudio/tools/GNU Tools ARM Embedded/8.3.1 2019q3/bin/../lib/gcc/arm-none-eabi/8.3.1/../../../../arm-none-eabi/lib/thumb/v7e-m/nofp/libg.a(lib_a-strlen.o)
                                                  /home/antodom/installations/ChibiStudio/tools/GNU Tools ARM Embedded/8.3.1 2019q3/bin/../lib/gcc/arm-none-eabi/8.3.1/../../../../arm-none-eabi/lib/thumb/v7e-m/nofp/libg.a(lib_a-svfiprintf.o)
                                                  /home/antodom/installations/ChibiStudio/tools/GNU Tools ARM Embedded/8.3.1 2019q3/bin/../lib/gcc/arm-none-eabi/8.3.1/../../../../arm-none-eabi/lib/thumb/v7e-m/nofp/libg.a(lib_a-svfprintf.o)
                                                  /home/antodom/installations/ChibiStudio/tools/GNU Tools ARM Embedded/8.3.1 2019q3/bin/../lib/gcc/arm-none-eabi/8.3.1/../../../../arm-none-eabi/lib/thumb/v7e-m/nofp/libg.a(lib_a-fputs.o)
                                                  /home/antodom/installations/ChibiStudio/tools/GNU Tools ARM Embedded/8.3.1 2019q3/bin/../lib/gcc/arm-none-eabi/8.3.1/../../../../arm-none-eabi/lib/thumb/v7e-m/nofp/libstdc++.a(cp-demangle.o)
strncmp                                           /home/antodom/installations/ChibiStudio/tools/GNU Tools ARM Embedded/8.3.1 2019q3/bin/../lib/gcc/arm-none-eabi/8.3.1/../../../../arm-none-eabi/lib/thumb/v7e-m/nofp/libg.a(lib_a-strncmp.o)
                                                  /home/antodom/installations/ChibiStudio/tools/GNU Tools ARM Embedded/8.3.1 2019q3/bin/../lib/gcc/arm-none-eabi/8.3.1/../../../../arm-none-eabi/lib/thumb/v7e-m/nofp/libstdc++.a(cp-demangle.o)
strncpy                                           /home/antodom/installations/ChibiStudio/tools/GNU Tools ARM Embedded/8.3.1 2019q3/bin/../lib/gcc/arm-none-eabi/8.3.1/../../../../arm-none-eabi/lib/thumb/v7e-m/nofp/libg.a(lib_a-strncpy.o)
                                                  /home/antodom/installations/ChibiStudio/tools/GNU Tools ARM Embedded/8.3.1 2019q3/bin/../lib/gcc/arm-none-eabi/8.3.1/../../../../arm-none-eabi/lib/thumb/v7e-m/nofp/libg.a(lib_a-svfiprintf.o)
                                                  /home/antodom/installations/ChibiStudio/tools/GNU Tools ARM Embedded/8.3.1 2019q3/bin/../lib/gcc/arm-none-eabi/8.3.1/../../../../arm-none-eabi/lib/thumb/v7e-m/nofp/libg.a(lib_a-svfprintf.o)
syscalls.c.2dc70b7f                               /tmp/ccbVf9uwdebugobj
                                                  /tmp/ccxSiIU7.ltrans0.ltrans.o
syscalls_cpp.cpp.2e30ef95                         /tmp/ccbVf9uwdebugobj
                                                  /tmp/ccxSiIU7.ltrans0.ltrans.o
test_buffer                                       ./build/obj/rt_test_root.o (symbol from plugin)
                                                  ./build/obj/rt_test_sequence_009.o (symbol from plugin)
test_emit_token                                   ./build/obj/ch_test.o (symbol from plugin)
                                                  ./build/obj/oslib_test_sequence_001.o (symbol from plugin)
                                                  ./build/obj/rt_test_sequence_009.o (symbol from plugin)
                                                  ./build/obj/rt_test_sequence_008.o (symbol from plugin)
                                                  ./build/obj/rt_test_sequence_007.o (symbol from plugin)
                                                  ./build/obj/rt_test_sequence_006.o (symbol from plugin)
                                                  ./build/obj/rt_test_sequence_005.o (symbol from plugin)
                                                  ./build/obj/rt_test_sequence_004.o (symbol from plugin)
                                                  ./build/obj/rt_test_sequence_003.o (symbol from plugin)
test_emit_token_i                                 ./build/obj/ch_test.o (symbol from plugin)
test_execute                                      ./build/obj/ch_test.o (symbol from plugin)
test_global_fail                                  ./build/obj/ch_test.o (symbol from plugin)
test_print                                        ./build/obj/ch_test.o (symbol from plugin)
                                                  ./build/obj/rt_test_sequence_010.o (symbol from plugin)
                                                  ./build/obj/rt_test_sequence_001.o (symbol from plugin)
test_println                                      ./build/obj/ch_test.o (symbol from plugin)
                                                  ./build/obj/rt_test_sequence_010.o (symbol from plugin)
                                                  ./build/obj/rt_test_sequence_001.o (symbol from plugin)
test_printn                                       ./build/obj/ch_test.o (symbol from plugin)
                                                  ./build/obj/rt_test_sequence_010.o (symbol from plugin)
                                                  ./build/obj/rt_test_sequence_001.o (symbol from plugin)
test_step                                         ./build/obj/ch_test.o (symbol from plugin)
                                                  ./build/obj/oslib_test_sequence_005.o (symbol from plugin)
                                                  ./build/obj/oslib_test_sequence_004.o (symbol from plugin)
                                                  ./build/obj/oslib_test_sequence_003.o (symbol from plugin)
                                                  ./build/obj/oslib_test_sequence_002.o (symbol from plugin)
                                                  ./build/obj/oslib_test_sequence_001.o (symbol from plugin)
                                                  ./build/obj/rt_test_sequence_010.o (symbol from plugin)
                                                  ./build/obj/rt_test_sequence_009.o (symbol from plugin)
                                                  ./build/obj/rt_test_sequence_008.o (symbol from plugin)
                                                  ./build/obj/rt_test_sequence_007.o (symbol from plugin)
                                                  ./build/obj/rt_test_sequence_006.o (symbol from plugin)
                                                  ./build/obj/rt_test_sequence_005.o (symbol from plugin)
                                                  ./build/obj/rt_test_sequence_004.o (symbol from plugin)
                                                  ./build/obj/rt_test_sequence_003.o (symbol from plugin)
                                                  ./build/obj/rt_test_sequence_002.o (symbol from plugin)
                                                  ./build/obj/rt_test_sequence_001.o (symbol from plugin)
test_terminate_threads                            ./build/obj/rt_test_root.o (symbol from plugin)
                                                  ./build/obj/rt_test_sequence_010.o (symbol from plugin)
test_wait_threads                                 ./build/obj/rt_test_root.o (symbol from plugin)
                                                  ./build/obj/rt_test_sequence_010.o (symbol from plugin)
                                                  ./build/obj/rt_test_sequence_009.o (symbol from plugin)
                                                  ./build/obj/rt_test_sequence_008.o (symbol from plugin)
                                                  ./build/obj/rt_test_sequence_007.o (symbol from plugin)
                                                  ./build/obj/rt_test_sequence_006.o (symbol from plugin)
                                                  ./build/obj/rt_test_sequence_005.o (symbol from plugin)
                                                  ./build/obj/rt_test_sequence_004.o (symbol from plugin)
                                                  ./build/obj/rt_test_sequence_003.o (symbol from plugin)
test_wait_tick                                    ./build/obj/rt_test_root.o (symbol from plugin)
                                                  ./build/obj/rt_test_sequence_010.o (symbol from plugin)
                                                  ./build/obj/rt_test_sequence_008.o (symbol from plugin)
                                                  ./build/obj/rt_test_sequence_005.o (symbol from plugin)
threads                                           ./build/obj/rt_test_root.o (symbol from plugin)
                                                  ./build/obj/rt_test_sequence_010.o (symbol from plugin)
                                                  ./build/obj/rt_test_sequence_009.o (symbol from plugin)
                                                  ./build/obj/rt_test_sequence_008.o (symbol from plugin)
                                                  ./build/obj/rt_test_sequence_007.o (symbol from plugin)
                                                  ./build/obj/rt_test_sequence_006.o (symbol from plugin)
                                                  ./build/obj/rt_test_sequence_005.o (symbol from plugin)
                                                  ./build/obj/rt_test_sequence_004.o (symbol from plugin)
                                                  ./build/obj/rt_test_sequence_003.o (symbol from plugin)
transaction clone for std::bad_exception::what() const /home/antodom/installations/ChibiStudio/tools/GNU Tools ARM Embedded/8.3.1 2019q3/bin/../lib/gcc/arm-none-eabi/8.3.1/../../../../arm-none-eabi/lib/thumb/v7e-m/nofp/libstdc++.a(eh_exception.o)
transaction clone for std::bad_exception::~bad_exception() const /home/antodom/installations/ChibiStudio/tools/GNU Tools ARM Embedded/8.3.1 2019q3/bin/../lib/gcc/arm-none-eabi/8.3.1/../../../../arm-none-eabi/lib/thumb/v7e-m/nofp/libstdc++.a(eh_exception.o)
transaction clone for std::exception::what() const /home/antodom/installations/ChibiStudio/tools/GNU Tools ARM Embedded/8.3.1 2019q3/bin/../lib/gcc/arm-none-eabi/8.3.1/../../../../arm-none-eabi/lib/thumb/v7e-m/nofp/libstdc++.a(eh_exception.o)
transaction clone for std::exception::~exception() const /home/antodom/installations/ChibiStudio/tools/GNU Tools ARM Embedded/8.3.1 2019q3/bin/../lib/gcc/arm-none-eabi/8.3.1/../../../../arm-none-eabi/lib/thumb/v7e-m/nofp/libstdc++.a(eh_exception.o)
typeinfo for __cxxabiv1::__class_type_info        /home/antodom/installations/ChibiStudio/tools/GNU Tools ARM Embedded/8.3.1 2019q3/bin/../lib/gcc/arm-none-eabi/8.3.1/../../../../arm-none-eabi/lib/thumb/v7e-m/nofp/libstdc++.a(class_type_info.o)
                                                  /home/antodom/installations/ChibiStudio/tools/GNU Tools ARM Embedded/8.3.1 2019q3/bin/../lib/gcc/arm-none-eabi/8.3.1/../../../../arm-none-eabi/lib/thumb/v7e-m/nofp/libstdc++.a(si_class_type_info.o)
typeinfo for __cxxabiv1::__forced_unwind          /home/antodom/installations/ChibiStudio/tools/GNU Tools ARM Embedded/8.3.1 2019q3/bin/../lib/gcc/arm-none-eabi/8.3.1/../../../../arm-none-eabi/lib/thumb/v7e-m/nofp/libstdc++.a(eh_exception.o)
                                                  /home/antodom/installations/ChibiStudio/tools/GNU Tools ARM Embedded/8.3.1 2019q3/bin/../lib/gcc/arm-none-eabi/8.3.1/../../../../arm-none-eabi/lib/thumb/v7e-m/nofp/libstdc++.a(eh_arm.o)
typeinfo for __cxxabiv1::__foreign_exception      /home/antodom/installations/ChibiStudio/tools/GNU Tools ARM Embedded/8.3.1 2019q3/bin/../lib/gcc/arm-none-eabi/8.3.1/../../../../arm-none-eabi/lib/thumb/v7e-m/nofp/libstdc++.a(eh_exception.o)
                                                  /home/antodom/installations/ChibiStudio/tools/GNU Tools ARM Embedded/8.3.1 2019q3/bin/../lib/gcc/arm-none-eabi/8.3.1/../../../../arm-none-eabi/lib/thumb/v7e-m/nofp/libstdc++.a(eh_arm.o)
typeinfo for __cxxabiv1::__si_class_type_info     /home/antodom/installations/ChibiStudio/tools/GNU Tools ARM Embedded/8.3.1 2019q3/bin/../lib/gcc/arm-none-eabi/8.3.1/../../../../arm-none-eabi/lib/thumb/v7e-m/nofp/libstdc++.a(si_class_type_info.o)
typeinfo for std::bad_exception                   /home/antodom/installations/ChibiStudio/tools/GNU Tools ARM Embedded/8.3.1 2019q3/bin/../lib/gcc/arm-none-eabi/8.3.1/../../../../arm-none-eabi/lib/thumb/v7e-m/nofp/libstdc++.a(eh_exception.o)
                                                  /home/antodom/installations/ChibiStudio/tools/GNU Tools ARM Embedded/8.3.1 2019q3/bin/../lib/gcc/arm-none-eabi/8.3.1/../../../../arm-none-eabi/lib/thumb/v7e-m/nofp/libstdc++.a(eh_call.o)
typeinfo for std::exception                       /home/antodom/installations/ChibiStudio/tools/GNU Tools ARM Embedded/8.3.1 2019q3/bin/../lib/gcc/arm-none-eabi/8.3.1/../../../../arm-none-eabi/lib/thumb/v7e-m/nofp/libstdc++.a(eh_exception.o)
                                                  /home/antodom/installations/ChibiStudio/tools/GNU Tools ARM Embedded/8.3.1 2019q3/bin/../lib/gcc/arm-none-eabi/8.3.1/../../../../arm-none-eabi/lib/thumb/v7e-m/nofp/libstdc++.a(vterminate.o)
typeinfo for std::type_info                       /home/antodom/installations/ChibiStudio/tools/GNU Tools ARM Embedded/8.3.1 2019q3/bin/../lib/gcc/arm-none-eabi/8.3.1/../../../../arm-none-eabi/lib/thumb/v7e-m/nofp/libstdc++.a(tinfo.o)
                                                  /home/antodom/installations/ChibiStudio/tools/GNU Tools ARM Embedded/8.3.1 2019q3/bin/../lib/gcc/arm-none-eabi/8.3.1/../../../../arm-none-eabi/lib/thumb/v7e-m/nofp/libstdc++.a(class_type_info.o)
typeinfo name for __cxxabiv1::__class_type_info   /home/antodom/installations/ChibiStudio/tools/GNU Tools ARM Embedded/8.3.1 2019q3/bin/../lib/gcc/arm-none-eabi/8.3.1/../../../../arm-none-eabi/lib/thumb/v7e-m/nofp/libstdc++.a(class_type_info.o)
typeinfo name for __cxxabiv1::__forced_unwind     /home/antodom/installations/ChibiStudio/tools/GNU Tools ARM Embedded/8.3.1 2019q3/bin/../lib/gcc/arm-none-eabi/8.3.1/../../../../arm-none-eabi/lib/thumb/v7e-m/nofp/libstdc++.a(eh_exception.o)
typeinfo name for __cxxabiv1::__foreign_exception /home/antodom/installations/ChibiStudio/tools/GNU Tools ARM Embedded/8.3.1 2019q3/bin/../lib/gcc/arm-none-eabi/8.3.1/../../../../arm-none-eabi/lib/thumb/v7e-m/nofp/libstdc++.a(eh_exception.o)
typeinfo name for __cxxabiv1::__si_class_type_info /home/antodom/installations/ChibiStudio/tools/GNU Tools ARM Embedded/8.3.1 2019q3/bin/../lib/gcc/arm-none-eabi/8.3.1/../../../../arm-none-eabi/lib/thumb/v7e-m/nofp/libstdc++.a(si_class_type_info.o)
typeinfo name for std::bad_exception              /home/antodom/installations/ChibiStudio/tools/GNU Tools ARM Embedded/8.3.1 2019q3/bin/../lib/gcc/arm-none-eabi/8.3.1/../../../../arm-none-eabi/lib/thumb/v7e-m/nofp/libstdc++.a(eh_exception.o)
typeinfo name for std::exception                  /home/antodom/installations/ChibiStudio/tools/GNU Tools ARM Embedded/8.3.1 2019q3/bin/../lib/gcc/arm-none-eabi/8.3.1/../../../../arm-none-eabi/lib/thumb/v7e-m/nofp/libstdc++.a(eh_exception.o)
typeinfo name for std::type_info                  /home/antodom/installations/ChibiStudio/tools/GNU Tools ARM Embedded/8.3.1 2019q3/bin/../lib/gcc/arm-none-eabi/8.3.1/../../../../arm-none-eabi/lib/thumb/v7e-m/nofp/libstdc++.a(tinfo.o)
vtable for __cxxabiv1::__class_type_info          /home/antodom/installations/ChibiStudio/tools/GNU Tools ARM Embedded/8.3.1 2019q3/bin/../lib/gcc/arm-none-eabi/8.3.1/../../../../arm-none-eabi/lib/thumb/v7e-m/nofp/libstdc++.a(class_type_info.o)
                                                  /home/antodom/installations/ChibiStudio/tools/GNU Tools ARM Embedded/8.3.1 2019q3/bin/../lib/gcc/arm-none-eabi/8.3.1/../../../../arm-none-eabi/lib/thumb/v7e-m/nofp/libstdc++.a(tinfo.o)
                                                  /home/antodom/installations/ChibiStudio/tools/GNU Tools ARM Embedded/8.3.1 2019q3/bin/../lib/gcc/arm-none-eabi/8.3.1/../../../../arm-none-eabi/lib/thumb/v7e-m/nofp/libstdc++.a(eh_exception.o)
vtable for __cxxabiv1::__forced_unwind            /home/antodom/installations/ChibiStudio/tools/GNU Tools ARM Embedded/8.3.1 2019q3/bin/../lib/gcc/arm-none-eabi/8.3.1/../../../../arm-none-eabi/lib/thumb/v7e-m/nofp/libstdc++.a(eh_exception.o)
vtable for __cxxabiv1::__foreign_exception        /home/antodom/installations/ChibiStudio/tools/GNU Tools ARM Embedded/8.3.1 2019q3/bin/../lib/gcc/arm-none-eabi/8.3.1/../../../../arm-none-eabi/lib/thumb/v7e-m/nofp/libstdc++.a(eh_exception.o)
vtable for __cxxabiv1::__si_class_type_info       /home/antodom/installations/ChibiStudio/tools/GNU Tools ARM Embedded/8.3.1 2019q3/bin/../lib/gcc/arm-none-eabi/8.3.1/../../../../arm-none-eabi/lib/thumb/v7e-m/nofp/libstdc++.a(si_class_type_info.o)
                                                  /home/antodom/installations/ChibiStudio/tools/GNU Tools ARM Embedded/8.3.1 2019q3/bin/../lib/gcc/arm-none-eabi/8.3.1/../../../../arm-none-eabi/lib/thumb/v7e-m/nofp/libstdc++.a(class_type_info.o)
                                                  /home/antodom/installations/ChibiStudio/tools/GNU Tools ARM Embedded/8.3.1 2019q3/bin/../lib/gcc/arm-none-eabi/8.3.1/../../../../arm-none-eabi/lib/thumb/v7e-m/nofp/libstdc++.a(eh_exception.o)
vtable for std::bad_exception                     /home/antodom/installations/ChibiStudio/tools/GNU Tools ARM Embedded/8.3.1 2019q3/bin/../lib/gcc/arm-none-eabi/8.3.1/../../../../arm-none-eabi/lib/thumb/v7e-m/nofp/libstdc++.a(eh_exception.o)
                                                  /home/antodom/installations/ChibiStudio/tools/GNU Tools ARM Embedded/8.3.1 2019q3/bin/../lib/gcc/arm-none-eabi/8.3.1/../../../../arm-none-eabi/lib/thumb/v7e-m/nofp/libstdc++.a(eh_call.o)
vtable for std::exception                         /home/antodom/installations/ChibiStudio/tools/GNU Tools ARM Embedded/8.3.1 2019q3/bin/../lib/gcc/arm-none-eabi/8.3.1/../../../../arm-none-eabi/lib/thumb/v7e-m/nofp/libstdc++.a(eh_exception.o)
vtable for std::type_info                         /home/antodom/installations/ChibiStudio/tools/GNU Tools ARM Embedded/8.3.1 2019q3/bin/../lib/gcc/arm-none-eabi/8.3.1/../../../../arm-none-eabi/lib/thumb/v7e-m/nofp/libstdc++.a(tinfo.o)
wa                                                ./build/obj/rt_test_root.o (symbol from plugin)
                                                  ./build/obj/rt_test_sequence_010.o (symbol from plugin)
                                                  ./build/obj/rt_test_sequence_009.o (symbol from plugin)
                                                  ./build/obj/rt_test_sequence_008.o (symbol from plugin)
                                                  ./build/obj/rt_test_sequence_007.o (symbol from plugin)
                                                  ./build/obj/rt_test_sequence_006.o (symbol from plugin)
                                                  ./build/obj/rt_test_sequence_005.o (symbol from plugin)
                                                  ./build/obj/rt_test_sequence_004.o (symbol from plugin)
                                                  ./build/obj/rt_test_sequence_003.o (symbol from plugin)
